
Antenna Switch 6x2.elf:     file format elf32-littlearm

Sections:
Idx Name          Size      VMA       LMA       File off  Algn
  0 .isr_vector   000000c0  08000000  08000000  00010000  2**0
                  CONTENTS, ALLOC, LOAD, READONLY, DATA
  1 .text         00002cac  080000c0  080000c0  000100c0  2**2
                  CONTENTS, ALLOC, LOAD, READONLY, CODE
  2 .rodata       00000214  08002d6c  08002d6c  00012d6c  2**2
                  CONTENTS, ALLOC, LOAD, READONLY, DATA
  3 .ARM.extab    00000000  08002f80  08002f80  00020440  2**0
                  CONTENTS
  4 .ARM          00000000  08002f80  08002f80  00020440  2**0
                  CONTENTS
  5 .preinit_array 00000000  08002f80  08002f80  00020440  2**0
                  CONTENTS, ALLOC, LOAD, DATA
  6 .init_array   00000004  08002f80  08002f80  00012f80  2**2
                  CONTENTS, ALLOC, LOAD, DATA
  7 .fini_array   00000004  08002f84  08002f84  00012f84  2**2
                  CONTENTS, ALLOC, LOAD, DATA
  8 .data         00000440  20000000  08002f88  00020000  2**2
                  CONTENTS, ALLOC, LOAD, DATA
  9 .bss          00000510  20000440  080033c8  00020440  2**2
                  ALLOC
 10 ._user_heap_stack 00000600  20000950  080033c8  00020950  2**0
                  ALLOC
 11 .ARM.attributes 00000028  00000000  00000000  00020440  2**0
                  CONTENTS, READONLY
 12 .comment      0000007b  00000000  00000000  00020468  2**0
                  CONTENTS, READONLY
 13 .debug_frame  000002e0  00000000  00000000  000204e4  2**2
                  CONTENTS, READONLY, DEBUGGING

Disassembly of section .text:

080000c0 <__do_global_dtors_aux>:
 80000c0:	b510      	push	{r4, lr}
 80000c2:	4c06      	ldr	r4, [pc, #24]	; (80000dc <__do_global_dtors_aux+0x1c>)
 80000c4:	7823      	ldrb	r3, [r4, #0]
 80000c6:	2b00      	cmp	r3, #0
 80000c8:	d107      	bne.n	80000da <__do_global_dtors_aux+0x1a>
 80000ca:	4b05      	ldr	r3, [pc, #20]	; (80000e0 <__do_global_dtors_aux+0x20>)
 80000cc:	2b00      	cmp	r3, #0
 80000ce:	d002      	beq.n	80000d6 <__do_global_dtors_aux+0x16>
 80000d0:	4804      	ldr	r0, [pc, #16]	; (80000e4 <__do_global_dtors_aux+0x24>)
 80000d2:	e000      	b.n	80000d6 <__do_global_dtors_aux+0x16>
 80000d4:	bf00      	nop
 80000d6:	2301      	movs	r3, #1
 80000d8:	7023      	strb	r3, [r4, #0]
 80000da:	bd10      	pop	{r4, pc}
 80000dc:	20000440 	.word	0x20000440
 80000e0:	00000000 	.word	0x00000000
 80000e4:	08002d54 	.word	0x08002d54

080000e8 <frame_dummy>:
 80000e8:	4b04      	ldr	r3, [pc, #16]	; (80000fc <frame_dummy+0x14>)
 80000ea:	b510      	push	{r4, lr}
 80000ec:	2b00      	cmp	r3, #0
 80000ee:	d003      	beq.n	80000f8 <frame_dummy+0x10>
 80000f0:	4903      	ldr	r1, [pc, #12]	; (8000100 <frame_dummy+0x18>)
 80000f2:	4804      	ldr	r0, [pc, #16]	; (8000104 <frame_dummy+0x1c>)
 80000f4:	e000      	b.n	80000f8 <frame_dummy+0x10>
 80000f6:	bf00      	nop
 80000f8:	bd10      	pop	{r4, pc}
 80000fa:	46c0      	nop			; (mov r8, r8)
 80000fc:	00000000 	.word	0x00000000
 8000100:	20000444 	.word	0x20000444
 8000104:	08002d54 	.word	0x08002d54

08000108 <strcmp>:
 8000108:	7802      	ldrb	r2, [r0, #0]
 800010a:	780b      	ldrb	r3, [r1, #0]
 800010c:	2a00      	cmp	r2, #0
 800010e:	d003      	beq.n	8000118 <strcmp+0x10>
 8000110:	3001      	adds	r0, #1
 8000112:	3101      	adds	r1, #1
 8000114:	429a      	cmp	r2, r3
 8000116:	d0f7      	beq.n	8000108 <strcmp>
 8000118:	1ad0      	subs	r0, r2, r3
 800011a:	4770      	bx	lr

0800011c <strlen>:
 800011c:	2300      	movs	r3, #0
 800011e:	5cc2      	ldrb	r2, [r0, r3]
 8000120:	3301      	adds	r3, #1
 8000122:	2a00      	cmp	r2, #0
 8000124:	d1fb      	bne.n	800011e <strlen+0x2>
 8000126:	1e58      	subs	r0, r3, #1
 8000128:	4770      	bx	lr
	...

0800012c <__gnu_thumb1_case_uqi>:
 800012c:	b402      	push	{r1}
 800012e:	4671      	mov	r1, lr
 8000130:	0849      	lsrs	r1, r1, #1
 8000132:	0049      	lsls	r1, r1, #1
 8000134:	5c09      	ldrb	r1, [r1, r0]
 8000136:	0049      	lsls	r1, r1, #1
 8000138:	448e      	add	lr, r1
 800013a:	bc02      	pop	{r1}
 800013c:	4770      	bx	lr
 800013e:	46c0      	nop			; (mov r8, r8)

08000140 <__udivsi3>:
 8000140:	2200      	movs	r2, #0
 8000142:	0843      	lsrs	r3, r0, #1
 8000144:	428b      	cmp	r3, r1
 8000146:	d374      	bcc.n	8000232 <__udivsi3+0xf2>
 8000148:	0903      	lsrs	r3, r0, #4
 800014a:	428b      	cmp	r3, r1
 800014c:	d35f      	bcc.n	800020e <__udivsi3+0xce>
 800014e:	0a03      	lsrs	r3, r0, #8
 8000150:	428b      	cmp	r3, r1
 8000152:	d344      	bcc.n	80001de <__udivsi3+0x9e>
 8000154:	0b03      	lsrs	r3, r0, #12
 8000156:	428b      	cmp	r3, r1
 8000158:	d328      	bcc.n	80001ac <__udivsi3+0x6c>
 800015a:	0c03      	lsrs	r3, r0, #16
 800015c:	428b      	cmp	r3, r1
 800015e:	d30d      	bcc.n	800017c <__udivsi3+0x3c>
 8000160:	22ff      	movs	r2, #255	; 0xff
 8000162:	0209      	lsls	r1, r1, #8
 8000164:	ba12      	rev	r2, r2
 8000166:	0c03      	lsrs	r3, r0, #16
 8000168:	428b      	cmp	r3, r1
 800016a:	d302      	bcc.n	8000172 <__udivsi3+0x32>
 800016c:	1212      	asrs	r2, r2, #8
 800016e:	0209      	lsls	r1, r1, #8
 8000170:	d065      	beq.n	800023e <__udivsi3+0xfe>
 8000172:	0b03      	lsrs	r3, r0, #12
 8000174:	428b      	cmp	r3, r1
 8000176:	d319      	bcc.n	80001ac <__udivsi3+0x6c>
 8000178:	e000      	b.n	800017c <__udivsi3+0x3c>
 800017a:	0a09      	lsrs	r1, r1, #8
 800017c:	0bc3      	lsrs	r3, r0, #15
 800017e:	428b      	cmp	r3, r1
 8000180:	d301      	bcc.n	8000186 <__udivsi3+0x46>
 8000182:	03cb      	lsls	r3, r1, #15
 8000184:	1ac0      	subs	r0, r0, r3
 8000186:	4152      	adcs	r2, r2
 8000188:	0b83      	lsrs	r3, r0, #14
 800018a:	428b      	cmp	r3, r1
 800018c:	d301      	bcc.n	8000192 <__udivsi3+0x52>
 800018e:	038b      	lsls	r3, r1, #14
 8000190:	1ac0      	subs	r0, r0, r3
 8000192:	4152      	adcs	r2, r2
 8000194:	0b43      	lsrs	r3, r0, #13
 8000196:	428b      	cmp	r3, r1
 8000198:	d301      	bcc.n	800019e <__udivsi3+0x5e>
 800019a:	034b      	lsls	r3, r1, #13
 800019c:	1ac0      	subs	r0, r0, r3
 800019e:	4152      	adcs	r2, r2
 80001a0:	0b03      	lsrs	r3, r0, #12
 80001a2:	428b      	cmp	r3, r1
 80001a4:	d301      	bcc.n	80001aa <__udivsi3+0x6a>
 80001a6:	030b      	lsls	r3, r1, #12
 80001a8:	1ac0      	subs	r0, r0, r3
 80001aa:	4152      	adcs	r2, r2
 80001ac:	0ac3      	lsrs	r3, r0, #11
 80001ae:	428b      	cmp	r3, r1
 80001b0:	d301      	bcc.n	80001b6 <__udivsi3+0x76>
 80001b2:	02cb      	lsls	r3, r1, #11
 80001b4:	1ac0      	subs	r0, r0, r3
 80001b6:	4152      	adcs	r2, r2
 80001b8:	0a83      	lsrs	r3, r0, #10
 80001ba:	428b      	cmp	r3, r1
 80001bc:	d301      	bcc.n	80001c2 <__udivsi3+0x82>
 80001be:	028b      	lsls	r3, r1, #10
 80001c0:	1ac0      	subs	r0, r0, r3
 80001c2:	4152      	adcs	r2, r2
 80001c4:	0a43      	lsrs	r3, r0, #9
 80001c6:	428b      	cmp	r3, r1
 80001c8:	d301      	bcc.n	80001ce <__udivsi3+0x8e>
 80001ca:	024b      	lsls	r3, r1, #9
 80001cc:	1ac0      	subs	r0, r0, r3
 80001ce:	4152      	adcs	r2, r2
 80001d0:	0a03      	lsrs	r3, r0, #8
 80001d2:	428b      	cmp	r3, r1
 80001d4:	d301      	bcc.n	80001da <__udivsi3+0x9a>
 80001d6:	020b      	lsls	r3, r1, #8
 80001d8:	1ac0      	subs	r0, r0, r3
 80001da:	4152      	adcs	r2, r2
 80001dc:	d2cd      	bcs.n	800017a <__udivsi3+0x3a>
 80001de:	09c3      	lsrs	r3, r0, #7
 80001e0:	428b      	cmp	r3, r1
 80001e2:	d301      	bcc.n	80001e8 <__udivsi3+0xa8>
 80001e4:	01cb      	lsls	r3, r1, #7
 80001e6:	1ac0      	subs	r0, r0, r3
 80001e8:	4152      	adcs	r2, r2
 80001ea:	0983      	lsrs	r3, r0, #6
 80001ec:	428b      	cmp	r3, r1
 80001ee:	d301      	bcc.n	80001f4 <__udivsi3+0xb4>
 80001f0:	018b      	lsls	r3, r1, #6
 80001f2:	1ac0      	subs	r0, r0, r3
 80001f4:	4152      	adcs	r2, r2
 80001f6:	0943      	lsrs	r3, r0, #5
 80001f8:	428b      	cmp	r3, r1
 80001fa:	d301      	bcc.n	8000200 <__udivsi3+0xc0>
 80001fc:	014b      	lsls	r3, r1, #5
 80001fe:	1ac0      	subs	r0, r0, r3
 8000200:	4152      	adcs	r2, r2
 8000202:	0903      	lsrs	r3, r0, #4
 8000204:	428b      	cmp	r3, r1
 8000206:	d301      	bcc.n	800020c <__udivsi3+0xcc>
 8000208:	010b      	lsls	r3, r1, #4
 800020a:	1ac0      	subs	r0, r0, r3
 800020c:	4152      	adcs	r2, r2
 800020e:	08c3      	lsrs	r3, r0, #3
 8000210:	428b      	cmp	r3, r1
 8000212:	d301      	bcc.n	8000218 <__udivsi3+0xd8>
 8000214:	00cb      	lsls	r3, r1, #3
 8000216:	1ac0      	subs	r0, r0, r3
 8000218:	4152      	adcs	r2, r2
 800021a:	0883      	lsrs	r3, r0, #2
 800021c:	428b      	cmp	r3, r1
 800021e:	d301      	bcc.n	8000224 <__udivsi3+0xe4>
 8000220:	008b      	lsls	r3, r1, #2
 8000222:	1ac0      	subs	r0, r0, r3
 8000224:	4152      	adcs	r2, r2
 8000226:	0843      	lsrs	r3, r0, #1
 8000228:	428b      	cmp	r3, r1
 800022a:	d301      	bcc.n	8000230 <__udivsi3+0xf0>
 800022c:	004b      	lsls	r3, r1, #1
 800022e:	1ac0      	subs	r0, r0, r3
 8000230:	4152      	adcs	r2, r2
 8000232:	1a41      	subs	r1, r0, r1
 8000234:	d200      	bcs.n	8000238 <__udivsi3+0xf8>
 8000236:	4601      	mov	r1, r0
 8000238:	4152      	adcs	r2, r2
 800023a:	4610      	mov	r0, r2
 800023c:	4770      	bx	lr
 800023e:	e7ff      	b.n	8000240 <__udivsi3+0x100>
 8000240:	b501      	push	{r0, lr}
 8000242:	2000      	movs	r0, #0
 8000244:	f000 f806 	bl	8000254 <__aeabi_idiv0>
 8000248:	bd02      	pop	{r1, pc}
 800024a:	46c0      	nop			; (mov r8, r8)

0800024c <__aeabi_uidivmod>:
 800024c:	2900      	cmp	r1, #0
 800024e:	d0f7      	beq.n	8000240 <__udivsi3+0x100>
 8000250:	e776      	b.n	8000140 <__udivsi3>
 8000252:	4770      	bx	lr

08000254 <__aeabi_idiv0>:
 8000254:	4770      	bx	lr
 8000256:	46c0      	nop			; (mov r8, r8)

08000258 <HAL_InitTick>:
 8000258:	b510      	push	{r4, lr}
 800025a:	0004      	movs	r4, r0
 800025c:	f000 fbf0 	bl	8000a40 <HAL_RCC_GetHCLKFreq>
 8000260:	21fa      	movs	r1, #250	; 0xfa
 8000262:	0089      	lsls	r1, r1, #2
 8000264:	f7ff ff6c 	bl	8000140 <__udivsi3>
 8000268:	f000 f85a 	bl	8000320 <HAL_SYSTICK_Config>
 800026c:	2001      	movs	r0, #1
 800026e:	2200      	movs	r2, #0
 8000270:	0021      	movs	r1, r4
 8000272:	4240      	negs	r0, r0
 8000274:	f000 f820 	bl	80002b8 <HAL_NVIC_SetPriority>
 8000278:	2000      	movs	r0, #0
 800027a:	bd10      	pop	{r4, pc}

0800027c <HAL_Init>:
 800027c:	2310      	movs	r3, #16
 800027e:	4a06      	ldr	r2, [pc, #24]	; (8000298 <HAL_Init+0x1c>)
 8000280:	b510      	push	{r4, lr}
 8000282:	6811      	ldr	r1, [r2, #0]
 8000284:	2000      	movs	r0, #0
 8000286:	430b      	orrs	r3, r1
 8000288:	6013      	str	r3, [r2, #0]
 800028a:	f7ff ffe5 	bl	8000258 <HAL_InitTick>
 800028e:	f002 fb35 	bl	80028fc <HAL_MspInit>
 8000292:	2000      	movs	r0, #0
 8000294:	bd10      	pop	{r4, pc}
 8000296:	46c0      	nop			; (mov r8, r8)
 8000298:	40022000 	.word	0x40022000

0800029c <HAL_IncTick>:
 800029c:	4a02      	ldr	r2, [pc, #8]	; (80002a8 <HAL_IncTick+0xc>)
 800029e:	6813      	ldr	r3, [r2, #0]
 80002a0:	3301      	adds	r3, #1
 80002a2:	6013      	str	r3, [r2, #0]
 80002a4:	4770      	bx	lr
 80002a6:	46c0      	nop			; (mov r8, r8)
 80002a8:	20000834 	.word	0x20000834

080002ac <HAL_GetTick>:
 80002ac:	4b01      	ldr	r3, [pc, #4]	; (80002b4 <HAL_GetTick+0x8>)
 80002ae:	6818      	ldr	r0, [r3, #0]
 80002b0:	4770      	bx	lr
 80002b2:	46c0      	nop			; (mov r8, r8)
 80002b4:	20000834 	.word	0x20000834

080002b8 <HAL_NVIC_SetPriority>:
 80002b8:	b530      	push	{r4, r5, lr}
 80002ba:	25ff      	movs	r5, #255	; 0xff
 80002bc:	2403      	movs	r4, #3
 80002be:	002a      	movs	r2, r5
 80002c0:	b2c3      	uxtb	r3, r0
 80002c2:	401c      	ands	r4, r3
 80002c4:	00e4      	lsls	r4, r4, #3
 80002c6:	40a2      	lsls	r2, r4
 80002c8:	0189      	lsls	r1, r1, #6
 80002ca:	4029      	ands	r1, r5
 80002cc:	43d2      	mvns	r2, r2
 80002ce:	40a1      	lsls	r1, r4
 80002d0:	2800      	cmp	r0, #0
 80002d2:	da0b      	bge.n	80002ec <HAL_NVIC_SetPriority+0x34>
 80002d4:	200f      	movs	r0, #15
 80002d6:	4003      	ands	r3, r0
 80002d8:	3b08      	subs	r3, #8
 80002da:	480a      	ldr	r0, [pc, #40]	; (8000304 <HAL_NVIC_SetPriority+0x4c>)
 80002dc:	089b      	lsrs	r3, r3, #2
 80002de:	009b      	lsls	r3, r3, #2
 80002e0:	181b      	adds	r3, r3, r0
 80002e2:	69d8      	ldr	r0, [r3, #28]
 80002e4:	4002      	ands	r2, r0
 80002e6:	4311      	orrs	r1, r2
 80002e8:	61d9      	str	r1, [r3, #28]
 80002ea:	bd30      	pop	{r4, r5, pc}
 80002ec:	4b06      	ldr	r3, [pc, #24]	; (8000308 <HAL_NVIC_SetPriority+0x50>)
 80002ee:	0880      	lsrs	r0, r0, #2
 80002f0:	0080      	lsls	r0, r0, #2
 80002f2:	18c0      	adds	r0, r0, r3
 80002f4:	23c0      	movs	r3, #192	; 0xc0
 80002f6:	009b      	lsls	r3, r3, #2
 80002f8:	58c4      	ldr	r4, [r0, r3]
 80002fa:	4022      	ands	r2, r4
 80002fc:	4311      	orrs	r1, r2
 80002fe:	50c1      	str	r1, [r0, r3]
 8000300:	e7f3      	b.n	80002ea <HAL_NVIC_SetPriority+0x32>
 8000302:	46c0      	nop			; (mov r8, r8)
 8000304:	e000ed00 	.word	0xe000ed00
 8000308:	e000e100 	.word	0xe000e100

0800030c <HAL_NVIC_EnableIRQ>:
 800030c:	231f      	movs	r3, #31
 800030e:	4018      	ands	r0, r3
 8000310:	3b1e      	subs	r3, #30
 8000312:	4083      	lsls	r3, r0
 8000314:	4a01      	ldr	r2, [pc, #4]	; (800031c <HAL_NVIC_EnableIRQ+0x10>)
 8000316:	6013      	str	r3, [r2, #0]
 8000318:	4770      	bx	lr
 800031a:	46c0      	nop			; (mov r8, r8)
 800031c:	e000e100 	.word	0xe000e100

08000320 <HAL_SYSTICK_Config>:
 8000320:	4a09      	ldr	r2, [pc, #36]	; (8000348 <HAL_SYSTICK_Config+0x28>)
 8000322:	1e43      	subs	r3, r0, #1
 8000324:	2001      	movs	r0, #1
 8000326:	4293      	cmp	r3, r2
 8000328:	d80d      	bhi.n	8000346 <HAL_SYSTICK_Config+0x26>
 800032a:	21c0      	movs	r1, #192	; 0xc0
 800032c:	4a07      	ldr	r2, [pc, #28]	; (800034c <HAL_SYSTICK_Config+0x2c>)
 800032e:	4808      	ldr	r0, [pc, #32]	; (8000350 <HAL_SYSTICK_Config+0x30>)
 8000330:	6053      	str	r3, [r2, #4]
 8000332:	6a03      	ldr	r3, [r0, #32]
 8000334:	0609      	lsls	r1, r1, #24
 8000336:	021b      	lsls	r3, r3, #8
 8000338:	0a1b      	lsrs	r3, r3, #8
 800033a:	430b      	orrs	r3, r1
 800033c:	6203      	str	r3, [r0, #32]
 800033e:	2000      	movs	r0, #0
 8000340:	2307      	movs	r3, #7
 8000342:	6090      	str	r0, [r2, #8]
 8000344:	6013      	str	r3, [r2, #0]
 8000346:	4770      	bx	lr
 8000348:	00ffffff 	.word	0x00ffffff
 800034c:	e000e010 	.word	0xe000e010
 8000350:	e000ed00 	.word	0xe000ed00

08000354 <HAL_GPIO_Init>:
 8000354:	b5f0      	push	{r4, r5, r6, r7, lr}
 8000356:	680b      	ldr	r3, [r1, #0]
 8000358:	b087      	sub	sp, #28
 800035a:	9303      	str	r3, [sp, #12]
 800035c:	2300      	movs	r3, #0
 800035e:	9101      	str	r1, [sp, #4]
 8000360:	9a03      	ldr	r2, [sp, #12]
 8000362:	40da      	lsrs	r2, r3
 8000364:	d101      	bne.n	800036a <HAL_GPIO_Init+0x16>
 8000366:	b007      	add	sp, #28
 8000368:	bdf0      	pop	{r4, r5, r6, r7, pc}
 800036a:	2201      	movs	r2, #1
 800036c:	409a      	lsls	r2, r3
 800036e:	9202      	str	r2, [sp, #8]
 8000370:	9902      	ldr	r1, [sp, #8]
 8000372:	9a03      	ldr	r2, [sp, #12]
 8000374:	400a      	ands	r2, r1
 8000376:	9200      	str	r2, [sp, #0]
 8000378:	d100      	bne.n	800037c <HAL_GPIO_Init+0x28>
 800037a:	e08c      	b.n	8000496 <HAL_GPIO_Init+0x142>
 800037c:	9a01      	ldr	r2, [sp, #4]
 800037e:	2110      	movs	r1, #16
 8000380:	6852      	ldr	r2, [r2, #4]
 8000382:	0016      	movs	r6, r2
 8000384:	438e      	bics	r6, r1
 8000386:	2e02      	cmp	r6, #2
 8000388:	d10e      	bne.n	80003a8 <HAL_GPIO_Init+0x54>
 800038a:	2507      	movs	r5, #7
 800038c:	401d      	ands	r5, r3
 800038e:	00ad      	lsls	r5, r5, #2
 8000390:	3901      	subs	r1, #1
 8000392:	40a9      	lsls	r1, r5
 8000394:	08dc      	lsrs	r4, r3, #3
 8000396:	00a4      	lsls	r4, r4, #2
 8000398:	1904      	adds	r4, r0, r4
 800039a:	6a27      	ldr	r7, [r4, #32]
 800039c:	438f      	bics	r7, r1
 800039e:	9901      	ldr	r1, [sp, #4]
 80003a0:	6909      	ldr	r1, [r1, #16]
 80003a2:	40a9      	lsls	r1, r5
 80003a4:	430f      	orrs	r7, r1
 80003a6:	6227      	str	r7, [r4, #32]
 80003a8:	2403      	movs	r4, #3
 80003aa:	005f      	lsls	r7, r3, #1
 80003ac:	40bc      	lsls	r4, r7
 80003ae:	43e4      	mvns	r4, r4
 80003b0:	6805      	ldr	r5, [r0, #0]
 80003b2:	3e01      	subs	r6, #1
 80003b4:	4025      	ands	r5, r4
 80003b6:	46ac      	mov	ip, r5
 80003b8:	2503      	movs	r5, #3
 80003ba:	4015      	ands	r5, r2
 80003bc:	40bd      	lsls	r5, r7
 80003be:	4661      	mov	r1, ip
 80003c0:	430d      	orrs	r5, r1
 80003c2:	6005      	str	r5, [r0, #0]
 80003c4:	2e01      	cmp	r6, #1
 80003c6:	d80f      	bhi.n	80003e8 <HAL_GPIO_Init+0x94>
 80003c8:	9901      	ldr	r1, [sp, #4]
 80003ca:	6886      	ldr	r6, [r0, #8]
 80003cc:	68cd      	ldr	r5, [r1, #12]
 80003ce:	4026      	ands	r6, r4
 80003d0:	40bd      	lsls	r5, r7
 80003d2:	4335      	orrs	r5, r6
 80003d4:	6085      	str	r5, [r0, #8]
 80003d6:	6846      	ldr	r6, [r0, #4]
 80003d8:	9902      	ldr	r1, [sp, #8]
 80003da:	0915      	lsrs	r5, r2, #4
 80003dc:	438e      	bics	r6, r1
 80003de:	2101      	movs	r1, #1
 80003e0:	400d      	ands	r5, r1
 80003e2:	409d      	lsls	r5, r3
 80003e4:	4335      	orrs	r5, r6
 80003e6:	6045      	str	r5, [r0, #4]
 80003e8:	68c5      	ldr	r5, [r0, #12]
 80003ea:	9901      	ldr	r1, [sp, #4]
 80003ec:	402c      	ands	r4, r5
 80003ee:	688d      	ldr	r5, [r1, #8]
 80003f0:	2180      	movs	r1, #128	; 0x80
 80003f2:	40bd      	lsls	r5, r7
 80003f4:	0549      	lsls	r1, r1, #21
 80003f6:	432c      	orrs	r4, r5
 80003f8:	60c4      	str	r4, [r0, #12]
 80003fa:	420a      	tst	r2, r1
 80003fc:	d04b      	beq.n	8000496 <HAL_GPIO_Init+0x142>
 80003fe:	2101      	movs	r1, #1
 8000400:	4c26      	ldr	r4, [pc, #152]	; (800049c <HAL_GPIO_Init+0x148>)
 8000402:	2603      	movs	r6, #3
 8000404:	69a5      	ldr	r5, [r4, #24]
 8000406:	401e      	ands	r6, r3
 8000408:	430d      	orrs	r5, r1
 800040a:	61a5      	str	r5, [r4, #24]
 800040c:	69a4      	ldr	r4, [r4, #24]
 800040e:	089d      	lsrs	r5, r3, #2
 8000410:	400c      	ands	r4, r1
 8000412:	9405      	str	r4, [sp, #20]
 8000414:	9c05      	ldr	r4, [sp, #20]
 8000416:	240f      	movs	r4, #15
 8000418:	4921      	ldr	r1, [pc, #132]	; (80004a0 <HAL_GPIO_Init+0x14c>)
 800041a:	00ad      	lsls	r5, r5, #2
 800041c:	00b6      	lsls	r6, r6, #2
 800041e:	186d      	adds	r5, r5, r1
 8000420:	40b4      	lsls	r4, r6
 8000422:	2190      	movs	r1, #144	; 0x90
 8000424:	68af      	ldr	r7, [r5, #8]
 8000426:	05c9      	lsls	r1, r1, #23
 8000428:	43a7      	bics	r7, r4
 800042a:	2400      	movs	r4, #0
 800042c:	4288      	cmp	r0, r1
 800042e:	d00c      	beq.n	800044a <HAL_GPIO_Init+0xf6>
 8000430:	491c      	ldr	r1, [pc, #112]	; (80004a4 <HAL_GPIO_Init+0x150>)
 8000432:	3401      	adds	r4, #1
 8000434:	4288      	cmp	r0, r1
 8000436:	d008      	beq.n	800044a <HAL_GPIO_Init+0xf6>
 8000438:	491b      	ldr	r1, [pc, #108]	; (80004a8 <HAL_GPIO_Init+0x154>)
 800043a:	3401      	adds	r4, #1
 800043c:	4288      	cmp	r0, r1
 800043e:	d004      	beq.n	800044a <HAL_GPIO_Init+0xf6>
 8000440:	491a      	ldr	r1, [pc, #104]	; (80004ac <HAL_GPIO_Init+0x158>)
 8000442:	3403      	adds	r4, #3
 8000444:	4288      	cmp	r0, r1
 8000446:	d100      	bne.n	800044a <HAL_GPIO_Init+0xf6>
 8000448:	3c02      	subs	r4, #2
 800044a:	40b4      	lsls	r4, r6
 800044c:	9900      	ldr	r1, [sp, #0]
 800044e:	433c      	orrs	r4, r7
 8000450:	000e      	movs	r6, r1
 8000452:	60ac      	str	r4, [r5, #8]
 8000454:	4c16      	ldr	r4, [pc, #88]	; (80004b0 <HAL_GPIO_Init+0x15c>)
 8000456:	43cd      	mvns	r5, r1
 8000458:	6827      	ldr	r7, [r4, #0]
 800045a:	433e      	orrs	r6, r7
 800045c:	03d1      	lsls	r1, r2, #15
 800045e:	d401      	bmi.n	8000464 <HAL_GPIO_Init+0x110>
 8000460:	003e      	movs	r6, r7
 8000462:	402e      	ands	r6, r5
 8000464:	6026      	str	r6, [r4, #0]
 8000466:	6867      	ldr	r7, [r4, #4]
 8000468:	9e00      	ldr	r6, [sp, #0]
 800046a:	433e      	orrs	r6, r7
 800046c:	0391      	lsls	r1, r2, #14
 800046e:	d401      	bmi.n	8000474 <HAL_GPIO_Init+0x120>
 8000470:	003e      	movs	r6, r7
 8000472:	402e      	ands	r6, r5
 8000474:	6066      	str	r6, [r4, #4]
 8000476:	68a7      	ldr	r7, [r4, #8]
 8000478:	9e00      	ldr	r6, [sp, #0]
 800047a:	433e      	orrs	r6, r7
 800047c:	02d1      	lsls	r1, r2, #11
 800047e:	d401      	bmi.n	8000484 <HAL_GPIO_Init+0x130>
 8000480:	003e      	movs	r6, r7
 8000482:	402e      	ands	r6, r5
 8000484:	60a6      	str	r6, [r4, #8]
 8000486:	68e6      	ldr	r6, [r4, #12]
 8000488:	9f00      	ldr	r7, [sp, #0]
 800048a:	4337      	orrs	r7, r6
 800048c:	0292      	lsls	r2, r2, #10
 800048e:	d401      	bmi.n	8000494 <HAL_GPIO_Init+0x140>
 8000490:	402e      	ands	r6, r5
 8000492:	0037      	movs	r7, r6
 8000494:	60e7      	str	r7, [r4, #12]
 8000496:	3301      	adds	r3, #1
 8000498:	e762      	b.n	8000360 <HAL_GPIO_Init+0xc>
 800049a:	46c0      	nop			; (mov r8, r8)
 800049c:	40021000 	.word	0x40021000
 80004a0:	40010000 	.word	0x40010000
 80004a4:	48000400 	.word	0x48000400
 80004a8:	48000800 	.word	0x48000800
 80004ac:	48000c00 	.word	0x48000c00
 80004b0:	40010400 	.word	0x40010400

080004b4 <HAL_GPIO_ReadPin>:
 80004b4:	6900      	ldr	r0, [r0, #16]
 80004b6:	4008      	ands	r0, r1
 80004b8:	1e41      	subs	r1, r0, #1
 80004ba:	4188      	sbcs	r0, r1
 80004bc:	b2c0      	uxtb	r0, r0
 80004be:	4770      	bx	lr

080004c0 <HAL_GPIO_WritePin>:
 80004c0:	2a00      	cmp	r2, #0
 80004c2:	d001      	beq.n	80004c8 <HAL_GPIO_WritePin+0x8>
 80004c4:	6181      	str	r1, [r0, #24]
 80004c6:	4770      	bx	lr
 80004c8:	6281      	str	r1, [r0, #40]	; 0x28
 80004ca:	e7fc      	b.n	80004c6 <HAL_GPIO_WritePin+0x6>

080004cc <HAL_GPIO_EXTI_Callback>:
 80004cc:	4770      	bx	lr
	...

080004d0 <HAL_GPIO_EXTI_IRQHandler>:
 80004d0:	4b04      	ldr	r3, [pc, #16]	; (80004e4 <HAL_GPIO_EXTI_IRQHandler+0x14>)
 80004d2:	b510      	push	{r4, lr}
 80004d4:	695a      	ldr	r2, [r3, #20]
 80004d6:	4210      	tst	r0, r2
 80004d8:	d002      	beq.n	80004e0 <HAL_GPIO_EXTI_IRQHandler+0x10>
 80004da:	6158      	str	r0, [r3, #20]
 80004dc:	f7ff fff6 	bl	80004cc <HAL_GPIO_EXTI_Callback>
 80004e0:	bd10      	pop	{r4, pc}
 80004e2:	46c0      	nop			; (mov r8, r8)
 80004e4:	40010400 	.word	0x40010400

080004e8 <HAL_RCC_OscConfig>:
 80004e8:	b5f0      	push	{r4, r5, r6, r7, lr}
 80004ea:	6803      	ldr	r3, [r0, #0]
 80004ec:	b085      	sub	sp, #20
 80004ee:	0005      	movs	r5, r0
 80004f0:	07db      	lsls	r3, r3, #31
 80004f2:	d42f      	bmi.n	8000554 <HAL_RCC_OscConfig+0x6c>
 80004f4:	682b      	ldr	r3, [r5, #0]
 80004f6:	079b      	lsls	r3, r3, #30
 80004f8:	d500      	bpl.n	80004fc <HAL_RCC_OscConfig+0x14>
 80004fa:	e081      	b.n	8000600 <HAL_RCC_OscConfig+0x118>
 80004fc:	682b      	ldr	r3, [r5, #0]
 80004fe:	071b      	lsls	r3, r3, #28
 8000500:	d500      	bpl.n	8000504 <HAL_RCC_OscConfig+0x1c>
 8000502:	e0bc      	b.n	800067e <HAL_RCC_OscConfig+0x196>
 8000504:	682b      	ldr	r3, [r5, #0]
 8000506:	075b      	lsls	r3, r3, #29
 8000508:	d500      	bpl.n	800050c <HAL_RCC_OscConfig+0x24>
 800050a:	e0df      	b.n	80006cc <HAL_RCC_OscConfig+0x1e4>
 800050c:	682b      	ldr	r3, [r5, #0]
 800050e:	06db      	lsls	r3, r3, #27
 8000510:	d51a      	bpl.n	8000548 <HAL_RCC_OscConfig+0x60>
 8000512:	696a      	ldr	r2, [r5, #20]
 8000514:	4cb5      	ldr	r4, [pc, #724]	; (80007ec <HAL_RCC_OscConfig+0x304>)
 8000516:	2304      	movs	r3, #4
 8000518:	2a01      	cmp	r2, #1
 800051a:	d000      	beq.n	800051e <HAL_RCC_OscConfig+0x36>
 800051c:	e14b      	b.n	80007b6 <HAL_RCC_OscConfig+0x2ce>
 800051e:	6b61      	ldr	r1, [r4, #52]	; 0x34
 8000520:	2602      	movs	r6, #2
 8000522:	430b      	orrs	r3, r1
 8000524:	6363      	str	r3, [r4, #52]	; 0x34
 8000526:	6b63      	ldr	r3, [r4, #52]	; 0x34
 8000528:	431a      	orrs	r2, r3
 800052a:	6362      	str	r2, [r4, #52]	; 0x34
 800052c:	f7ff febe 	bl	80002ac <HAL_GetTick>
 8000530:	0007      	movs	r7, r0
 8000532:	6b63      	ldr	r3, [r4, #52]	; 0x34
 8000534:	4233      	tst	r3, r6
 8000536:	d100      	bne.n	800053a <HAL_RCC_OscConfig+0x52>
 8000538:	e136      	b.n	80007a8 <HAL_RCC_OscConfig+0x2c0>
 800053a:	21f8      	movs	r1, #248	; 0xf8
 800053c:	6b62      	ldr	r2, [r4, #52]	; 0x34
 800053e:	69ab      	ldr	r3, [r5, #24]
 8000540:	438a      	bics	r2, r1
 8000542:	00db      	lsls	r3, r3, #3
 8000544:	4313      	orrs	r3, r2
 8000546:	6363      	str	r3, [r4, #52]	; 0x34
 8000548:	6a29      	ldr	r1, [r5, #32]
 800054a:	2900      	cmp	r1, #0
 800054c:	d000      	beq.n	8000550 <HAL_RCC_OscConfig+0x68>
 800054e:	e159      	b.n	8000804 <HAL_RCC_OscConfig+0x31c>
 8000550:	2000      	movs	r0, #0
 8000552:	e013      	b.n	800057c <HAL_RCC_OscConfig+0x94>
 8000554:	210c      	movs	r1, #12
 8000556:	4ca5      	ldr	r4, [pc, #660]	; (80007ec <HAL_RCC_OscConfig+0x304>)
 8000558:	6862      	ldr	r2, [r4, #4]
 800055a:	400a      	ands	r2, r1
 800055c:	2a04      	cmp	r2, #4
 800055e:	d006      	beq.n	800056e <HAL_RCC_OscConfig+0x86>
 8000560:	6863      	ldr	r3, [r4, #4]
 8000562:	400b      	ands	r3, r1
 8000564:	2b08      	cmp	r3, #8
 8000566:	d10b      	bne.n	8000580 <HAL_RCC_OscConfig+0x98>
 8000568:	6863      	ldr	r3, [r4, #4]
 800056a:	03db      	lsls	r3, r3, #15
 800056c:	d508      	bpl.n	8000580 <HAL_RCC_OscConfig+0x98>
 800056e:	6823      	ldr	r3, [r4, #0]
 8000570:	039b      	lsls	r3, r3, #14
 8000572:	d5bf      	bpl.n	80004f4 <HAL_RCC_OscConfig+0xc>
 8000574:	686b      	ldr	r3, [r5, #4]
 8000576:	2b00      	cmp	r3, #0
 8000578:	d1bc      	bne.n	80004f4 <HAL_RCC_OscConfig+0xc>
 800057a:	2001      	movs	r0, #1
 800057c:	b005      	add	sp, #20
 800057e:	bdf0      	pop	{r4, r5, r6, r7, pc}
 8000580:	686b      	ldr	r3, [r5, #4]
 8000582:	2b01      	cmp	r3, #1
 8000584:	d113      	bne.n	80005ae <HAL_RCC_OscConfig+0xc6>
 8000586:	2380      	movs	r3, #128	; 0x80
 8000588:	6822      	ldr	r2, [r4, #0]
 800058a:	025b      	lsls	r3, r3, #9
 800058c:	4313      	orrs	r3, r2
 800058e:	6023      	str	r3, [r4, #0]
 8000590:	f7ff fe8c 	bl	80002ac <HAL_GetTick>
 8000594:	2680      	movs	r6, #128	; 0x80
 8000596:	0007      	movs	r7, r0
 8000598:	02b6      	lsls	r6, r6, #10
 800059a:	6823      	ldr	r3, [r4, #0]
 800059c:	4233      	tst	r3, r6
 800059e:	d1a9      	bne.n	80004f4 <HAL_RCC_OscConfig+0xc>
 80005a0:	f7ff fe84 	bl	80002ac <HAL_GetTick>
 80005a4:	1bc0      	subs	r0, r0, r7
 80005a6:	2864      	cmp	r0, #100	; 0x64
 80005a8:	d9f7      	bls.n	800059a <HAL_RCC_OscConfig+0xb2>
 80005aa:	2003      	movs	r0, #3
 80005ac:	e7e6      	b.n	800057c <HAL_RCC_OscConfig+0x94>
 80005ae:	2b00      	cmp	r3, #0
 80005b0:	d116      	bne.n	80005e0 <HAL_RCC_OscConfig+0xf8>
 80005b2:	6823      	ldr	r3, [r4, #0]
 80005b4:	4a8e      	ldr	r2, [pc, #568]	; (80007f0 <HAL_RCC_OscConfig+0x308>)
 80005b6:	2680      	movs	r6, #128	; 0x80
 80005b8:	4013      	ands	r3, r2
 80005ba:	6023      	str	r3, [r4, #0]
 80005bc:	6823      	ldr	r3, [r4, #0]
 80005be:	4a8d      	ldr	r2, [pc, #564]	; (80007f4 <HAL_RCC_OscConfig+0x30c>)
 80005c0:	02b6      	lsls	r6, r6, #10
 80005c2:	4013      	ands	r3, r2
 80005c4:	6023      	str	r3, [r4, #0]
 80005c6:	f7ff fe71 	bl	80002ac <HAL_GetTick>
 80005ca:	0007      	movs	r7, r0
 80005cc:	6823      	ldr	r3, [r4, #0]
 80005ce:	4233      	tst	r3, r6
 80005d0:	d100      	bne.n	80005d4 <HAL_RCC_OscConfig+0xec>
 80005d2:	e78f      	b.n	80004f4 <HAL_RCC_OscConfig+0xc>
 80005d4:	f7ff fe6a 	bl	80002ac <HAL_GetTick>
 80005d8:	1bc0      	subs	r0, r0, r7
 80005da:	2864      	cmp	r0, #100	; 0x64
 80005dc:	d9f6      	bls.n	80005cc <HAL_RCC_OscConfig+0xe4>
 80005de:	e7e4      	b.n	80005aa <HAL_RCC_OscConfig+0xc2>
 80005e0:	2b05      	cmp	r3, #5
 80005e2:	d105      	bne.n	80005f0 <HAL_RCC_OscConfig+0x108>
 80005e4:	2380      	movs	r3, #128	; 0x80
 80005e6:	6822      	ldr	r2, [r4, #0]
 80005e8:	02db      	lsls	r3, r3, #11
 80005ea:	4313      	orrs	r3, r2
 80005ec:	6023      	str	r3, [r4, #0]
 80005ee:	e7ca      	b.n	8000586 <HAL_RCC_OscConfig+0x9e>
 80005f0:	6823      	ldr	r3, [r4, #0]
 80005f2:	4a7f      	ldr	r2, [pc, #508]	; (80007f0 <HAL_RCC_OscConfig+0x308>)
 80005f4:	4013      	ands	r3, r2
 80005f6:	6023      	str	r3, [r4, #0]
 80005f8:	6823      	ldr	r3, [r4, #0]
 80005fa:	4a7e      	ldr	r2, [pc, #504]	; (80007f4 <HAL_RCC_OscConfig+0x30c>)
 80005fc:	4013      	ands	r3, r2
 80005fe:	e7c6      	b.n	800058e <HAL_RCC_OscConfig+0xa6>
 8000600:	220c      	movs	r2, #12
 8000602:	4c7a      	ldr	r4, [pc, #488]	; (80007ec <HAL_RCC_OscConfig+0x304>)
 8000604:	6863      	ldr	r3, [r4, #4]
 8000606:	4213      	tst	r3, r2
 8000608:	d006      	beq.n	8000618 <HAL_RCC_OscConfig+0x130>
 800060a:	6863      	ldr	r3, [r4, #4]
 800060c:	4013      	ands	r3, r2
 800060e:	2b08      	cmp	r3, #8
 8000610:	d110      	bne.n	8000634 <HAL_RCC_OscConfig+0x14c>
 8000612:	6863      	ldr	r3, [r4, #4]
 8000614:	03db      	lsls	r3, r3, #15
 8000616:	d40d      	bmi.n	8000634 <HAL_RCC_OscConfig+0x14c>
 8000618:	6823      	ldr	r3, [r4, #0]
 800061a:	079b      	lsls	r3, r3, #30
 800061c:	d502      	bpl.n	8000624 <HAL_RCC_OscConfig+0x13c>
 800061e:	68eb      	ldr	r3, [r5, #12]
 8000620:	2b01      	cmp	r3, #1
 8000622:	d1aa      	bne.n	800057a <HAL_RCC_OscConfig+0x92>
 8000624:	21f8      	movs	r1, #248	; 0xf8
 8000626:	6822      	ldr	r2, [r4, #0]
 8000628:	692b      	ldr	r3, [r5, #16]
 800062a:	438a      	bics	r2, r1
 800062c:	00db      	lsls	r3, r3, #3
 800062e:	4313      	orrs	r3, r2
 8000630:	6023      	str	r3, [r4, #0]
 8000632:	e763      	b.n	80004fc <HAL_RCC_OscConfig+0x14>
 8000634:	68ea      	ldr	r2, [r5, #12]
 8000636:	2301      	movs	r3, #1
 8000638:	2a00      	cmp	r2, #0
 800063a:	d00f      	beq.n	800065c <HAL_RCC_OscConfig+0x174>
 800063c:	6822      	ldr	r2, [r4, #0]
 800063e:	2602      	movs	r6, #2
 8000640:	4313      	orrs	r3, r2
 8000642:	6023      	str	r3, [r4, #0]
 8000644:	f7ff fe32 	bl	80002ac <HAL_GetTick>
 8000648:	0007      	movs	r7, r0
 800064a:	6823      	ldr	r3, [r4, #0]
 800064c:	4233      	tst	r3, r6
 800064e:	d1e9      	bne.n	8000624 <HAL_RCC_OscConfig+0x13c>
 8000650:	f7ff fe2c 	bl	80002ac <HAL_GetTick>
 8000654:	1bc0      	subs	r0, r0, r7
 8000656:	2802      	cmp	r0, #2
 8000658:	d9f7      	bls.n	800064a <HAL_RCC_OscConfig+0x162>
 800065a:	e7a6      	b.n	80005aa <HAL_RCC_OscConfig+0xc2>
 800065c:	6822      	ldr	r2, [r4, #0]
 800065e:	2602      	movs	r6, #2
 8000660:	439a      	bics	r2, r3
 8000662:	6022      	str	r2, [r4, #0]
 8000664:	f7ff fe22 	bl	80002ac <HAL_GetTick>
 8000668:	0007      	movs	r7, r0
 800066a:	6823      	ldr	r3, [r4, #0]
 800066c:	4233      	tst	r3, r6
 800066e:	d100      	bne.n	8000672 <HAL_RCC_OscConfig+0x18a>
 8000670:	e744      	b.n	80004fc <HAL_RCC_OscConfig+0x14>
 8000672:	f7ff fe1b 	bl	80002ac <HAL_GetTick>
 8000676:	1bc0      	subs	r0, r0, r7
 8000678:	2802      	cmp	r0, #2
 800067a:	d9f6      	bls.n	800066a <HAL_RCC_OscConfig+0x182>
 800067c:	e795      	b.n	80005aa <HAL_RCC_OscConfig+0xc2>
 800067e:	69ea      	ldr	r2, [r5, #28]
 8000680:	2301      	movs	r3, #1
 8000682:	4c5a      	ldr	r4, [pc, #360]	; (80007ec <HAL_RCC_OscConfig+0x304>)
 8000684:	2a00      	cmp	r2, #0
 8000686:	d010      	beq.n	80006aa <HAL_RCC_OscConfig+0x1c2>
 8000688:	6a62      	ldr	r2, [r4, #36]	; 0x24
 800068a:	2602      	movs	r6, #2
 800068c:	4313      	orrs	r3, r2
 800068e:	6263      	str	r3, [r4, #36]	; 0x24
 8000690:	f7ff fe0c 	bl	80002ac <HAL_GetTick>
 8000694:	0007      	movs	r7, r0
 8000696:	6a63      	ldr	r3, [r4, #36]	; 0x24
 8000698:	4233      	tst	r3, r6
 800069a:	d000      	beq.n	800069e <HAL_RCC_OscConfig+0x1b6>
 800069c:	e732      	b.n	8000504 <HAL_RCC_OscConfig+0x1c>
 800069e:	f7ff fe05 	bl	80002ac <HAL_GetTick>
 80006a2:	1bc0      	subs	r0, r0, r7
 80006a4:	2802      	cmp	r0, #2
 80006a6:	d9f6      	bls.n	8000696 <HAL_RCC_OscConfig+0x1ae>
 80006a8:	e77f      	b.n	80005aa <HAL_RCC_OscConfig+0xc2>
 80006aa:	6a62      	ldr	r2, [r4, #36]	; 0x24
 80006ac:	2602      	movs	r6, #2
 80006ae:	439a      	bics	r2, r3
 80006b0:	6262      	str	r2, [r4, #36]	; 0x24
 80006b2:	f7ff fdfb 	bl	80002ac <HAL_GetTick>
 80006b6:	0007      	movs	r7, r0
 80006b8:	6a63      	ldr	r3, [r4, #36]	; 0x24
 80006ba:	4233      	tst	r3, r6
 80006bc:	d100      	bne.n	80006c0 <HAL_RCC_OscConfig+0x1d8>
 80006be:	e721      	b.n	8000504 <HAL_RCC_OscConfig+0x1c>
 80006c0:	f7ff fdf4 	bl	80002ac <HAL_GetTick>
 80006c4:	1bc0      	subs	r0, r0, r7
 80006c6:	2802      	cmp	r0, #2
 80006c8:	d9f6      	bls.n	80006b8 <HAL_RCC_OscConfig+0x1d0>
 80006ca:	e76e      	b.n	80005aa <HAL_RCC_OscConfig+0xc2>
 80006cc:	2280      	movs	r2, #128	; 0x80
 80006ce:	2100      	movs	r1, #0
 80006d0:	4c46      	ldr	r4, [pc, #280]	; (80007ec <HAL_RCC_OscConfig+0x304>)
 80006d2:	0552      	lsls	r2, r2, #21
 80006d4:	69e3      	ldr	r3, [r4, #28]
 80006d6:	9100      	str	r1, [sp, #0]
 80006d8:	4213      	tst	r3, r2
 80006da:	d108      	bne.n	80006ee <HAL_RCC_OscConfig+0x206>
 80006dc:	69e3      	ldr	r3, [r4, #28]
 80006de:	4313      	orrs	r3, r2
 80006e0:	61e3      	str	r3, [r4, #28]
 80006e2:	69e3      	ldr	r3, [r4, #28]
 80006e4:	4013      	ands	r3, r2
 80006e6:	9303      	str	r3, [sp, #12]
 80006e8:	9b03      	ldr	r3, [sp, #12]
 80006ea:	2301      	movs	r3, #1
 80006ec:	9300      	str	r3, [sp, #0]
 80006ee:	2780      	movs	r7, #128	; 0x80
 80006f0:	4e41      	ldr	r6, [pc, #260]	; (80007f8 <HAL_RCC_OscConfig+0x310>)
 80006f2:	007f      	lsls	r7, r7, #1
 80006f4:	6833      	ldr	r3, [r6, #0]
 80006f6:	423b      	tst	r3, r7
 80006f8:	d006      	beq.n	8000708 <HAL_RCC_OscConfig+0x220>
 80006fa:	68ab      	ldr	r3, [r5, #8]
 80006fc:	2b01      	cmp	r3, #1
 80006fe:	d113      	bne.n	8000728 <HAL_RCC_OscConfig+0x240>
 8000700:	6a22      	ldr	r2, [r4, #32]
 8000702:	4313      	orrs	r3, r2
 8000704:	6223      	str	r3, [r4, #32]
 8000706:	e030      	b.n	800076a <HAL_RCC_OscConfig+0x282>
 8000708:	6833      	ldr	r3, [r6, #0]
 800070a:	433b      	orrs	r3, r7
 800070c:	6033      	str	r3, [r6, #0]
 800070e:	f7ff fdcd 	bl	80002ac <HAL_GetTick>
 8000712:	9001      	str	r0, [sp, #4]
 8000714:	6833      	ldr	r3, [r6, #0]
 8000716:	423b      	tst	r3, r7
 8000718:	d1ef      	bne.n	80006fa <HAL_RCC_OscConfig+0x212>
 800071a:	f7ff fdc7 	bl	80002ac <HAL_GetTick>
 800071e:	9b01      	ldr	r3, [sp, #4]
 8000720:	1ac0      	subs	r0, r0, r3
 8000722:	2864      	cmp	r0, #100	; 0x64
 8000724:	d9f6      	bls.n	8000714 <HAL_RCC_OscConfig+0x22c>
 8000726:	e740      	b.n	80005aa <HAL_RCC_OscConfig+0xc2>
 8000728:	2201      	movs	r2, #1
 800072a:	2b00      	cmp	r3, #0
 800072c:	d114      	bne.n	8000758 <HAL_RCC_OscConfig+0x270>
 800072e:	6a23      	ldr	r3, [r4, #32]
 8000730:	2702      	movs	r7, #2
 8000732:	4393      	bics	r3, r2
 8000734:	6223      	str	r3, [r4, #32]
 8000736:	6a23      	ldr	r3, [r4, #32]
 8000738:	3203      	adds	r2, #3
 800073a:	4393      	bics	r3, r2
 800073c:	6223      	str	r3, [r4, #32]
 800073e:	f7ff fdb5 	bl	80002ac <HAL_GetTick>
 8000742:	0006      	movs	r6, r0
 8000744:	6a23      	ldr	r3, [r4, #32]
 8000746:	423b      	tst	r3, r7
 8000748:	d025      	beq.n	8000796 <HAL_RCC_OscConfig+0x2ae>
 800074a:	f7ff fdaf 	bl	80002ac <HAL_GetTick>
 800074e:	4b2b      	ldr	r3, [pc, #172]	; (80007fc <HAL_RCC_OscConfig+0x314>)
 8000750:	1b80      	subs	r0, r0, r6
 8000752:	4298      	cmp	r0, r3
 8000754:	d9f6      	bls.n	8000744 <HAL_RCC_OscConfig+0x25c>
 8000756:	e728      	b.n	80005aa <HAL_RCC_OscConfig+0xc2>
 8000758:	2b05      	cmp	r3, #5
 800075a:	d10b      	bne.n	8000774 <HAL_RCC_OscConfig+0x28c>
 800075c:	6a21      	ldr	r1, [r4, #32]
 800075e:	3b01      	subs	r3, #1
 8000760:	430b      	orrs	r3, r1
 8000762:	6223      	str	r3, [r4, #32]
 8000764:	6a23      	ldr	r3, [r4, #32]
 8000766:	431a      	orrs	r2, r3
 8000768:	6222      	str	r2, [r4, #32]
 800076a:	f7ff fd9f 	bl	80002ac <HAL_GetTick>
 800076e:	2702      	movs	r7, #2
 8000770:	0006      	movs	r6, r0
 8000772:	e00d      	b.n	8000790 <HAL_RCC_OscConfig+0x2a8>
 8000774:	6a23      	ldr	r3, [r4, #32]
 8000776:	4393      	bics	r3, r2
 8000778:	2204      	movs	r2, #4
 800077a:	6223      	str	r3, [r4, #32]
 800077c:	6a23      	ldr	r3, [r4, #32]
 800077e:	4393      	bics	r3, r2
 8000780:	e7c0      	b.n	8000704 <HAL_RCC_OscConfig+0x21c>
 8000782:	f7ff fd93 	bl	80002ac <HAL_GetTick>
 8000786:	4b1d      	ldr	r3, [pc, #116]	; (80007fc <HAL_RCC_OscConfig+0x314>)
 8000788:	1b80      	subs	r0, r0, r6
 800078a:	4298      	cmp	r0, r3
 800078c:	d900      	bls.n	8000790 <HAL_RCC_OscConfig+0x2a8>
 800078e:	e70c      	b.n	80005aa <HAL_RCC_OscConfig+0xc2>
 8000790:	6a23      	ldr	r3, [r4, #32]
 8000792:	423b      	tst	r3, r7
 8000794:	d0f5      	beq.n	8000782 <HAL_RCC_OscConfig+0x29a>
 8000796:	9b00      	ldr	r3, [sp, #0]
 8000798:	2b01      	cmp	r3, #1
 800079a:	d000      	beq.n	800079e <HAL_RCC_OscConfig+0x2b6>
 800079c:	e6b6      	b.n	800050c <HAL_RCC_OscConfig+0x24>
 800079e:	69e3      	ldr	r3, [r4, #28]
 80007a0:	4a17      	ldr	r2, [pc, #92]	; (8000800 <HAL_RCC_OscConfig+0x318>)
 80007a2:	4013      	ands	r3, r2
 80007a4:	61e3      	str	r3, [r4, #28]
 80007a6:	e6b1      	b.n	800050c <HAL_RCC_OscConfig+0x24>
 80007a8:	f7ff fd80 	bl	80002ac <HAL_GetTick>
 80007ac:	1bc0      	subs	r0, r0, r7
 80007ae:	2802      	cmp	r0, #2
 80007b0:	d800      	bhi.n	80007b4 <HAL_RCC_OscConfig+0x2cc>
 80007b2:	e6be      	b.n	8000532 <HAL_RCC_OscConfig+0x4a>
 80007b4:	e6f9      	b.n	80005aa <HAL_RCC_OscConfig+0xc2>
 80007b6:	3205      	adds	r2, #5
 80007b8:	d103      	bne.n	80007c2 <HAL_RCC_OscConfig+0x2da>
 80007ba:	6b62      	ldr	r2, [r4, #52]	; 0x34
 80007bc:	439a      	bics	r2, r3
 80007be:	6362      	str	r2, [r4, #52]	; 0x34
 80007c0:	e6bb      	b.n	800053a <HAL_RCC_OscConfig+0x52>
 80007c2:	6b62      	ldr	r2, [r4, #52]	; 0x34
 80007c4:	2602      	movs	r6, #2
 80007c6:	4313      	orrs	r3, r2
 80007c8:	2201      	movs	r2, #1
 80007ca:	6363      	str	r3, [r4, #52]	; 0x34
 80007cc:	6b63      	ldr	r3, [r4, #52]	; 0x34
 80007ce:	4393      	bics	r3, r2
 80007d0:	6363      	str	r3, [r4, #52]	; 0x34
 80007d2:	f7ff fd6b 	bl	80002ac <HAL_GetTick>
 80007d6:	0007      	movs	r7, r0
 80007d8:	6b63      	ldr	r3, [r4, #52]	; 0x34
 80007da:	4233      	tst	r3, r6
 80007dc:	d100      	bne.n	80007e0 <HAL_RCC_OscConfig+0x2f8>
 80007de:	e6b3      	b.n	8000548 <HAL_RCC_OscConfig+0x60>
 80007e0:	f7ff fd64 	bl	80002ac <HAL_GetTick>
 80007e4:	1bc0      	subs	r0, r0, r7
 80007e6:	2802      	cmp	r0, #2
 80007e8:	d9f6      	bls.n	80007d8 <HAL_RCC_OscConfig+0x2f0>
 80007ea:	e6de      	b.n	80005aa <HAL_RCC_OscConfig+0xc2>
 80007ec:	40021000 	.word	0x40021000
 80007f0:	fffeffff 	.word	0xfffeffff
 80007f4:	fffbffff 	.word	0xfffbffff
 80007f8:	40007000 	.word	0x40007000
 80007fc:	00001388 	.word	0x00001388
 8000800:	efffffff 	.word	0xefffffff
 8000804:	220c      	movs	r2, #12
 8000806:	4c26      	ldr	r4, [pc, #152]	; (80008a0 <HAL_RCC_OscConfig+0x3b8>)
 8000808:	2001      	movs	r0, #1
 800080a:	6863      	ldr	r3, [r4, #4]
 800080c:	4013      	ands	r3, r2
 800080e:	2b08      	cmp	r3, #8
 8000810:	d100      	bne.n	8000814 <HAL_RCC_OscConfig+0x32c>
 8000812:	e6b3      	b.n	800057c <HAL_RCC_OscConfig+0x94>
 8000814:	6823      	ldr	r3, [r4, #0]
 8000816:	4a23      	ldr	r2, [pc, #140]	; (80008a4 <HAL_RCC_OscConfig+0x3bc>)
 8000818:	4013      	ands	r3, r2
 800081a:	6023      	str	r3, [r4, #0]
 800081c:	2902      	cmp	r1, #2
 800081e:	d12f      	bne.n	8000880 <HAL_RCC_OscConfig+0x398>
 8000820:	f7ff fd44 	bl	80002ac <HAL_GetTick>
 8000824:	2680      	movs	r6, #128	; 0x80
 8000826:	0007      	movs	r7, r0
 8000828:	04b6      	lsls	r6, r6, #18
 800082a:	6823      	ldr	r3, [r4, #0]
 800082c:	4233      	tst	r3, r6
 800082e:	d121      	bne.n	8000874 <HAL_RCC_OscConfig+0x38c>
 8000830:	220f      	movs	r2, #15
 8000832:	6ae3      	ldr	r3, [r4, #44]	; 0x2c
 8000834:	4393      	bics	r3, r2
 8000836:	6aea      	ldr	r2, [r5, #44]	; 0x2c
 8000838:	4313      	orrs	r3, r2
 800083a:	62e3      	str	r3, [r4, #44]	; 0x2c
 800083c:	6a69      	ldr	r1, [r5, #36]	; 0x24
 800083e:	6aab      	ldr	r3, [r5, #40]	; 0x28
 8000840:	6862      	ldr	r2, [r4, #4]
 8000842:	430b      	orrs	r3, r1
 8000844:	4918      	ldr	r1, [pc, #96]	; (80008a8 <HAL_RCC_OscConfig+0x3c0>)
 8000846:	2580      	movs	r5, #128	; 0x80
 8000848:	400a      	ands	r2, r1
 800084a:	4313      	orrs	r3, r2
 800084c:	6063      	str	r3, [r4, #4]
 800084e:	2380      	movs	r3, #128	; 0x80
 8000850:	6822      	ldr	r2, [r4, #0]
 8000852:	045b      	lsls	r3, r3, #17
 8000854:	4313      	orrs	r3, r2
 8000856:	6023      	str	r3, [r4, #0]
 8000858:	f7ff fd28 	bl	80002ac <HAL_GetTick>
 800085c:	0006      	movs	r6, r0
 800085e:	04ad      	lsls	r5, r5, #18
 8000860:	6823      	ldr	r3, [r4, #0]
 8000862:	422b      	tst	r3, r5
 8000864:	d000      	beq.n	8000868 <HAL_RCC_OscConfig+0x380>
 8000866:	e673      	b.n	8000550 <HAL_RCC_OscConfig+0x68>
 8000868:	f7ff fd20 	bl	80002ac <HAL_GetTick>
 800086c:	1b80      	subs	r0, r0, r6
 800086e:	2802      	cmp	r0, #2
 8000870:	d9f6      	bls.n	8000860 <HAL_RCC_OscConfig+0x378>
 8000872:	e69a      	b.n	80005aa <HAL_RCC_OscConfig+0xc2>
 8000874:	f7ff fd1a 	bl	80002ac <HAL_GetTick>
 8000878:	1bc0      	subs	r0, r0, r7
 800087a:	2802      	cmp	r0, #2
 800087c:	d9d5      	bls.n	800082a <HAL_RCC_OscConfig+0x342>
 800087e:	e694      	b.n	80005aa <HAL_RCC_OscConfig+0xc2>
 8000880:	f7ff fd14 	bl	80002ac <HAL_GetTick>
 8000884:	2580      	movs	r5, #128	; 0x80
 8000886:	0006      	movs	r6, r0
 8000888:	04ad      	lsls	r5, r5, #18
 800088a:	6823      	ldr	r3, [r4, #0]
 800088c:	422b      	tst	r3, r5
 800088e:	d100      	bne.n	8000892 <HAL_RCC_OscConfig+0x3aa>
 8000890:	e65e      	b.n	8000550 <HAL_RCC_OscConfig+0x68>
 8000892:	f7ff fd0b 	bl	80002ac <HAL_GetTick>
 8000896:	1b80      	subs	r0, r0, r6
 8000898:	2802      	cmp	r0, #2
 800089a:	d9f6      	bls.n	800088a <HAL_RCC_OscConfig+0x3a2>
 800089c:	e685      	b.n	80005aa <HAL_RCC_OscConfig+0xc2>
 800089e:	46c0      	nop			; (mov r8, r8)
 80008a0:	40021000 	.word	0x40021000
 80008a4:	feffffff 	.word	0xfeffffff
 80008a8:	ffc2ffff 	.word	0xffc2ffff

080008ac <HAL_RCC_GetSysClockFreq>:
 80008ac:	b570      	push	{r4, r5, r6, lr}
 80008ae:	4c14      	ldr	r4, [pc, #80]	; (8000900 <HAL_RCC_GetSysClockFreq+0x54>)
 80008b0:	b088      	sub	sp, #32
 80008b2:	2210      	movs	r2, #16
 80008b4:	0021      	movs	r1, r4
 80008b6:	4668      	mov	r0, sp
 80008b8:	f002 f932 	bl	8002b20 <memcpy>
 80008bc:	0021      	movs	r1, r4
 80008be:	ad04      	add	r5, sp, #16
 80008c0:	2210      	movs	r2, #16
 80008c2:	3110      	adds	r1, #16
 80008c4:	0028      	movs	r0, r5
 80008c6:	f002 f92b 	bl	8002b20 <memcpy>
 80008ca:	220c      	movs	r2, #12
 80008cc:	4e0d      	ldr	r6, [pc, #52]	; (8000904 <HAL_RCC_GetSysClockFreq+0x58>)
 80008ce:	6873      	ldr	r3, [r6, #4]
 80008d0:	401a      	ands	r2, r3
 80008d2:	2a08      	cmp	r2, #8
 80008d4:	d111      	bne.n	80008fa <HAL_RCC_GetSysClockFreq+0x4e>
 80008d6:	200f      	movs	r0, #15
 80008d8:	466a      	mov	r2, sp
 80008da:	0c99      	lsrs	r1, r3, #18
 80008dc:	4001      	ands	r1, r0
 80008de:	5c54      	ldrb	r4, [r2, r1]
 80008e0:	6af2      	ldr	r2, [r6, #44]	; 0x2c
 80008e2:	4002      	ands	r2, r0
 80008e4:	5ca9      	ldrb	r1, [r5, r2]
 80008e6:	03db      	lsls	r3, r3, #15
 80008e8:	d505      	bpl.n	80008f6 <HAL_RCC_GetSysClockFreq+0x4a>
 80008ea:	4807      	ldr	r0, [pc, #28]	; (8000908 <HAL_RCC_GetSysClockFreq+0x5c>)
 80008ec:	f7ff fc28 	bl	8000140 <__udivsi3>
 80008f0:	4360      	muls	r0, r4
 80008f2:	b008      	add	sp, #32
 80008f4:	bd70      	pop	{r4, r5, r6, pc}
 80008f6:	4805      	ldr	r0, [pc, #20]	; (800090c <HAL_RCC_GetSysClockFreq+0x60>)
 80008f8:	e7fa      	b.n	80008f0 <HAL_RCC_GetSysClockFreq+0x44>
 80008fa:	4803      	ldr	r0, [pc, #12]	; (8000908 <HAL_RCC_GetSysClockFreq+0x5c>)
 80008fc:	e7f9      	b.n	80008f2 <HAL_RCC_GetSysClockFreq+0x46>
 80008fe:	46c0      	nop			; (mov r8, r8)
 8000900:	08002d6c 	.word	0x08002d6c
 8000904:	40021000 	.word	0x40021000
 8000908:	007a1200 	.word	0x007a1200
 800090c:	003d0900 	.word	0x003d0900

08000910 <HAL_RCC_ClockConfig>:
 8000910:	b5f7      	push	{r0, r1, r2, r4, r5, r6, r7, lr}
 8000912:	2201      	movs	r2, #1
 8000914:	4c44      	ldr	r4, [pc, #272]	; (8000a28 <HAL_RCC_ClockConfig+0x118>)
 8000916:	0006      	movs	r6, r0
 8000918:	6823      	ldr	r3, [r4, #0]
 800091a:	000f      	movs	r7, r1
 800091c:	4013      	ands	r3, r2
 800091e:	428b      	cmp	r3, r1
 8000920:	d31d      	bcc.n	800095e <HAL_RCC_ClockConfig+0x4e>
 8000922:	6832      	ldr	r2, [r6, #0]
 8000924:	0793      	lsls	r3, r2, #30
 8000926:	d424      	bmi.n	8000972 <HAL_RCC_ClockConfig+0x62>
 8000928:	07d3      	lsls	r3, r2, #31
 800092a:	d42a      	bmi.n	8000982 <HAL_RCC_ClockConfig+0x72>
 800092c:	2301      	movs	r3, #1
 800092e:	6822      	ldr	r2, [r4, #0]
 8000930:	401a      	ands	r2, r3
 8000932:	42ba      	cmp	r2, r7
 8000934:	d868      	bhi.n	8000a08 <HAL_RCC_ClockConfig+0xf8>
 8000936:	6833      	ldr	r3, [r6, #0]
 8000938:	4c3c      	ldr	r4, [pc, #240]	; (8000a2c <HAL_RCC_ClockConfig+0x11c>)
 800093a:	075b      	lsls	r3, r3, #29
 800093c:	d500      	bpl.n	8000940 <HAL_RCC_ClockConfig+0x30>
 800093e:	e06b      	b.n	8000a18 <HAL_RCC_ClockConfig+0x108>
 8000940:	f7ff ffb4 	bl	80008ac <HAL_RCC_GetSysClockFreq>
 8000944:	6863      	ldr	r3, [r4, #4]
 8000946:	4a3a      	ldr	r2, [pc, #232]	; (8000a30 <HAL_RCC_ClockConfig+0x120>)
 8000948:	061b      	lsls	r3, r3, #24
 800094a:	0f1b      	lsrs	r3, r3, #28
 800094c:	5cd3      	ldrb	r3, [r2, r3]
 800094e:	40d8      	lsrs	r0, r3
 8000950:	4b38      	ldr	r3, [pc, #224]	; (8000a34 <HAL_RCC_ClockConfig+0x124>)
 8000952:	6018      	str	r0, [r3, #0]
 8000954:	2000      	movs	r0, #0
 8000956:	f7ff fc7f 	bl	8000258 <HAL_InitTick>
 800095a:	2000      	movs	r0, #0
 800095c:	e008      	b.n	8000970 <HAL_RCC_ClockConfig+0x60>
 800095e:	6823      	ldr	r3, [r4, #0]
 8000960:	4393      	bics	r3, r2
 8000962:	430b      	orrs	r3, r1
 8000964:	6023      	str	r3, [r4, #0]
 8000966:	6823      	ldr	r3, [r4, #0]
 8000968:	4013      	ands	r3, r2
 800096a:	428b      	cmp	r3, r1
 800096c:	d0d9      	beq.n	8000922 <HAL_RCC_ClockConfig+0x12>
 800096e:	2001      	movs	r0, #1
 8000970:	bdfe      	pop	{r1, r2, r3, r4, r5, r6, r7, pc}
 8000972:	20f0      	movs	r0, #240	; 0xf0
 8000974:	492d      	ldr	r1, [pc, #180]	; (8000a2c <HAL_RCC_ClockConfig+0x11c>)
 8000976:	684b      	ldr	r3, [r1, #4]
 8000978:	4383      	bics	r3, r0
 800097a:	68b0      	ldr	r0, [r6, #8]
 800097c:	4303      	orrs	r3, r0
 800097e:	604b      	str	r3, [r1, #4]
 8000980:	e7d2      	b.n	8000928 <HAL_RCC_ClockConfig+0x18>
 8000982:	4d2a      	ldr	r5, [pc, #168]	; (8000a2c <HAL_RCC_ClockConfig+0x11c>)
 8000984:	6872      	ldr	r2, [r6, #4]
 8000986:	682b      	ldr	r3, [r5, #0]
 8000988:	2a01      	cmp	r2, #1
 800098a:	d11a      	bne.n	80009c2 <HAL_RCC_ClockConfig+0xb2>
 800098c:	039b      	lsls	r3, r3, #14
 800098e:	d5ee      	bpl.n	800096e <HAL_RCC_ClockConfig+0x5e>
 8000990:	2103      	movs	r1, #3
 8000992:	686b      	ldr	r3, [r5, #4]
 8000994:	438b      	bics	r3, r1
 8000996:	4313      	orrs	r3, r2
 8000998:	606b      	str	r3, [r5, #4]
 800099a:	f7ff fc87 	bl	80002ac <HAL_GetTick>
 800099e:	6873      	ldr	r3, [r6, #4]
 80009a0:	9001      	str	r0, [sp, #4]
 80009a2:	2b01      	cmp	r3, #1
 80009a4:	d115      	bne.n	80009d2 <HAL_RCC_ClockConfig+0xc2>
 80009a6:	220c      	movs	r2, #12
 80009a8:	686b      	ldr	r3, [r5, #4]
 80009aa:	4013      	ands	r3, r2
 80009ac:	2b04      	cmp	r3, #4
 80009ae:	d0bd      	beq.n	800092c <HAL_RCC_ClockConfig+0x1c>
 80009b0:	f7ff fc7c 	bl	80002ac <HAL_GetTick>
 80009b4:	9b01      	ldr	r3, [sp, #4]
 80009b6:	1ac0      	subs	r0, r0, r3
 80009b8:	4b1f      	ldr	r3, [pc, #124]	; (8000a38 <HAL_RCC_ClockConfig+0x128>)
 80009ba:	4298      	cmp	r0, r3
 80009bc:	d9f3      	bls.n	80009a6 <HAL_RCC_ClockConfig+0x96>
 80009be:	2003      	movs	r0, #3
 80009c0:	e7d6      	b.n	8000970 <HAL_RCC_ClockConfig+0x60>
 80009c2:	2a02      	cmp	r2, #2
 80009c4:	d102      	bne.n	80009cc <HAL_RCC_ClockConfig+0xbc>
 80009c6:	019b      	lsls	r3, r3, #6
 80009c8:	d4e2      	bmi.n	8000990 <HAL_RCC_ClockConfig+0x80>
 80009ca:	e7d0      	b.n	800096e <HAL_RCC_ClockConfig+0x5e>
 80009cc:	079b      	lsls	r3, r3, #30
 80009ce:	d4df      	bmi.n	8000990 <HAL_RCC_ClockConfig+0x80>
 80009d0:	e7cd      	b.n	800096e <HAL_RCC_ClockConfig+0x5e>
 80009d2:	2b02      	cmp	r3, #2
 80009d4:	d012      	beq.n	80009fc <HAL_RCC_ClockConfig+0xec>
 80009d6:	220c      	movs	r2, #12
 80009d8:	686b      	ldr	r3, [r5, #4]
 80009da:	4213      	tst	r3, r2
 80009dc:	d0a6      	beq.n	800092c <HAL_RCC_ClockConfig+0x1c>
 80009de:	f7ff fc65 	bl	80002ac <HAL_GetTick>
 80009e2:	9b01      	ldr	r3, [sp, #4]
 80009e4:	1ac0      	subs	r0, r0, r3
 80009e6:	4b14      	ldr	r3, [pc, #80]	; (8000a38 <HAL_RCC_ClockConfig+0x128>)
 80009e8:	4298      	cmp	r0, r3
 80009ea:	d9f4      	bls.n	80009d6 <HAL_RCC_ClockConfig+0xc6>
 80009ec:	e7e7      	b.n	80009be <HAL_RCC_ClockConfig+0xae>
 80009ee:	f7ff fc5d 	bl	80002ac <HAL_GetTick>
 80009f2:	9b01      	ldr	r3, [sp, #4]
 80009f4:	1ac0      	subs	r0, r0, r3
 80009f6:	4b10      	ldr	r3, [pc, #64]	; (8000a38 <HAL_RCC_ClockConfig+0x128>)
 80009f8:	4298      	cmp	r0, r3
 80009fa:	d8e0      	bhi.n	80009be <HAL_RCC_ClockConfig+0xae>
 80009fc:	220c      	movs	r2, #12
 80009fe:	686b      	ldr	r3, [r5, #4]
 8000a00:	4013      	ands	r3, r2
 8000a02:	2b08      	cmp	r3, #8
 8000a04:	d1f3      	bne.n	80009ee <HAL_RCC_ClockConfig+0xde>
 8000a06:	e791      	b.n	800092c <HAL_RCC_ClockConfig+0x1c>
 8000a08:	6822      	ldr	r2, [r4, #0]
 8000a0a:	439a      	bics	r2, r3
 8000a0c:	6022      	str	r2, [r4, #0]
 8000a0e:	6822      	ldr	r2, [r4, #0]
 8000a10:	421a      	tst	r2, r3
 8000a12:	d100      	bne.n	8000a16 <HAL_RCC_ClockConfig+0x106>
 8000a14:	e78f      	b.n	8000936 <HAL_RCC_ClockConfig+0x26>
 8000a16:	e7aa      	b.n	800096e <HAL_RCC_ClockConfig+0x5e>
 8000a18:	6863      	ldr	r3, [r4, #4]
 8000a1a:	4a08      	ldr	r2, [pc, #32]	; (8000a3c <HAL_RCC_ClockConfig+0x12c>)
 8000a1c:	4013      	ands	r3, r2
 8000a1e:	68f2      	ldr	r2, [r6, #12]
 8000a20:	4313      	orrs	r3, r2
 8000a22:	6063      	str	r3, [r4, #4]
 8000a24:	e78c      	b.n	8000940 <HAL_RCC_ClockConfig+0x30>
 8000a26:	46c0      	nop			; (mov r8, r8)
 8000a28:	40022000 	.word	0x40022000
 8000a2c:	40021000 	.word	0x40021000
 8000a30:	08002f68 	.word	0x08002f68
 8000a34:	2000043c 	.word	0x2000043c
 8000a38:	00001388 	.word	0x00001388
 8000a3c:	fffff8ff 	.word	0xfffff8ff

08000a40 <HAL_RCC_GetHCLKFreq>:
 8000a40:	4b01      	ldr	r3, [pc, #4]	; (8000a48 <HAL_RCC_GetHCLKFreq+0x8>)
 8000a42:	6818      	ldr	r0, [r3, #0]
 8000a44:	4770      	bx	lr
 8000a46:	46c0      	nop			; (mov r8, r8)
 8000a48:	2000043c 	.word	0x2000043c

08000a4c <HAL_RCC_GetPCLK1Freq>:
 8000a4c:	4b04      	ldr	r3, [pc, #16]	; (8000a60 <HAL_RCC_GetPCLK1Freq+0x14>)
 8000a4e:	4a05      	ldr	r2, [pc, #20]	; (8000a64 <HAL_RCC_GetPCLK1Freq+0x18>)
 8000a50:	685b      	ldr	r3, [r3, #4]
 8000a52:	055b      	lsls	r3, r3, #21
 8000a54:	0f5b      	lsrs	r3, r3, #29
 8000a56:	5cd3      	ldrb	r3, [r2, r3]
 8000a58:	4a03      	ldr	r2, [pc, #12]	; (8000a68 <HAL_RCC_GetPCLK1Freq+0x1c>)
 8000a5a:	6810      	ldr	r0, [r2, #0]
 8000a5c:	40d8      	lsrs	r0, r3
 8000a5e:	4770      	bx	lr
 8000a60:	40021000 	.word	0x40021000
 8000a64:	08002f78 	.word	0x08002f78
 8000a68:	2000043c 	.word	0x2000043c

08000a6c <HAL_RCCEx_PeriphCLKConfig>:
 8000a6c:	b5f0      	push	{r4, r5, r6, r7, lr}
 8000a6e:	6803      	ldr	r3, [r0, #0]
 8000a70:	b085      	sub	sp, #20
 8000a72:	0005      	movs	r5, r0
 8000a74:	03db      	lsls	r3, r3, #15
 8000a76:	d528      	bpl.n	8000aca <HAL_RCCEx_PeriphCLKConfig+0x5e>
 8000a78:	2280      	movs	r2, #128	; 0x80
 8000a7a:	2100      	movs	r1, #0
 8000a7c:	4c37      	ldr	r4, [pc, #220]	; (8000b5c <HAL_RCCEx_PeriphCLKConfig+0xf0>)
 8000a7e:	0552      	lsls	r2, r2, #21
 8000a80:	69e3      	ldr	r3, [r4, #28]
 8000a82:	9100      	str	r1, [sp, #0]
 8000a84:	4213      	tst	r3, r2
 8000a86:	d108      	bne.n	8000a9a <HAL_RCCEx_PeriphCLKConfig+0x2e>
 8000a88:	69e3      	ldr	r3, [r4, #28]
 8000a8a:	4313      	orrs	r3, r2
 8000a8c:	61e3      	str	r3, [r4, #28]
 8000a8e:	69e3      	ldr	r3, [r4, #28]
 8000a90:	4013      	ands	r3, r2
 8000a92:	9303      	str	r3, [sp, #12]
 8000a94:	9b03      	ldr	r3, [sp, #12]
 8000a96:	2301      	movs	r3, #1
 8000a98:	9300      	str	r3, [sp, #0]
 8000a9a:	2780      	movs	r7, #128	; 0x80
 8000a9c:	4e30      	ldr	r6, [pc, #192]	; (8000b60 <HAL_RCCEx_PeriphCLKConfig+0xf4>)
 8000a9e:	007f      	lsls	r7, r7, #1
 8000aa0:	6833      	ldr	r3, [r6, #0]
 8000aa2:	423b      	tst	r3, r7
 8000aa4:	d026      	beq.n	8000af4 <HAL_RCCEx_PeriphCLKConfig+0x88>
 8000aa6:	22c0      	movs	r2, #192	; 0xc0
 8000aa8:	6a23      	ldr	r3, [r4, #32]
 8000aaa:	0092      	lsls	r2, r2, #2
 8000aac:	4013      	ands	r3, r2
 8000aae:	4e2d      	ldr	r6, [pc, #180]	; (8000b64 <HAL_RCCEx_PeriphCLKConfig+0xf8>)
 8000ab0:	d132      	bne.n	8000b18 <HAL_RCCEx_PeriphCLKConfig+0xac>
 8000ab2:	6a23      	ldr	r3, [r4, #32]
 8000ab4:	401e      	ands	r6, r3
 8000ab6:	686b      	ldr	r3, [r5, #4]
 8000ab8:	431e      	orrs	r6, r3
 8000aba:	9b00      	ldr	r3, [sp, #0]
 8000abc:	6226      	str	r6, [r4, #32]
 8000abe:	2b01      	cmp	r3, #1
 8000ac0:	d103      	bne.n	8000aca <HAL_RCCEx_PeriphCLKConfig+0x5e>
 8000ac2:	69e3      	ldr	r3, [r4, #28]
 8000ac4:	4a28      	ldr	r2, [pc, #160]	; (8000b68 <HAL_RCCEx_PeriphCLKConfig+0xfc>)
 8000ac6:	4013      	ands	r3, r2
 8000ac8:	61e3      	str	r3, [r4, #28]
 8000aca:	682a      	ldr	r2, [r5, #0]
 8000acc:	07d3      	lsls	r3, r2, #31
 8000ace:	d506      	bpl.n	8000ade <HAL_RCCEx_PeriphCLKConfig+0x72>
 8000ad0:	2003      	movs	r0, #3
 8000ad2:	4922      	ldr	r1, [pc, #136]	; (8000b5c <HAL_RCCEx_PeriphCLKConfig+0xf0>)
 8000ad4:	6b0b      	ldr	r3, [r1, #48]	; 0x30
 8000ad6:	4383      	bics	r3, r0
 8000ad8:	68a8      	ldr	r0, [r5, #8]
 8000ada:	4303      	orrs	r3, r0
 8000adc:	630b      	str	r3, [r1, #48]	; 0x30
 8000ade:	2000      	movs	r0, #0
 8000ae0:	0693      	lsls	r3, r2, #26
 8000ae2:	d517      	bpl.n	8000b14 <HAL_RCCEx_PeriphCLKConfig+0xa8>
 8000ae4:	2110      	movs	r1, #16
 8000ae6:	4a1d      	ldr	r2, [pc, #116]	; (8000b5c <HAL_RCCEx_PeriphCLKConfig+0xf0>)
 8000ae8:	6b13      	ldr	r3, [r2, #48]	; 0x30
 8000aea:	438b      	bics	r3, r1
 8000aec:	68e9      	ldr	r1, [r5, #12]
 8000aee:	430b      	orrs	r3, r1
 8000af0:	6313      	str	r3, [r2, #48]	; 0x30
 8000af2:	e00f      	b.n	8000b14 <HAL_RCCEx_PeriphCLKConfig+0xa8>
 8000af4:	6833      	ldr	r3, [r6, #0]
 8000af6:	433b      	orrs	r3, r7
 8000af8:	6033      	str	r3, [r6, #0]
 8000afa:	f7ff fbd7 	bl	80002ac <HAL_GetTick>
 8000afe:	9001      	str	r0, [sp, #4]
 8000b00:	6833      	ldr	r3, [r6, #0]
 8000b02:	423b      	tst	r3, r7
 8000b04:	d1cf      	bne.n	8000aa6 <HAL_RCCEx_PeriphCLKConfig+0x3a>
 8000b06:	f7ff fbd1 	bl	80002ac <HAL_GetTick>
 8000b0a:	9b01      	ldr	r3, [sp, #4]
 8000b0c:	1ac0      	subs	r0, r0, r3
 8000b0e:	2864      	cmp	r0, #100	; 0x64
 8000b10:	d9f6      	bls.n	8000b00 <HAL_RCCEx_PeriphCLKConfig+0x94>
 8000b12:	2003      	movs	r0, #3
 8000b14:	b005      	add	sp, #20
 8000b16:	bdf0      	pop	{r4, r5, r6, r7, pc}
 8000b18:	6869      	ldr	r1, [r5, #4]
 8000b1a:	400a      	ands	r2, r1
 8000b1c:	429a      	cmp	r2, r3
 8000b1e:	d0c8      	beq.n	8000ab2 <HAL_RCCEx_PeriphCLKConfig+0x46>
 8000b20:	2380      	movs	r3, #128	; 0x80
 8000b22:	6a22      	ldr	r2, [r4, #32]
 8000b24:	6a20      	ldr	r0, [r4, #32]
 8000b26:	0011      	movs	r1, r2
 8000b28:	025b      	lsls	r3, r3, #9
 8000b2a:	4303      	orrs	r3, r0
 8000b2c:	6223      	str	r3, [r4, #32]
 8000b2e:	6a23      	ldr	r3, [r4, #32]
 8000b30:	480e      	ldr	r0, [pc, #56]	; (8000b6c <HAL_RCCEx_PeriphCLKConfig+0x100>)
 8000b32:	4031      	ands	r1, r6
 8000b34:	4003      	ands	r3, r0
 8000b36:	6223      	str	r3, [r4, #32]
 8000b38:	6221      	str	r1, [r4, #32]
 8000b3a:	07d3      	lsls	r3, r2, #31
 8000b3c:	d5b9      	bpl.n	8000ab2 <HAL_RCCEx_PeriphCLKConfig+0x46>
 8000b3e:	f7ff fbb5 	bl	80002ac <HAL_GetTick>
 8000b42:	0007      	movs	r7, r0
 8000b44:	2202      	movs	r2, #2
 8000b46:	6a23      	ldr	r3, [r4, #32]
 8000b48:	4213      	tst	r3, r2
 8000b4a:	d1b2      	bne.n	8000ab2 <HAL_RCCEx_PeriphCLKConfig+0x46>
 8000b4c:	f7ff fbae 	bl	80002ac <HAL_GetTick>
 8000b50:	4b07      	ldr	r3, [pc, #28]	; (8000b70 <HAL_RCCEx_PeriphCLKConfig+0x104>)
 8000b52:	1bc0      	subs	r0, r0, r7
 8000b54:	4298      	cmp	r0, r3
 8000b56:	d9f5      	bls.n	8000b44 <HAL_RCCEx_PeriphCLKConfig+0xd8>
 8000b58:	e7db      	b.n	8000b12 <HAL_RCCEx_PeriphCLKConfig+0xa6>
 8000b5a:	46c0      	nop			; (mov r8, r8)
 8000b5c:	40021000 	.word	0x40021000
 8000b60:	40007000 	.word	0x40007000
 8000b64:	fffffcff 	.word	0xfffffcff
 8000b68:	efffffff 	.word	0xefffffff
 8000b6c:	fffeffff 	.word	0xfffeffff
 8000b70:	00001388 	.word	0x00001388

08000b74 <SPI_WaitFifoStateUntilTimeout.part.1>:
 8000b74:	21e0      	movs	r1, #224	; 0xe0
 8000b76:	6803      	ldr	r3, [r0, #0]
 8000b78:	b510      	push	{r4, lr}
 8000b7a:	685a      	ldr	r2, [r3, #4]
 8000b7c:	438a      	bics	r2, r1
 8000b7e:	605a      	str	r2, [r3, #4]
 8000b80:	2282      	movs	r2, #130	; 0x82
 8000b82:	6841      	ldr	r1, [r0, #4]
 8000b84:	0052      	lsls	r2, r2, #1
 8000b86:	4291      	cmp	r1, r2
 8000b88:	d10c      	bne.n	8000ba4 <SPI_WaitFifoStateUntilTimeout.part.1+0x30>
 8000b8a:	2180      	movs	r1, #128	; 0x80
 8000b8c:	6882      	ldr	r2, [r0, #8]
 8000b8e:	0209      	lsls	r1, r1, #8
 8000b90:	428a      	cmp	r2, r1
 8000b92:	d003      	beq.n	8000b9c <SPI_WaitFifoStateUntilTimeout.part.1+0x28>
 8000b94:	2180      	movs	r1, #128	; 0x80
 8000b96:	00c9      	lsls	r1, r1, #3
 8000b98:	428a      	cmp	r2, r1
 8000b9a:	d103      	bne.n	8000ba4 <SPI_WaitFifoStateUntilTimeout.part.1+0x30>
 8000b9c:	2140      	movs	r1, #64	; 0x40
 8000b9e:	681a      	ldr	r2, [r3, #0]
 8000ba0:	438a      	bics	r2, r1
 8000ba2:	601a      	str	r2, [r3, #0]
 8000ba4:	2180      	movs	r1, #128	; 0x80
 8000ba6:	6a82      	ldr	r2, [r0, #40]	; 0x28
 8000ba8:	0189      	lsls	r1, r1, #6
 8000baa:	428a      	cmp	r2, r1
 8000bac:	d106      	bne.n	8000bbc <SPI_WaitFifoStateUntilTimeout.part.1+0x48>
 8000bae:	6819      	ldr	r1, [r3, #0]
 8000bb0:	4c07      	ldr	r4, [pc, #28]	; (8000bd0 <SPI_WaitFifoStateUntilTimeout.part.1+0x5c>)
 8000bb2:	4021      	ands	r1, r4
 8000bb4:	6019      	str	r1, [r3, #0]
 8000bb6:	6819      	ldr	r1, [r3, #0]
 8000bb8:	430a      	orrs	r2, r1
 8000bba:	601a      	str	r2, [r3, #0]
 8000bbc:	0003      	movs	r3, r0
 8000bbe:	2201      	movs	r2, #1
 8000bc0:	335d      	adds	r3, #93	; 0x5d
 8000bc2:	701a      	strb	r2, [r3, #0]
 8000bc4:	2300      	movs	r3, #0
 8000bc6:	305c      	adds	r0, #92	; 0x5c
 8000bc8:	7003      	strb	r3, [r0, #0]
 8000bca:	2003      	movs	r0, #3
 8000bcc:	bd10      	pop	{r4, pc}
 8000bce:	46c0      	nop			; (mov r8, r8)
 8000bd0:	ffffdfff 	.word	0xffffdfff

08000bd4 <SPI_WaitFlagStateUntilTimeout.constprop.9>:
 8000bd4:	b5f8      	push	{r3, r4, r5, r6, r7, lr}
 8000bd6:	0005      	movs	r5, r0
 8000bd8:	000c      	movs	r4, r1
 8000bda:	0016      	movs	r6, r2
 8000bdc:	2780      	movs	r7, #128	; 0x80
 8000bde:	682b      	ldr	r3, [r5, #0]
 8000be0:	6898      	ldr	r0, [r3, #8]
 8000be2:	4038      	ands	r0, r7
 8000be4:	d006      	beq.n	8000bf4 <SPI_WaitFlagStateUntilTimeout.constprop.9+0x20>
 8000be6:	1c62      	adds	r2, r4, #1
 8000be8:	d0fa      	beq.n	8000be0 <SPI_WaitFlagStateUntilTimeout.constprop.9+0xc>
 8000bea:	2c00      	cmp	r4, #0
 8000bec:	d103      	bne.n	8000bf6 <SPI_WaitFlagStateUntilTimeout.constprop.9+0x22>
 8000bee:	0028      	movs	r0, r5
 8000bf0:	f7ff ffc0 	bl	8000b74 <SPI_WaitFifoStateUntilTimeout.part.1>
 8000bf4:	bdf8      	pop	{r3, r4, r5, r6, r7, pc}
 8000bf6:	f7ff fb59 	bl	80002ac <HAL_GetTick>
 8000bfa:	1b80      	subs	r0, r0, r6
 8000bfc:	4284      	cmp	r4, r0
 8000bfe:	d8ee      	bhi.n	8000bde <SPI_WaitFlagStateUntilTimeout.constprop.9+0xa>
 8000c00:	e7f5      	b.n	8000bee <SPI_WaitFlagStateUntilTimeout.constprop.9+0x1a>

08000c02 <SPI_WaitFifoStateUntilTimeout.constprop.10>:
 8000c02:	b5f0      	push	{r4, r5, r6, r7, lr}
 8000c04:	27c0      	movs	r7, #192	; 0xc0
 8000c06:	0006      	movs	r6, r0
 8000c08:	000d      	movs	r5, r1
 8000c0a:	0014      	movs	r4, r2
 8000c0c:	b085      	sub	sp, #20
 8000c0e:	9301      	str	r3, [sp, #4]
 8000c10:	00ff      	lsls	r7, r7, #3
 8000c12:	ab02      	add	r3, sp, #8
 8000c14:	6831      	ldr	r1, [r6, #0]
 8000c16:	1dda      	adds	r2, r3, #7
 8000c18:	6888      	ldr	r0, [r1, #8]
 8000c1a:	4028      	ands	r0, r5
 8000c1c:	d00c      	beq.n	8000c38 <SPI_WaitFifoStateUntilTimeout.constprop.10+0x36>
 8000c1e:	42bd      	cmp	r5, r7
 8000c20:	d103      	bne.n	8000c2a <SPI_WaitFifoStateUntilTimeout.constprop.10+0x28>
 8000c22:	7b0b      	ldrb	r3, [r1, #12]
 8000c24:	b2db      	uxtb	r3, r3
 8000c26:	7013      	strb	r3, [r2, #0]
 8000c28:	7813      	ldrb	r3, [r2, #0]
 8000c2a:	1c63      	adds	r3, r4, #1
 8000c2c:	d0f4      	beq.n	8000c18 <SPI_WaitFifoStateUntilTimeout.constprop.10+0x16>
 8000c2e:	2c00      	cmp	r4, #0
 8000c30:	d104      	bne.n	8000c3c <SPI_WaitFifoStateUntilTimeout.constprop.10+0x3a>
 8000c32:	0030      	movs	r0, r6
 8000c34:	f7ff ff9e 	bl	8000b74 <SPI_WaitFifoStateUntilTimeout.part.1>
 8000c38:	b005      	add	sp, #20
 8000c3a:	bdf0      	pop	{r4, r5, r6, r7, pc}
 8000c3c:	f7ff fb36 	bl	80002ac <HAL_GetTick>
 8000c40:	9b01      	ldr	r3, [sp, #4]
 8000c42:	1ac0      	subs	r0, r0, r3
 8000c44:	4284      	cmp	r4, r0
 8000c46:	d8e4      	bhi.n	8000c12 <SPI_WaitFifoStateUntilTimeout.constprop.10+0x10>
 8000c48:	e7f3      	b.n	8000c32 <SPI_WaitFifoStateUntilTimeout.constprop.10+0x30>

08000c4a <SPI_EndRxTransaction>:
 8000c4a:	b5f8      	push	{r3, r4, r5, r6, r7, lr}
 8000c4c:	2382      	movs	r3, #130	; 0x82
 8000c4e:	0017      	movs	r7, r2
 8000c50:	6842      	ldr	r2, [r0, #4]
 8000c52:	0004      	movs	r4, r0
 8000c54:	000e      	movs	r6, r1
 8000c56:	005b      	lsls	r3, r3, #1
 8000c58:	429a      	cmp	r2, r3
 8000c5a:	d10d      	bne.n	8000c78 <SPI_EndRxTransaction+0x2e>
 8000c5c:	2280      	movs	r2, #128	; 0x80
 8000c5e:	6883      	ldr	r3, [r0, #8]
 8000c60:	0212      	lsls	r2, r2, #8
 8000c62:	4293      	cmp	r3, r2
 8000c64:	d003      	beq.n	8000c6e <SPI_EndRxTransaction+0x24>
 8000c66:	2280      	movs	r2, #128	; 0x80
 8000c68:	00d2      	lsls	r2, r2, #3
 8000c6a:	4293      	cmp	r3, r2
 8000c6c:	d104      	bne.n	8000c78 <SPI_EndRxTransaction+0x2e>
 8000c6e:	2140      	movs	r1, #64	; 0x40
 8000c70:	6822      	ldr	r2, [r4, #0]
 8000c72:	6813      	ldr	r3, [r2, #0]
 8000c74:	438b      	bics	r3, r1
 8000c76:	6013      	str	r3, [r2, #0]
 8000c78:	003a      	movs	r2, r7
 8000c7a:	0031      	movs	r1, r6
 8000c7c:	0020      	movs	r0, r4
 8000c7e:	f7ff ffa9 	bl	8000bd4 <SPI_WaitFlagStateUntilTimeout.constprop.9>
 8000c82:	1e05      	subs	r5, r0, #0
 8000c84:	d005      	beq.n	8000c92 <SPI_EndRxTransaction+0x48>
 8000c86:	2320      	movs	r3, #32
 8000c88:	6e22      	ldr	r2, [r4, #96]	; 0x60
 8000c8a:	2503      	movs	r5, #3
 8000c8c:	4313      	orrs	r3, r2
 8000c8e:	6623      	str	r3, [r4, #96]	; 0x60
 8000c90:	e016      	b.n	8000cc0 <SPI_EndRxTransaction+0x76>
 8000c92:	2382      	movs	r3, #130	; 0x82
 8000c94:	6862      	ldr	r2, [r4, #4]
 8000c96:	005b      	lsls	r3, r3, #1
 8000c98:	429a      	cmp	r2, r3
 8000c9a:	d111      	bne.n	8000cc0 <SPI_EndRxTransaction+0x76>
 8000c9c:	2280      	movs	r2, #128	; 0x80
 8000c9e:	68a3      	ldr	r3, [r4, #8]
 8000ca0:	0212      	lsls	r2, r2, #8
 8000ca2:	4293      	cmp	r3, r2
 8000ca4:	d003      	beq.n	8000cae <SPI_EndRxTransaction+0x64>
 8000ca6:	2280      	movs	r2, #128	; 0x80
 8000ca8:	00d2      	lsls	r2, r2, #3
 8000caa:	4293      	cmp	r3, r2
 8000cac:	d108      	bne.n	8000cc0 <SPI_EndRxTransaction+0x76>
 8000cae:	21c0      	movs	r1, #192	; 0xc0
 8000cb0:	003b      	movs	r3, r7
 8000cb2:	0032      	movs	r2, r6
 8000cb4:	00c9      	lsls	r1, r1, #3
 8000cb6:	0020      	movs	r0, r4
 8000cb8:	f7ff ffa3 	bl	8000c02 <SPI_WaitFifoStateUntilTimeout.constprop.10>
 8000cbc:	2800      	cmp	r0, #0
 8000cbe:	d1e2      	bne.n	8000c86 <SPI_EndRxTransaction+0x3c>
 8000cc0:	0028      	movs	r0, r5
 8000cc2:	bdf8      	pop	{r3, r4, r5, r6, r7, pc}

08000cc4 <SPI_EndRxTxTransaction>:
 8000cc4:	b570      	push	{r4, r5, r6, lr}
 8000cc6:	0013      	movs	r3, r2
 8000cc8:	000d      	movs	r5, r1
 8000cca:	0016      	movs	r6, r2
 8000ccc:	000a      	movs	r2, r1
 8000cce:	21c0      	movs	r1, #192	; 0xc0
 8000cd0:	0149      	lsls	r1, r1, #5
 8000cd2:	0004      	movs	r4, r0
 8000cd4:	f7ff ff95 	bl	8000c02 <SPI_WaitFifoStateUntilTimeout.constprop.10>
 8000cd8:	2800      	cmp	r0, #0
 8000cda:	d005      	beq.n	8000ce8 <SPI_EndRxTxTransaction+0x24>
 8000cdc:	2320      	movs	r3, #32
 8000cde:	6e22      	ldr	r2, [r4, #96]	; 0x60
 8000ce0:	2003      	movs	r0, #3
 8000ce2:	4313      	orrs	r3, r2
 8000ce4:	6623      	str	r3, [r4, #96]	; 0x60
 8000ce6:	e00f      	b.n	8000d08 <SPI_EndRxTxTransaction+0x44>
 8000ce8:	0032      	movs	r2, r6
 8000cea:	0029      	movs	r1, r5
 8000cec:	0020      	movs	r0, r4
 8000cee:	f7ff ff71 	bl	8000bd4 <SPI_WaitFlagStateUntilTimeout.constprop.9>
 8000cf2:	2800      	cmp	r0, #0
 8000cf4:	d1f2      	bne.n	8000cdc <SPI_EndRxTxTransaction+0x18>
 8000cf6:	21c0      	movs	r1, #192	; 0xc0
 8000cf8:	0033      	movs	r3, r6
 8000cfa:	002a      	movs	r2, r5
 8000cfc:	00c9      	lsls	r1, r1, #3
 8000cfe:	0020      	movs	r0, r4
 8000d00:	f7ff ff7f 	bl	8000c02 <SPI_WaitFifoStateUntilTimeout.constprop.10>
 8000d04:	2800      	cmp	r0, #0
 8000d06:	d1e9      	bne.n	8000cdc <SPI_EndRxTxTransaction+0x18>
 8000d08:	bd70      	pop	{r4, r5, r6, pc}
	...

08000d0c <HAL_SPI_Init>:
 8000d0c:	b5f8      	push	{r3, r4, r5, r6, r7, lr}
 8000d0e:	0004      	movs	r4, r0
 8000d10:	2001      	movs	r0, #1
 8000d12:	2c00      	cmp	r4, #0
 8000d14:	d04e      	beq.n	8000db4 <HAL_SPI_Init+0xa8>
 8000d16:	2300      	movs	r3, #0
 8000d18:	0025      	movs	r5, r4
 8000d1a:	62a3      	str	r3, [r4, #40]	; 0x28
 8000d1c:	355d      	adds	r5, #93	; 0x5d
 8000d1e:	782b      	ldrb	r3, [r5, #0]
 8000d20:	b2db      	uxtb	r3, r3
 8000d22:	2b00      	cmp	r3, #0
 8000d24:	d105      	bne.n	8000d32 <HAL_SPI_Init+0x26>
 8000d26:	0022      	movs	r2, r4
 8000d28:	325c      	adds	r2, #92	; 0x5c
 8000d2a:	7013      	strb	r3, [r2, #0]
 8000d2c:	0020      	movs	r0, r4
 8000d2e:	f001 fdfd 	bl	800292c <HAL_SPI_MspInit>
 8000d32:	2302      	movs	r3, #2
 8000d34:	2140      	movs	r1, #64	; 0x40
 8000d36:	6822      	ldr	r2, [r4, #0]
 8000d38:	702b      	strb	r3, [r5, #0]
 8000d3a:	6813      	ldr	r3, [r2, #0]
 8000d3c:	68e0      	ldr	r0, [r4, #12]
 8000d3e:	438b      	bics	r3, r1
 8000d40:	21e0      	movs	r1, #224	; 0xe0
 8000d42:	6013      	str	r3, [r2, #0]
 8000d44:	00c9      	lsls	r1, r1, #3
 8000d46:	2300      	movs	r3, #0
 8000d48:	4288      	cmp	r0, r1
 8000d4a:	d834      	bhi.n	8000db6 <HAL_SPI_Init+0xaa>
 8000d4c:	2680      	movs	r6, #128	; 0x80
 8000d4e:	0176      	lsls	r6, r6, #5
 8000d50:	4288      	cmp	r0, r1
 8000d52:	d101      	bne.n	8000d58 <HAL_SPI_Init+0x4c>
 8000d54:	e001      	b.n	8000d5a <HAL_SPI_Init+0x4e>
 8000d56:	001e      	movs	r6, r3
 8000d58:	62a3      	str	r3, [r4, #40]	; 0x28
 8000d5a:	6b23      	ldr	r3, [r4, #48]	; 0x30
 8000d5c:	2b00      	cmp	r3, #0
 8000d5e:	d104      	bne.n	8000d6a <HAL_SPI_Init+0x5e>
 8000d60:	3302      	adds	r3, #2
 8000d62:	4288      	cmp	r0, r1
 8000d64:	d800      	bhi.n	8000d68 <HAL_SPI_Init+0x5c>
 8000d66:	2301      	movs	r3, #1
 8000d68:	6323      	str	r3, [r4, #48]	; 0x30
 8000d6a:	68a7      	ldr	r7, [r4, #8]
 8000d6c:	6863      	ldr	r3, [r4, #4]
 8000d6e:	69a1      	ldr	r1, [r4, #24]
 8000d70:	433b      	orrs	r3, r7
 8000d72:	6927      	ldr	r7, [r4, #16]
 8000d74:	433b      	orrs	r3, r7
 8000d76:	6967      	ldr	r7, [r4, #20]
 8000d78:	433b      	orrs	r3, r7
 8000d7a:	69e7      	ldr	r7, [r4, #28]
 8000d7c:	433b      	orrs	r3, r7
 8000d7e:	6a27      	ldr	r7, [r4, #32]
 8000d80:	433b      	orrs	r3, r7
 8000d82:	6aa7      	ldr	r7, [r4, #40]	; 0x28
 8000d84:	433b      	orrs	r3, r7
 8000d86:	2780      	movs	r7, #128	; 0x80
 8000d88:	00bf      	lsls	r7, r7, #2
 8000d8a:	400f      	ands	r7, r1
 8000d8c:	433b      	orrs	r3, r7
 8000d8e:	6013      	str	r3, [r2, #0]
 8000d90:	6a63      	ldr	r3, [r4, #36]	; 0x24
 8000d92:	0c09      	lsrs	r1, r1, #16
 8000d94:	4318      	orrs	r0, r3
 8000d96:	6b63      	ldr	r3, [r4, #52]	; 0x34
 8000d98:	4318      	orrs	r0, r3
 8000d9a:	2304      	movs	r3, #4
 8000d9c:	4019      	ands	r1, r3
 8000d9e:	4301      	orrs	r1, r0
 8000da0:	430e      	orrs	r6, r1
 8000da2:	6056      	str	r6, [r2, #4]
 8000da4:	69d3      	ldr	r3, [r2, #28]
 8000da6:	4907      	ldr	r1, [pc, #28]	; (8000dc4 <HAL_SPI_Init+0xb8>)
 8000da8:	2000      	movs	r0, #0
 8000daa:	400b      	ands	r3, r1
 8000dac:	61d3      	str	r3, [r2, #28]
 8000dae:	2301      	movs	r3, #1
 8000db0:	6620      	str	r0, [r4, #96]	; 0x60
 8000db2:	702b      	strb	r3, [r5, #0]
 8000db4:	bdf8      	pop	{r3, r4, r5, r6, r7, pc}
 8000db6:	26f0      	movs	r6, #240	; 0xf0
 8000db8:	0136      	lsls	r6, r6, #4
 8000dba:	42b0      	cmp	r0, r6
 8000dbc:	d1cb      	bne.n	8000d56 <HAL_SPI_Init+0x4a>
 8000dbe:	001e      	movs	r6, r3
 8000dc0:	e7cb      	b.n	8000d5a <HAL_SPI_Init+0x4e>
 8000dc2:	46c0      	nop			; (mov r8, r8)
 8000dc4:	fffff7ff 	.word	0xfffff7ff

08000dc8 <HAL_SPI_Transmit>:
 8000dc8:	b5f0      	push	{r4, r5, r6, r7, lr}
 8000dca:	001e      	movs	r6, r3
 8000dcc:	0003      	movs	r3, r0
 8000dce:	b087      	sub	sp, #28
 8000dd0:	335c      	adds	r3, #92	; 0x5c
 8000dd2:	9201      	str	r2, [sp, #4]
 8000dd4:	9302      	str	r3, [sp, #8]
 8000dd6:	781b      	ldrb	r3, [r3, #0]
 8000dd8:	0004      	movs	r4, r0
 8000dda:	000d      	movs	r5, r1
 8000ddc:	2002      	movs	r0, #2
 8000dde:	2b01      	cmp	r3, #1
 8000de0:	d072      	beq.n	8000ec8 <HAL_SPI_Transmit+0x100>
 8000de2:	2301      	movs	r3, #1
 8000de4:	9a02      	ldr	r2, [sp, #8]
 8000de6:	7013      	strb	r3, [r2, #0]
 8000de8:	f7ff fa60 	bl	80002ac <HAL_GetTick>
 8000dec:	0023      	movs	r3, r4
 8000dee:	335d      	adds	r3, #93	; 0x5d
 8000df0:	9303      	str	r3, [sp, #12]
 8000df2:	781b      	ldrb	r3, [r3, #0]
 8000df4:	0007      	movs	r7, r0
 8000df6:	b2db      	uxtb	r3, r3
 8000df8:	2002      	movs	r0, #2
 8000dfa:	2b01      	cmp	r3, #1
 8000dfc:	d15e      	bne.n	8000ebc <HAL_SPI_Transmit+0xf4>
 8000dfe:	0018      	movs	r0, r3
 8000e00:	2d00      	cmp	r5, #0
 8000e02:	d05b      	beq.n	8000ebc <HAL_SPI_Transmit+0xf4>
 8000e04:	9b01      	ldr	r3, [sp, #4]
 8000e06:	2b00      	cmp	r3, #0
 8000e08:	d058      	beq.n	8000ebc <HAL_SPI_Transmit+0xf4>
 8000e0a:	2303      	movs	r3, #3
 8000e0c:	9a03      	ldr	r2, [sp, #12]
 8000e0e:	68a1      	ldr	r1, [r4, #8]
 8000e10:	7013      	strb	r3, [r2, #0]
 8000e12:	2300      	movs	r3, #0
 8000e14:	9a01      	ldr	r2, [sp, #4]
 8000e16:	6623      	str	r3, [r4, #96]	; 0x60
 8000e18:	87a2      	strh	r2, [r4, #60]	; 0x3c
 8000e1a:	87e2      	strh	r2, [r4, #62]	; 0x3e
 8000e1c:	1da2      	adds	r2, r4, #6
 8000e1e:	6423      	str	r3, [r4, #64]	; 0x40
 8000e20:	63a5      	str	r5, [r4, #56]	; 0x38
 8000e22:	3202      	adds	r2, #2
 8000e24:	8793      	strh	r3, [r2, #60]	; 0x3c
 8000e26:	87d3      	strh	r3, [r2, #62]	; 0x3e
 8000e28:	2280      	movs	r2, #128	; 0x80
 8000e2a:	6523      	str	r3, [r4, #80]	; 0x50
 8000e2c:	64e3      	str	r3, [r4, #76]	; 0x4c
 8000e2e:	0212      	lsls	r2, r2, #8
 8000e30:	6823      	ldr	r3, [r4, #0]
 8000e32:	4291      	cmp	r1, r2
 8000e34:	d104      	bne.n	8000e40 <HAL_SPI_Transmit+0x78>
 8000e36:	2280      	movs	r2, #128	; 0x80
 8000e38:	6819      	ldr	r1, [r3, #0]
 8000e3a:	01d2      	lsls	r2, r2, #7
 8000e3c:	430a      	orrs	r2, r1
 8000e3e:	601a      	str	r2, [r3, #0]
 8000e40:	2240      	movs	r2, #64	; 0x40
 8000e42:	6819      	ldr	r1, [r3, #0]
 8000e44:	4211      	tst	r1, r2
 8000e46:	d102      	bne.n	8000e4e <HAL_SPI_Transmit+0x86>
 8000e48:	6819      	ldr	r1, [r3, #0]
 8000e4a:	430a      	orrs	r2, r1
 8000e4c:	601a      	str	r2, [r3, #0]
 8000e4e:	21e0      	movs	r1, #224	; 0xe0
 8000e50:	68e0      	ldr	r0, [r4, #12]
 8000e52:	6862      	ldr	r2, [r4, #4]
 8000e54:	00c9      	lsls	r1, r1, #3
 8000e56:	4288      	cmp	r0, r1
 8000e58:	d940      	bls.n	8000edc <HAL_SPI_Transmit+0x114>
 8000e5a:	2a00      	cmp	r2, #0
 8000e5c:	d002      	beq.n	8000e64 <HAL_SPI_Transmit+0x9c>
 8000e5e:	8fe2      	ldrh	r2, [r4, #62]	; 0x3e
 8000e60:	2a01      	cmp	r2, #1
 8000e62:	d106      	bne.n	8000e72 <HAL_SPI_Transmit+0xaa>
 8000e64:	882a      	ldrh	r2, [r5, #0]
 8000e66:	3502      	adds	r5, #2
 8000e68:	60da      	str	r2, [r3, #12]
 8000e6a:	8fe3      	ldrh	r3, [r4, #62]	; 0x3e
 8000e6c:	3b01      	subs	r3, #1
 8000e6e:	b29b      	uxth	r3, r3
 8000e70:	87e3      	strh	r3, [r4, #62]	; 0x3e
 8000e72:	8fe3      	ldrh	r3, [r4, #62]	; 0x3e
 8000e74:	2b00      	cmp	r3, #0
 8000e76:	d115      	bne.n	8000ea4 <HAL_SPI_Transmit+0xdc>
 8000e78:	003a      	movs	r2, r7
 8000e7a:	0031      	movs	r1, r6
 8000e7c:	0020      	movs	r0, r4
 8000e7e:	f7ff ff21 	bl	8000cc4 <SPI_EndRxTxTransaction>
 8000e82:	2800      	cmp	r0, #0
 8000e84:	d15a      	bne.n	8000f3c <HAL_SPI_Transmit+0x174>
 8000e86:	68a3      	ldr	r3, [r4, #8]
 8000e88:	2b00      	cmp	r3, #0
 8000e8a:	d106      	bne.n	8000e9a <HAL_SPI_Transmit+0xd2>
 8000e8c:	9305      	str	r3, [sp, #20]
 8000e8e:	6823      	ldr	r3, [r4, #0]
 8000e90:	68da      	ldr	r2, [r3, #12]
 8000e92:	9205      	str	r2, [sp, #20]
 8000e94:	689b      	ldr	r3, [r3, #8]
 8000e96:	9305      	str	r3, [sp, #20]
 8000e98:	9b05      	ldr	r3, [sp, #20]
 8000e9a:	6e20      	ldr	r0, [r4, #96]	; 0x60
 8000e9c:	1e43      	subs	r3, r0, #1
 8000e9e:	4198      	sbcs	r0, r3
 8000ea0:	b2c0      	uxtb	r0, r0
 8000ea2:	e00b      	b.n	8000ebc <HAL_SPI_Transmit+0xf4>
 8000ea4:	2102      	movs	r1, #2
 8000ea6:	6823      	ldr	r3, [r4, #0]
 8000ea8:	689a      	ldr	r2, [r3, #8]
 8000eaa:	420a      	tst	r2, r1
 8000eac:	d003      	beq.n	8000eb6 <HAL_SPI_Transmit+0xee>
 8000eae:	882a      	ldrh	r2, [r5, #0]
 8000eb0:	186d      	adds	r5, r5, r1
 8000eb2:	60da      	str	r2, [r3, #12]
 8000eb4:	e7d9      	b.n	8000e6a <HAL_SPI_Transmit+0xa2>
 8000eb6:	2e00      	cmp	r6, #0
 8000eb8:	d108      	bne.n	8000ecc <HAL_SPI_Transmit+0x104>
 8000eba:	2003      	movs	r0, #3
 8000ebc:	2301      	movs	r3, #1
 8000ebe:	9a03      	ldr	r2, [sp, #12]
 8000ec0:	7013      	strb	r3, [r2, #0]
 8000ec2:	2300      	movs	r3, #0
 8000ec4:	9a02      	ldr	r2, [sp, #8]
 8000ec6:	7013      	strb	r3, [r2, #0]
 8000ec8:	b007      	add	sp, #28
 8000eca:	bdf0      	pop	{r4, r5, r6, r7, pc}
 8000ecc:	1c73      	adds	r3, r6, #1
 8000ece:	d0d0      	beq.n	8000e72 <HAL_SPI_Transmit+0xaa>
 8000ed0:	f7ff f9ec 	bl	80002ac <HAL_GetTick>
 8000ed4:	1bc0      	subs	r0, r0, r7
 8000ed6:	42b0      	cmp	r0, r6
 8000ed8:	d3cb      	bcc.n	8000e72 <HAL_SPI_Transmit+0xaa>
 8000eda:	e7ee      	b.n	8000eba <HAL_SPI_Transmit+0xf2>
 8000edc:	2a00      	cmp	r2, #0
 8000ede:	d002      	beq.n	8000ee6 <HAL_SPI_Transmit+0x11e>
 8000ee0:	8fe2      	ldrh	r2, [r4, #62]	; 0x3e
 8000ee2:	2a01      	cmp	r2, #1
 8000ee4:	d109      	bne.n	8000efa <HAL_SPI_Transmit+0x132>
 8000ee6:	8fe2      	ldrh	r2, [r4, #62]	; 0x3e
 8000ee8:	2a01      	cmp	r2, #1
 8000eea:	d915      	bls.n	8000f18 <HAL_SPI_Transmit+0x150>
 8000eec:	882a      	ldrh	r2, [r5, #0]
 8000eee:	3502      	adds	r5, #2
 8000ef0:	60da      	str	r2, [r3, #12]
 8000ef2:	8fe3      	ldrh	r3, [r4, #62]	; 0x3e
 8000ef4:	3b02      	subs	r3, #2
 8000ef6:	b29b      	uxth	r3, r3
 8000ef8:	87e3      	strh	r3, [r4, #62]	; 0x3e
 8000efa:	8fe3      	ldrh	r3, [r4, #62]	; 0x3e
 8000efc:	2b00      	cmp	r3, #0
 8000efe:	d0bb      	beq.n	8000e78 <HAL_SPI_Transmit+0xb0>
 8000f00:	2102      	movs	r1, #2
 8000f02:	6823      	ldr	r3, [r4, #0]
 8000f04:	689a      	ldr	r2, [r3, #8]
 8000f06:	420a      	tst	r2, r1
 8000f08:	d00e      	beq.n	8000f28 <HAL_SPI_Transmit+0x160>
 8000f0a:	8fe2      	ldrh	r2, [r4, #62]	; 0x3e
 8000f0c:	2a01      	cmp	r2, #1
 8000f0e:	d903      	bls.n	8000f18 <HAL_SPI_Transmit+0x150>
 8000f10:	882a      	ldrh	r2, [r5, #0]
 8000f12:	186d      	adds	r5, r5, r1
 8000f14:	60da      	str	r2, [r3, #12]
 8000f16:	e7ec      	b.n	8000ef2 <HAL_SPI_Transmit+0x12a>
 8000f18:	782a      	ldrb	r2, [r5, #0]
 8000f1a:	3501      	adds	r5, #1
 8000f1c:	731a      	strb	r2, [r3, #12]
 8000f1e:	8fe3      	ldrh	r3, [r4, #62]	; 0x3e
 8000f20:	3b01      	subs	r3, #1
 8000f22:	b29b      	uxth	r3, r3
 8000f24:	87e3      	strh	r3, [r4, #62]	; 0x3e
 8000f26:	e7e8      	b.n	8000efa <HAL_SPI_Transmit+0x132>
 8000f28:	2e00      	cmp	r6, #0
 8000f2a:	d0c6      	beq.n	8000eba <HAL_SPI_Transmit+0xf2>
 8000f2c:	1c73      	adds	r3, r6, #1
 8000f2e:	d0e4      	beq.n	8000efa <HAL_SPI_Transmit+0x132>
 8000f30:	f7ff f9bc 	bl	80002ac <HAL_GetTick>
 8000f34:	1bc0      	subs	r0, r0, r7
 8000f36:	42b0      	cmp	r0, r6
 8000f38:	d3df      	bcc.n	8000efa <HAL_SPI_Transmit+0x132>
 8000f3a:	e7be      	b.n	8000eba <HAL_SPI_Transmit+0xf2>
 8000f3c:	2320      	movs	r3, #32
 8000f3e:	6623      	str	r3, [r4, #96]	; 0x60
 8000f40:	e7a1      	b.n	8000e86 <HAL_SPI_Transmit+0xbe>
	...

08000f44 <HAL_SPI_TransmitReceive>:
 8000f44:	b5f7      	push	{r0, r1, r2, r4, r5, r6, r7, lr}
 8000f46:	001e      	movs	r6, r3
 8000f48:	0003      	movs	r3, r0
 8000f4a:	9200      	str	r2, [sp, #0]
 8000f4c:	335c      	adds	r3, #92	; 0x5c
 8000f4e:	781a      	ldrb	r2, [r3, #0]
 8000f50:	0004      	movs	r4, r0
 8000f52:	000d      	movs	r5, r1
 8000f54:	2002      	movs	r0, #2
 8000f56:	2a01      	cmp	r2, #1
 8000f58:	d100      	bne.n	8000f5c <HAL_SPI_TransmitReceive+0x18>
 8000f5a:	e0ae      	b.n	80010ba <HAL_SPI_TransmitReceive+0x176>
 8000f5c:	2201      	movs	r2, #1
 8000f5e:	701a      	strb	r2, [r3, #0]
 8000f60:	f7ff f9a4 	bl	80002ac <HAL_GetTick>
 8000f64:	0023      	movs	r3, r4
 8000f66:	9001      	str	r0, [sp, #4]
 8000f68:	335d      	adds	r3, #93	; 0x5d
 8000f6a:	781b      	ldrb	r3, [r3, #0]
 8000f6c:	6862      	ldr	r2, [r4, #4]
 8000f6e:	b2db      	uxtb	r3, r3
 8000f70:	2b01      	cmp	r3, #1
 8000f72:	d00c      	beq.n	8000f8e <HAL_SPI_TransmitReceive+0x4a>
 8000f74:	2182      	movs	r1, #130	; 0x82
 8000f76:	2002      	movs	r0, #2
 8000f78:	0049      	lsls	r1, r1, #1
 8000f7a:	428a      	cmp	r2, r1
 8000f7c:	d000      	beq.n	8000f80 <HAL_SPI_TransmitReceive+0x3c>
 8000f7e:	e095      	b.n	80010ac <HAL_SPI_TransmitReceive+0x168>
 8000f80:	68a1      	ldr	r1, [r4, #8]
 8000f82:	2900      	cmp	r1, #0
 8000f84:	d000      	beq.n	8000f88 <HAL_SPI_TransmitReceive+0x44>
 8000f86:	e091      	b.n	80010ac <HAL_SPI_TransmitReceive+0x168>
 8000f88:	2b04      	cmp	r3, #4
 8000f8a:	d000      	beq.n	8000f8e <HAL_SPI_TransmitReceive+0x4a>
 8000f8c:	e08e      	b.n	80010ac <HAL_SPI_TransmitReceive+0x168>
 8000f8e:	2001      	movs	r0, #1
 8000f90:	2d00      	cmp	r5, #0
 8000f92:	d100      	bne.n	8000f96 <HAL_SPI_TransmitReceive+0x52>
 8000f94:	e08a      	b.n	80010ac <HAL_SPI_TransmitReceive+0x168>
 8000f96:	9b00      	ldr	r3, [sp, #0]
 8000f98:	2b00      	cmp	r3, #0
 8000f9a:	d100      	bne.n	8000f9e <HAL_SPI_TransmitReceive+0x5a>
 8000f9c:	e086      	b.n	80010ac <HAL_SPI_TransmitReceive+0x168>
 8000f9e:	2e00      	cmp	r6, #0
 8000fa0:	d100      	bne.n	8000fa4 <HAL_SPI_TransmitReceive+0x60>
 8000fa2:	e083      	b.n	80010ac <HAL_SPI_TransmitReceive+0x168>
 8000fa4:	0023      	movs	r3, r4
 8000fa6:	335d      	adds	r3, #93	; 0x5d
 8000fa8:	7819      	ldrb	r1, [r3, #0]
 8000faa:	2904      	cmp	r1, #4
 8000fac:	d001      	beq.n	8000fb2 <HAL_SPI_TransmitReceive+0x6e>
 8000fae:	2105      	movs	r1, #5
 8000fb0:	7019      	strb	r1, [r3, #0]
 8000fb2:	0027      	movs	r7, r4
 8000fb4:	2300      	movs	r3, #0
 8000fb6:	9900      	ldr	r1, [sp, #0]
 8000fb8:	3708      	adds	r7, #8
 8000fba:	6421      	str	r1, [r4, #64]	; 0x40
 8000fbc:	1da1      	adds	r1, r4, #6
 8000fbe:	6623      	str	r3, [r4, #96]	; 0x60
 8000fc0:	87fe      	strh	r6, [r7, #62]	; 0x3e
 8000fc2:	87ce      	strh	r6, [r1, #62]	; 0x3e
 8000fc4:	64e3      	str	r3, [r4, #76]	; 0x4c
 8000fc6:	6523      	str	r3, [r4, #80]	; 0x50
 8000fc8:	23e0      	movs	r3, #224	; 0xe0
 8000fca:	68e0      	ldr	r0, [r4, #12]
 8000fcc:	63a5      	str	r5, [r4, #56]	; 0x38
 8000fce:	87e6      	strh	r6, [r4, #62]	; 0x3e
 8000fd0:	87a6      	strh	r6, [r4, #60]	; 0x3c
 8000fd2:	6821      	ldr	r1, [r4, #0]
 8000fd4:	00db      	lsls	r3, r3, #3
 8000fd6:	4298      	cmp	r0, r3
 8000fd8:	d802      	bhi.n	8000fe0 <HAL_SPI_TransmitReceive+0x9c>
 8000fda:	8ffb      	ldrh	r3, [r7, #62]	; 0x3e
 8000fdc:	2b01      	cmp	r3, #1
 8000fde:	d930      	bls.n	8001042 <HAL_SPI_TransmitReceive+0xfe>
 8000fe0:	684b      	ldr	r3, [r1, #4]
 8000fe2:	4e71      	ldr	r6, [pc, #452]	; (80011a8 <HAL_SPI_TransmitReceive+0x264>)
 8000fe4:	4033      	ands	r3, r6
 8000fe6:	604b      	str	r3, [r1, #4]
 8000fe8:	2340      	movs	r3, #64	; 0x40
 8000fea:	680e      	ldr	r6, [r1, #0]
 8000fec:	421e      	tst	r6, r3
 8000fee:	d102      	bne.n	8000ff6 <HAL_SPI_TransmitReceive+0xb2>
 8000ff0:	680e      	ldr	r6, [r1, #0]
 8000ff2:	4333      	orrs	r3, r6
 8000ff4:	600b      	str	r3, [r1, #0]
 8000ff6:	23e0      	movs	r3, #224	; 0xe0
 8000ff8:	0026      	movs	r6, r4
 8000ffa:	00db      	lsls	r3, r3, #3
 8000ffc:	3608      	adds	r6, #8
 8000ffe:	4298      	cmp	r0, r3
 8001000:	d95c      	bls.n	80010bc <HAL_SPI_TransmitReceive+0x178>
 8001002:	2a00      	cmp	r2, #0
 8001004:	d002      	beq.n	800100c <HAL_SPI_TransmitReceive+0xc8>
 8001006:	8fe3      	ldrh	r3, [r4, #62]	; 0x3e
 8001008:	2b01      	cmp	r3, #1
 800100a:	d106      	bne.n	800101a <HAL_SPI_TransmitReceive+0xd6>
 800100c:	882b      	ldrh	r3, [r5, #0]
 800100e:	3502      	adds	r5, #2
 8001010:	60cb      	str	r3, [r1, #12]
 8001012:	8fe3      	ldrh	r3, [r4, #62]	; 0x3e
 8001014:	3b01      	subs	r3, #1
 8001016:	b29b      	uxth	r3, r3
 8001018:	87e3      	strh	r3, [r4, #62]	; 0x3e
 800101a:	2701      	movs	r7, #1
 800101c:	8fe3      	ldrh	r3, [r4, #62]	; 0x3e
 800101e:	2b00      	cmp	r3, #0
 8001020:	d114      	bne.n	800104c <HAL_SPI_TransmitReceive+0x108>
 8001022:	8ff3      	ldrh	r3, [r6, #62]	; 0x3e
 8001024:	2b00      	cmp	r3, #0
 8001026:	d111      	bne.n	800104c <HAL_SPI_TransmitReceive+0x108>
 8001028:	9a01      	ldr	r2, [sp, #4]
 800102a:	9908      	ldr	r1, [sp, #32]
 800102c:	0020      	movs	r0, r4
 800102e:	f7ff fe49 	bl	8000cc4 <SPI_EndRxTxTransaction>
 8001032:	2800      	cmp	r0, #0
 8001034:	d000      	beq.n	8001038 <HAL_SPI_TransmitReceive+0xf4>
 8001036:	e0b3      	b.n	80011a0 <HAL_SPI_TransmitReceive+0x25c>
 8001038:	6e20      	ldr	r0, [r4, #96]	; 0x60
 800103a:	1e43      	subs	r3, r0, #1
 800103c:	4198      	sbcs	r0, r3
 800103e:	b2c0      	uxtb	r0, r0
 8001040:	e034      	b.n	80010ac <HAL_SPI_TransmitReceive+0x168>
 8001042:	2380      	movs	r3, #128	; 0x80
 8001044:	684e      	ldr	r6, [r1, #4]
 8001046:	015b      	lsls	r3, r3, #5
 8001048:	4333      	orrs	r3, r6
 800104a:	e7cc      	b.n	8000fe6 <HAL_SPI_TransmitReceive+0xa2>
 800104c:	2f00      	cmp	r7, #0
 800104e:	d00f      	beq.n	8001070 <HAL_SPI_TransmitReceive+0x12c>
 8001050:	8fe3      	ldrh	r3, [r4, #62]	; 0x3e
 8001052:	2b00      	cmp	r3, #0
 8001054:	d00c      	beq.n	8001070 <HAL_SPI_TransmitReceive+0x12c>
 8001056:	2102      	movs	r1, #2
 8001058:	6823      	ldr	r3, [r4, #0]
 800105a:	689a      	ldr	r2, [r3, #8]
 800105c:	420a      	tst	r2, r1
 800105e:	d007      	beq.n	8001070 <HAL_SPI_TransmitReceive+0x12c>
 8001060:	2700      	movs	r7, #0
 8001062:	882a      	ldrh	r2, [r5, #0]
 8001064:	186d      	adds	r5, r5, r1
 8001066:	60da      	str	r2, [r3, #12]
 8001068:	8fe3      	ldrh	r3, [r4, #62]	; 0x3e
 800106a:	3b01      	subs	r3, #1
 800106c:	b29b      	uxth	r3, r3
 800106e:	87e3      	strh	r3, [r4, #62]	; 0x3e
 8001070:	8ff3      	ldrh	r3, [r6, #62]	; 0x3e
 8001072:	2b00      	cmp	r3, #0
 8001074:	d00f      	beq.n	8001096 <HAL_SPI_TransmitReceive+0x152>
 8001076:	2101      	movs	r1, #1
 8001078:	6823      	ldr	r3, [r4, #0]
 800107a:	689a      	ldr	r2, [r3, #8]
 800107c:	420a      	tst	r2, r1
 800107e:	d00a      	beq.n	8001096 <HAL_SPI_TransmitReceive+0x152>
 8001080:	68db      	ldr	r3, [r3, #12]
 8001082:	9a00      	ldr	r2, [sp, #0]
 8001084:	000f      	movs	r7, r1
 8001086:	8013      	strh	r3, [r2, #0]
 8001088:	0013      	movs	r3, r2
 800108a:	3302      	adds	r3, #2
 800108c:	9300      	str	r3, [sp, #0]
 800108e:	8ff3      	ldrh	r3, [r6, #62]	; 0x3e
 8001090:	3b01      	subs	r3, #1
 8001092:	b29b      	uxth	r3, r3
 8001094:	87f3      	strh	r3, [r6, #62]	; 0x3e
 8001096:	9b08      	ldr	r3, [sp, #32]
 8001098:	3301      	adds	r3, #1
 800109a:	d0bf      	beq.n	800101c <HAL_SPI_TransmitReceive+0xd8>
 800109c:	f7ff f906 	bl	80002ac <HAL_GetTick>
 80010a0:	9b01      	ldr	r3, [sp, #4]
 80010a2:	1ac0      	subs	r0, r0, r3
 80010a4:	9b08      	ldr	r3, [sp, #32]
 80010a6:	4283      	cmp	r3, r0
 80010a8:	d8b8      	bhi.n	800101c <HAL_SPI_TransmitReceive+0xd8>
 80010aa:	2003      	movs	r0, #3
 80010ac:	0023      	movs	r3, r4
 80010ae:	2201      	movs	r2, #1
 80010b0:	335d      	adds	r3, #93	; 0x5d
 80010b2:	701a      	strb	r2, [r3, #0]
 80010b4:	2300      	movs	r3, #0
 80010b6:	345c      	adds	r4, #92	; 0x5c
 80010b8:	7023      	strb	r3, [r4, #0]
 80010ba:	bdfe      	pop	{r1, r2, r3, r4, r5, r6, r7, pc}
 80010bc:	2a00      	cmp	r2, #0
 80010be:	d002      	beq.n	80010c6 <HAL_SPI_TransmitReceive+0x182>
 80010c0:	8fe3      	ldrh	r3, [r4, #62]	; 0x3e
 80010c2:	2b01      	cmp	r3, #1
 80010c4:	d109      	bne.n	80010da <HAL_SPI_TransmitReceive+0x196>
 80010c6:	8fe3      	ldrh	r3, [r4, #62]	; 0x3e
 80010c8:	2b01      	cmp	r3, #1
 80010ca:	d908      	bls.n	80010de <HAL_SPI_TransmitReceive+0x19a>
 80010cc:	882b      	ldrh	r3, [r5, #0]
 80010ce:	3502      	adds	r5, #2
 80010d0:	60cb      	str	r3, [r1, #12]
 80010d2:	8fe3      	ldrh	r3, [r4, #62]	; 0x3e
 80010d4:	3b02      	subs	r3, #2
 80010d6:	b29b      	uxth	r3, r3
 80010d8:	87e3      	strh	r3, [r4, #62]	; 0x3e
 80010da:	2701      	movs	r7, #1
 80010dc:	e045      	b.n	800116a <HAL_SPI_TransmitReceive+0x226>
 80010de:	782b      	ldrb	r3, [r5, #0]
 80010e0:	3501      	adds	r5, #1
 80010e2:	730b      	strb	r3, [r1, #12]
 80010e4:	8fe3      	ldrh	r3, [r4, #62]	; 0x3e
 80010e6:	3b01      	subs	r3, #1
 80010e8:	b29b      	uxth	r3, r3
 80010ea:	87e3      	strh	r3, [r4, #62]	; 0x3e
 80010ec:	e7f5      	b.n	80010da <HAL_SPI_TransmitReceive+0x196>
 80010ee:	2f00      	cmp	r7, #0
 80010f0:	d012      	beq.n	8001118 <HAL_SPI_TransmitReceive+0x1d4>
 80010f2:	8fe3      	ldrh	r3, [r4, #62]	; 0x3e
 80010f4:	2b00      	cmp	r3, #0
 80010f6:	d00f      	beq.n	8001118 <HAL_SPI_TransmitReceive+0x1d4>
 80010f8:	2102      	movs	r1, #2
 80010fa:	6823      	ldr	r3, [r4, #0]
 80010fc:	689a      	ldr	r2, [r3, #8]
 80010fe:	420a      	tst	r2, r1
 8001100:	d00a      	beq.n	8001118 <HAL_SPI_TransmitReceive+0x1d4>
 8001102:	8fe2      	ldrh	r2, [r4, #62]	; 0x3e
 8001104:	2a01      	cmp	r2, #1
 8001106:	d937      	bls.n	8001178 <HAL_SPI_TransmitReceive+0x234>
 8001108:	882a      	ldrh	r2, [r5, #0]
 800110a:	186d      	adds	r5, r5, r1
 800110c:	60da      	str	r2, [r3, #12]
 800110e:	8fe3      	ldrh	r3, [r4, #62]	; 0x3e
 8001110:	3b02      	subs	r3, #2
 8001112:	b29b      	uxth	r3, r3
 8001114:	87e3      	strh	r3, [r4, #62]	; 0x3e
 8001116:	2700      	movs	r7, #0
 8001118:	8ff3      	ldrh	r3, [r6, #62]	; 0x3e
 800111a:	2b00      	cmp	r3, #0
 800111c:	d01a      	beq.n	8001154 <HAL_SPI_TransmitReceive+0x210>
 800111e:	2101      	movs	r1, #1
 8001120:	6822      	ldr	r2, [r4, #0]
 8001122:	6893      	ldr	r3, [r2, #8]
 8001124:	420b      	tst	r3, r1
 8001126:	d015      	beq.n	8001154 <HAL_SPI_TransmitReceive+0x210>
 8001128:	8ff3      	ldrh	r3, [r6, #62]	; 0x3e
 800112a:	428b      	cmp	r3, r1
 800112c:	d92c      	bls.n	8001188 <HAL_SPI_TransmitReceive+0x244>
 800112e:	68d3      	ldr	r3, [r2, #12]
 8001130:	9900      	ldr	r1, [sp, #0]
 8001132:	2701      	movs	r7, #1
 8001134:	800b      	strh	r3, [r1, #0]
 8001136:	000b      	movs	r3, r1
 8001138:	3302      	adds	r3, #2
 800113a:	9300      	str	r3, [sp, #0]
 800113c:	8ff3      	ldrh	r3, [r6, #62]	; 0x3e
 800113e:	3b02      	subs	r3, #2
 8001140:	b29b      	uxth	r3, r3
 8001142:	87f3      	strh	r3, [r6, #62]	; 0x3e
 8001144:	8ff3      	ldrh	r3, [r6, #62]	; 0x3e
 8001146:	42bb      	cmp	r3, r7
 8001148:	d804      	bhi.n	8001154 <HAL_SPI_TransmitReceive+0x210>
 800114a:	2380      	movs	r3, #128	; 0x80
 800114c:	6851      	ldr	r1, [r2, #4]
 800114e:	015b      	lsls	r3, r3, #5
 8001150:	430b      	orrs	r3, r1
 8001152:	6053      	str	r3, [r2, #4]
 8001154:	9b08      	ldr	r3, [sp, #32]
 8001156:	3301      	adds	r3, #1
 8001158:	d007      	beq.n	800116a <HAL_SPI_TransmitReceive+0x226>
 800115a:	f7ff f8a7 	bl	80002ac <HAL_GetTick>
 800115e:	9b01      	ldr	r3, [sp, #4]
 8001160:	1ac0      	subs	r0, r0, r3
 8001162:	9b08      	ldr	r3, [sp, #32]
 8001164:	4283      	cmp	r3, r0
 8001166:	d800      	bhi.n	800116a <HAL_SPI_TransmitReceive+0x226>
 8001168:	e79f      	b.n	80010aa <HAL_SPI_TransmitReceive+0x166>
 800116a:	8fe3      	ldrh	r3, [r4, #62]	; 0x3e
 800116c:	2b00      	cmp	r3, #0
 800116e:	d1be      	bne.n	80010ee <HAL_SPI_TransmitReceive+0x1aa>
 8001170:	8ff3      	ldrh	r3, [r6, #62]	; 0x3e
 8001172:	2b00      	cmp	r3, #0
 8001174:	d1bb      	bne.n	80010ee <HAL_SPI_TransmitReceive+0x1aa>
 8001176:	e757      	b.n	8001028 <HAL_SPI_TransmitReceive+0xe4>
 8001178:	782a      	ldrb	r2, [r5, #0]
 800117a:	3501      	adds	r5, #1
 800117c:	731a      	strb	r2, [r3, #12]
 800117e:	8fe3      	ldrh	r3, [r4, #62]	; 0x3e
 8001180:	3b01      	subs	r3, #1
 8001182:	b29b      	uxth	r3, r3
 8001184:	87e3      	strh	r3, [r4, #62]	; 0x3e
 8001186:	e7c6      	b.n	8001116 <HAL_SPI_TransmitReceive+0x1d2>
 8001188:	7b13      	ldrb	r3, [r2, #12]
 800118a:	9a00      	ldr	r2, [sp, #0]
 800118c:	2701      	movs	r7, #1
 800118e:	7013      	strb	r3, [r2, #0]
 8001190:	8ff3      	ldrh	r3, [r6, #62]	; 0x3e
 8001192:	3b01      	subs	r3, #1
 8001194:	b29b      	uxth	r3, r3
 8001196:	87f3      	strh	r3, [r6, #62]	; 0x3e
 8001198:	0013      	movs	r3, r2
 800119a:	3301      	adds	r3, #1
 800119c:	9300      	str	r3, [sp, #0]
 800119e:	e7d9      	b.n	8001154 <HAL_SPI_TransmitReceive+0x210>
 80011a0:	2320      	movs	r3, #32
 80011a2:	6623      	str	r3, [r4, #96]	; 0x60
 80011a4:	e748      	b.n	8001038 <HAL_SPI_TransmitReceive+0xf4>
 80011a6:	46c0      	nop			; (mov r8, r8)
 80011a8:	ffffefff 	.word	0xffffefff

080011ac <HAL_SPI_Receive>:
 80011ac:	b5f0      	push	{r4, r5, r6, r7, lr}
 80011ae:	001e      	movs	r6, r3
 80011b0:	2382      	movs	r3, #130	; 0x82
 80011b2:	0017      	movs	r7, r2
 80011b4:	6842      	ldr	r2, [r0, #4]
 80011b6:	b085      	sub	sp, #20
 80011b8:	0004      	movs	r4, r0
 80011ba:	000d      	movs	r5, r1
 80011bc:	005b      	lsls	r3, r3, #1
 80011be:	429a      	cmp	r2, r3
 80011c0:	d10d      	bne.n	80011de <HAL_SPI_Receive+0x32>
 80011c2:	6883      	ldr	r3, [r0, #8]
 80011c4:	2b00      	cmp	r3, #0
 80011c6:	d10a      	bne.n	80011de <HAL_SPI_Receive+0x32>
 80011c8:	0003      	movs	r3, r0
 80011ca:	2204      	movs	r2, #4
 80011cc:	335d      	adds	r3, #93	; 0x5d
 80011ce:	701a      	strb	r2, [r3, #0]
 80011d0:	9600      	str	r6, [sp, #0]
 80011d2:	003b      	movs	r3, r7
 80011d4:	000a      	movs	r2, r1
 80011d6:	f7ff feb5 	bl	8000f44 <HAL_SPI_TransmitReceive>
 80011da:	b005      	add	sp, #20
 80011dc:	bdf0      	pop	{r4, r5, r6, r7, pc}
 80011de:	0023      	movs	r3, r4
 80011e0:	335c      	adds	r3, #92	; 0x5c
 80011e2:	9303      	str	r3, [sp, #12]
 80011e4:	781b      	ldrb	r3, [r3, #0]
 80011e6:	2002      	movs	r0, #2
 80011e8:	2b01      	cmp	r3, #1
 80011ea:	d0f6      	beq.n	80011da <HAL_SPI_Receive+0x2e>
 80011ec:	2301      	movs	r3, #1
 80011ee:	9a03      	ldr	r2, [sp, #12]
 80011f0:	7013      	strb	r3, [r2, #0]
 80011f2:	f7ff f85b 	bl	80002ac <HAL_GetTick>
 80011f6:	0022      	movs	r2, r4
 80011f8:	9002      	str	r0, [sp, #8]
 80011fa:	325d      	adds	r2, #93	; 0x5d
 80011fc:	7813      	ldrb	r3, [r2, #0]
 80011fe:	2002      	movs	r0, #2
 8001200:	b2db      	uxtb	r3, r3
 8001202:	2b01      	cmp	r3, #1
 8001204:	d165      	bne.n	80012d2 <HAL_SPI_Receive+0x126>
 8001206:	0018      	movs	r0, r3
 8001208:	2d00      	cmp	r5, #0
 800120a:	d062      	beq.n	80012d2 <HAL_SPI_Receive+0x126>
 800120c:	2f00      	cmp	r7, #0
 800120e:	d060      	beq.n	80012d2 <HAL_SPI_Receive+0x126>
 8001210:	3303      	adds	r3, #3
 8001212:	7013      	strb	r3, [r2, #0]
 8001214:	2300      	movs	r3, #0
 8001216:	1da2      	adds	r2, r4, #6
 8001218:	6623      	str	r3, [r4, #96]	; 0x60
 800121a:	6425      	str	r5, [r4, #64]	; 0x40
 800121c:	3202      	adds	r2, #2
 800121e:	8797      	strh	r7, [r2, #60]	; 0x3c
 8001220:	87d7      	strh	r7, [r2, #62]	; 0x3e
 8001222:	63a3      	str	r3, [r4, #56]	; 0x38
 8001224:	87a3      	strh	r3, [r4, #60]	; 0x3c
 8001226:	87e3      	strh	r3, [r4, #62]	; 0x3e
 8001228:	64e3      	str	r3, [r4, #76]	; 0x4c
 800122a:	6523      	str	r3, [r4, #80]	; 0x50
 800122c:	23e0      	movs	r3, #224	; 0xe0
 800122e:	68e1      	ldr	r1, [r4, #12]
 8001230:	6822      	ldr	r2, [r4, #0]
 8001232:	00db      	lsls	r3, r3, #3
 8001234:	4299      	cmp	r1, r3
 8001236:	d929      	bls.n	800128c <HAL_SPI_Receive+0xe0>
 8001238:	6853      	ldr	r3, [r2, #4]
 800123a:	4835      	ldr	r0, [pc, #212]	; (8001310 <HAL_SPI_Receive+0x164>)
 800123c:	4003      	ands	r3, r0
 800123e:	6053      	str	r3, [r2, #4]
 8001240:	2380      	movs	r3, #128	; 0x80
 8001242:	68a0      	ldr	r0, [r4, #8]
 8001244:	021b      	lsls	r3, r3, #8
 8001246:	4298      	cmp	r0, r3
 8001248:	d103      	bne.n	8001252 <HAL_SPI_Receive+0xa6>
 800124a:	6813      	ldr	r3, [r2, #0]
 800124c:	4831      	ldr	r0, [pc, #196]	; (8001314 <HAL_SPI_Receive+0x168>)
 800124e:	4003      	ands	r3, r0
 8001250:	6013      	str	r3, [r2, #0]
 8001252:	2340      	movs	r3, #64	; 0x40
 8001254:	6810      	ldr	r0, [r2, #0]
 8001256:	4218      	tst	r0, r3
 8001258:	d102      	bne.n	8001260 <HAL_SPI_Receive+0xb4>
 800125a:	6810      	ldr	r0, [r2, #0]
 800125c:	4303      	orrs	r3, r0
 800125e:	6013      	str	r3, [r2, #0]
 8001260:	23e0      	movs	r3, #224	; 0xe0
 8001262:	0027      	movs	r7, r4
 8001264:	00db      	lsls	r3, r3, #3
 8001266:	3708      	adds	r7, #8
 8001268:	4299      	cmp	r1, r3
 800126a:	d920      	bls.n	80012ae <HAL_SPI_Receive+0x102>
 800126c:	8ffb      	ldrh	r3, [r7, #62]	; 0x3e
 800126e:	2b00      	cmp	r3, #0
 8001270:	d020      	beq.n	80012b4 <HAL_SPI_Receive+0x108>
 8001272:	2101      	movs	r1, #1
 8001274:	6823      	ldr	r3, [r4, #0]
 8001276:	689a      	ldr	r2, [r3, #8]
 8001278:	420a      	tst	r2, r1
 800127a:	d03a      	beq.n	80012f2 <HAL_SPI_Receive+0x146>
 800127c:	68db      	ldr	r3, [r3, #12]
 800127e:	802b      	strh	r3, [r5, #0]
 8001280:	8ffb      	ldrh	r3, [r7, #62]	; 0x3e
 8001282:	3502      	adds	r5, #2
 8001284:	3b01      	subs	r3, #1
 8001286:	b29b      	uxth	r3, r3
 8001288:	87fb      	strh	r3, [r7, #62]	; 0x3e
 800128a:	e7ef      	b.n	800126c <HAL_SPI_Receive+0xc0>
 800128c:	2380      	movs	r3, #128	; 0x80
 800128e:	6850      	ldr	r0, [r2, #4]
 8001290:	015b      	lsls	r3, r3, #5
 8001292:	4303      	orrs	r3, r0
 8001294:	e7d3      	b.n	800123e <HAL_SPI_Receive+0x92>
 8001296:	2101      	movs	r1, #1
 8001298:	6823      	ldr	r3, [r4, #0]
 800129a:	689a      	ldr	r2, [r3, #8]
 800129c:	420a      	tst	r2, r1
 800129e:	d015      	beq.n	80012cc <HAL_SPI_Receive+0x120>
 80012a0:	7b1b      	ldrb	r3, [r3, #12]
 80012a2:	702b      	strb	r3, [r5, #0]
 80012a4:	8ffb      	ldrh	r3, [r7, #62]	; 0x3e
 80012a6:	186d      	adds	r5, r5, r1
 80012a8:	3b01      	subs	r3, #1
 80012aa:	b29b      	uxth	r3, r3
 80012ac:	87fb      	strh	r3, [r7, #62]	; 0x3e
 80012ae:	8ffb      	ldrh	r3, [r7, #62]	; 0x3e
 80012b0:	2b00      	cmp	r3, #0
 80012b2:	d1f0      	bne.n	8001296 <HAL_SPI_Receive+0xea>
 80012b4:	9a02      	ldr	r2, [sp, #8]
 80012b6:	0031      	movs	r1, r6
 80012b8:	0020      	movs	r0, r4
 80012ba:	f7ff fcc6 	bl	8000c4a <SPI_EndRxTransaction>
 80012be:	2800      	cmp	r0, #0
 80012c0:	d122      	bne.n	8001308 <HAL_SPI_Receive+0x15c>
 80012c2:	6e20      	ldr	r0, [r4, #96]	; 0x60
 80012c4:	1e43      	subs	r3, r0, #1
 80012c6:	4198      	sbcs	r0, r3
 80012c8:	b2c0      	uxtb	r0, r0
 80012ca:	e002      	b.n	80012d2 <HAL_SPI_Receive+0x126>
 80012cc:	2e00      	cmp	r6, #0
 80012ce:	d107      	bne.n	80012e0 <HAL_SPI_Receive+0x134>
 80012d0:	2003      	movs	r0, #3
 80012d2:	2301      	movs	r3, #1
 80012d4:	345d      	adds	r4, #93	; 0x5d
 80012d6:	7023      	strb	r3, [r4, #0]
 80012d8:	2300      	movs	r3, #0
 80012da:	9a03      	ldr	r2, [sp, #12]
 80012dc:	7013      	strb	r3, [r2, #0]
 80012de:	e77c      	b.n	80011da <HAL_SPI_Receive+0x2e>
 80012e0:	1c73      	adds	r3, r6, #1
 80012e2:	d0e4      	beq.n	80012ae <HAL_SPI_Receive+0x102>
 80012e4:	f7fe ffe2 	bl	80002ac <HAL_GetTick>
 80012e8:	9b02      	ldr	r3, [sp, #8]
 80012ea:	1ac0      	subs	r0, r0, r3
 80012ec:	42b0      	cmp	r0, r6
 80012ee:	d3de      	bcc.n	80012ae <HAL_SPI_Receive+0x102>
 80012f0:	e7ee      	b.n	80012d0 <HAL_SPI_Receive+0x124>
 80012f2:	2e00      	cmp	r6, #0
 80012f4:	d0ec      	beq.n	80012d0 <HAL_SPI_Receive+0x124>
 80012f6:	1c73      	adds	r3, r6, #1
 80012f8:	d0b8      	beq.n	800126c <HAL_SPI_Receive+0xc0>
 80012fa:	f7fe ffd7 	bl	80002ac <HAL_GetTick>
 80012fe:	9b02      	ldr	r3, [sp, #8]
 8001300:	1ac0      	subs	r0, r0, r3
 8001302:	42b0      	cmp	r0, r6
 8001304:	d3b2      	bcc.n	800126c <HAL_SPI_Receive+0xc0>
 8001306:	e7e3      	b.n	80012d0 <HAL_SPI_Receive+0x124>
 8001308:	2320      	movs	r3, #32
 800130a:	6623      	str	r3, [r4, #96]	; 0x60
 800130c:	e7d9      	b.n	80012c2 <HAL_SPI_Receive+0x116>
 800130e:	46c0      	nop			; (mov r8, r8)
 8001310:	ffffefff 	.word	0xffffefff
 8001314:	ffffbfff 	.word	0xffffbfff

08001318 <UART_SetConfig>:
 8001318:	b570      	push	{r4, r5, r6, lr}
 800131a:	0004      	movs	r4, r0
 800131c:	6805      	ldr	r5, [r0, #0]
 800131e:	69c2      	ldr	r2, [r0, #28]
 8001320:	6883      	ldr	r3, [r0, #8]
 8001322:	6900      	ldr	r0, [r0, #16]
 8001324:	6829      	ldr	r1, [r5, #0]
 8001326:	4303      	orrs	r3, r0
 8001328:	6960      	ldr	r0, [r4, #20]
 800132a:	4303      	orrs	r3, r0
 800132c:	4838      	ldr	r0, [pc, #224]	; (8001410 <UART_SetConfig+0xf8>)
 800132e:	4313      	orrs	r3, r2
 8001330:	4001      	ands	r1, r0
 8001332:	430b      	orrs	r3, r1
 8001334:	602b      	str	r3, [r5, #0]
 8001336:	686b      	ldr	r3, [r5, #4]
 8001338:	4936      	ldr	r1, [pc, #216]	; (8001414 <UART_SetConfig+0xfc>)
 800133a:	6a20      	ldr	r0, [r4, #32]
 800133c:	400b      	ands	r3, r1
 800133e:	68e1      	ldr	r1, [r4, #12]
 8001340:	430b      	orrs	r3, r1
 8001342:	606b      	str	r3, [r5, #4]
 8001344:	69a3      	ldr	r3, [r4, #24]
 8001346:	68a9      	ldr	r1, [r5, #8]
 8001348:	4303      	orrs	r3, r0
 800134a:	4833      	ldr	r0, [pc, #204]	; (8001418 <UART_SetConfig+0x100>)
 800134c:	4001      	ands	r1, r0
 800134e:	430b      	orrs	r3, r1
 8001350:	2103      	movs	r1, #3
 8001352:	60ab      	str	r3, [r5, #8]
 8001354:	4b31      	ldr	r3, [pc, #196]	; (800141c <UART_SetConfig+0x104>)
 8001356:	6b1b      	ldr	r3, [r3, #48]	; 0x30
 8001358:	400b      	ands	r3, r1
 800135a:	4931      	ldr	r1, [pc, #196]	; (8001420 <UART_SetConfig+0x108>)
 800135c:	5cc8      	ldrb	r0, [r1, r3]
 800135e:	2380      	movs	r3, #128	; 0x80
 8001360:	021b      	lsls	r3, r3, #8
 8001362:	429a      	cmp	r2, r3
 8001364:	d12c      	bne.n	80013c0 <UART_SetConfig+0xa8>
 8001366:	2808      	cmp	r0, #8
 8001368:	d827      	bhi.n	80013ba <UART_SetConfig+0xa2>
 800136a:	f7fe fedf 	bl	800012c <__gnu_thumb1_case_uqi>
 800136e:	2605      	.short	0x2605
 8001370:	261e260b 	.word	0x261e260b
 8001374:	2626      	.short	0x2626
 8001376:	21          	.byte	0x21
 8001377:	00          	.byte	0x00
 8001378:	f7ff fb68 	bl	8000a4c <HAL_RCC_GetPCLK1Freq>
 800137c:	6863      	ldr	r3, [r4, #4]
 800137e:	0040      	lsls	r0, r0, #1
 8001380:	085b      	lsrs	r3, r3, #1
 8001382:	e002      	b.n	800138a <UART_SetConfig+0x72>
 8001384:	6863      	ldr	r3, [r4, #4]
 8001386:	0858      	lsrs	r0, r3, #1
 8001388:	4b26      	ldr	r3, [pc, #152]	; (8001424 <UART_SetConfig+0x10c>)
 800138a:	18c0      	adds	r0, r0, r3
 800138c:	6861      	ldr	r1, [r4, #4]
 800138e:	f7fe fed7 	bl	8000140 <__udivsi3>
 8001392:	b283      	uxth	r3, r0
 8001394:	2000      	movs	r0, #0
 8001396:	220f      	movs	r2, #15
 8001398:	0019      	movs	r1, r3
 800139a:	4391      	bics	r1, r2
 800139c:	000a      	movs	r2, r1
 800139e:	071b      	lsls	r3, r3, #28
 80013a0:	6821      	ldr	r1, [r4, #0]
 80013a2:	0f5b      	lsrs	r3, r3, #29
 80013a4:	4313      	orrs	r3, r2
 80013a6:	60cb      	str	r3, [r1, #12]
 80013a8:	bd70      	pop	{r4, r5, r6, pc}
 80013aa:	f7ff fa7f 	bl	80008ac <HAL_RCC_GetSysClockFreq>
 80013ae:	e7e5      	b.n	800137c <UART_SetConfig+0x64>
 80013b0:	6863      	ldr	r3, [r4, #4]
 80013b2:	0858      	lsrs	r0, r3, #1
 80013b4:	2380      	movs	r3, #128	; 0x80
 80013b6:	025b      	lsls	r3, r3, #9
 80013b8:	e7e7      	b.n	800138a <UART_SetConfig+0x72>
 80013ba:	2001      	movs	r0, #1
 80013bc:	2300      	movs	r3, #0
 80013be:	e7ea      	b.n	8001396 <UART_SetConfig+0x7e>
 80013c0:	2808      	cmp	r0, #8
 80013c2:	d823      	bhi.n	800140c <UART_SetConfig+0xf4>
 80013c4:	f7fe feb2 	bl	800012c <__gnu_thumb1_case_uqi>
 80013c8:	22112205 	.word	0x22112205
 80013cc:	2222221a 	.word	0x2222221a
 80013d0:	1d          	.byte	0x1d
 80013d1:	00          	.byte	0x00
 80013d2:	f7ff fb3b 	bl	8000a4c <HAL_RCC_GetPCLK1Freq>
 80013d6:	6861      	ldr	r1, [r4, #4]
 80013d8:	6824      	ldr	r4, [r4, #0]
 80013da:	084b      	lsrs	r3, r1, #1
 80013dc:	1818      	adds	r0, r3, r0
 80013de:	f7fe feaf 	bl	8000140 <__udivsi3>
 80013e2:	b280      	uxth	r0, r0
 80013e4:	60e0      	str	r0, [r4, #12]
 80013e6:	2000      	movs	r0, #0
 80013e8:	e7de      	b.n	80013a8 <UART_SetConfig+0x90>
 80013ea:	6861      	ldr	r1, [r4, #4]
 80013ec:	4b0e      	ldr	r3, [pc, #56]	; (8001428 <UART_SetConfig+0x110>)
 80013ee:	0848      	lsrs	r0, r1, #1
 80013f0:	18c0      	adds	r0, r0, r3
 80013f2:	f7fe fea5 	bl	8000140 <__udivsi3>
 80013f6:	b280      	uxth	r0, r0
 80013f8:	60e8      	str	r0, [r5, #12]
 80013fa:	e7f4      	b.n	80013e6 <UART_SetConfig+0xce>
 80013fc:	f7ff fa56 	bl	80008ac <HAL_RCC_GetSysClockFreq>
 8001400:	e7e9      	b.n	80013d6 <UART_SetConfig+0xbe>
 8001402:	2380      	movs	r3, #128	; 0x80
 8001404:	6861      	ldr	r1, [r4, #4]
 8001406:	021b      	lsls	r3, r3, #8
 8001408:	0848      	lsrs	r0, r1, #1
 800140a:	e7f1      	b.n	80013f0 <UART_SetConfig+0xd8>
 800140c:	2001      	movs	r0, #1
 800140e:	e7cb      	b.n	80013a8 <UART_SetConfig+0x90>
 8001410:	ffff69f3 	.word	0xffff69f3
 8001414:	ffffcfff 	.word	0xffffcfff
 8001418:	fffff4ff 	.word	0xfffff4ff
 800141c:	40021000 	.word	0x40021000
 8001420:	08002d8c 	.word	0x08002d8c
 8001424:	00f42400 	.word	0x00f42400
 8001428:	007a1200 	.word	0x007a1200

0800142c <UART_AdvFeatureConfig>:
 800142c:	6a43      	ldr	r3, [r0, #36]	; 0x24
 800142e:	b530      	push	{r4, r5, lr}
 8001430:	07da      	lsls	r2, r3, #31
 8001432:	d506      	bpl.n	8001442 <UART_AdvFeatureConfig+0x16>
 8001434:	6801      	ldr	r1, [r0, #0]
 8001436:	4c28      	ldr	r4, [pc, #160]	; (80014d8 <UART_AdvFeatureConfig+0xac>)
 8001438:	684a      	ldr	r2, [r1, #4]
 800143a:	4022      	ands	r2, r4
 800143c:	6a84      	ldr	r4, [r0, #40]	; 0x28
 800143e:	4322      	orrs	r2, r4
 8001440:	604a      	str	r2, [r1, #4]
 8001442:	079a      	lsls	r2, r3, #30
 8001444:	d506      	bpl.n	8001454 <UART_AdvFeatureConfig+0x28>
 8001446:	6801      	ldr	r1, [r0, #0]
 8001448:	4c24      	ldr	r4, [pc, #144]	; (80014dc <UART_AdvFeatureConfig+0xb0>)
 800144a:	684a      	ldr	r2, [r1, #4]
 800144c:	4022      	ands	r2, r4
 800144e:	6ac4      	ldr	r4, [r0, #44]	; 0x2c
 8001450:	4322      	orrs	r2, r4
 8001452:	604a      	str	r2, [r1, #4]
 8001454:	075a      	lsls	r2, r3, #29
 8001456:	d506      	bpl.n	8001466 <UART_AdvFeatureConfig+0x3a>
 8001458:	6801      	ldr	r1, [r0, #0]
 800145a:	4c21      	ldr	r4, [pc, #132]	; (80014e0 <UART_AdvFeatureConfig+0xb4>)
 800145c:	684a      	ldr	r2, [r1, #4]
 800145e:	4022      	ands	r2, r4
 8001460:	6b04      	ldr	r4, [r0, #48]	; 0x30
 8001462:	4322      	orrs	r2, r4
 8001464:	604a      	str	r2, [r1, #4]
 8001466:	071a      	lsls	r2, r3, #28
 8001468:	d506      	bpl.n	8001478 <UART_AdvFeatureConfig+0x4c>
 800146a:	6801      	ldr	r1, [r0, #0]
 800146c:	4c1d      	ldr	r4, [pc, #116]	; (80014e4 <UART_AdvFeatureConfig+0xb8>)
 800146e:	684a      	ldr	r2, [r1, #4]
 8001470:	4022      	ands	r2, r4
 8001472:	6b44      	ldr	r4, [r0, #52]	; 0x34
 8001474:	4322      	orrs	r2, r4
 8001476:	604a      	str	r2, [r1, #4]
 8001478:	06da      	lsls	r2, r3, #27
 800147a:	d506      	bpl.n	800148a <UART_AdvFeatureConfig+0x5e>
 800147c:	6801      	ldr	r1, [r0, #0]
 800147e:	4c1a      	ldr	r4, [pc, #104]	; (80014e8 <UART_AdvFeatureConfig+0xbc>)
 8001480:	688a      	ldr	r2, [r1, #8]
 8001482:	4022      	ands	r2, r4
 8001484:	6b84      	ldr	r4, [r0, #56]	; 0x38
 8001486:	4322      	orrs	r2, r4
 8001488:	608a      	str	r2, [r1, #8]
 800148a:	069a      	lsls	r2, r3, #26
 800148c:	d506      	bpl.n	800149c <UART_AdvFeatureConfig+0x70>
 800148e:	6801      	ldr	r1, [r0, #0]
 8001490:	4c16      	ldr	r4, [pc, #88]	; (80014ec <UART_AdvFeatureConfig+0xc0>)
 8001492:	688a      	ldr	r2, [r1, #8]
 8001494:	4022      	ands	r2, r4
 8001496:	6bc4      	ldr	r4, [r0, #60]	; 0x3c
 8001498:	4322      	orrs	r2, r4
 800149a:	608a      	str	r2, [r1, #8]
 800149c:	065a      	lsls	r2, r3, #25
 800149e:	d510      	bpl.n	80014c2 <UART_AdvFeatureConfig+0x96>
 80014a0:	6801      	ldr	r1, [r0, #0]
 80014a2:	4d13      	ldr	r5, [pc, #76]	; (80014f0 <UART_AdvFeatureConfig+0xc4>)
 80014a4:	684a      	ldr	r2, [r1, #4]
 80014a6:	6c04      	ldr	r4, [r0, #64]	; 0x40
 80014a8:	402a      	ands	r2, r5
 80014aa:	4322      	orrs	r2, r4
 80014ac:	604a      	str	r2, [r1, #4]
 80014ae:	2280      	movs	r2, #128	; 0x80
 80014b0:	0352      	lsls	r2, r2, #13
 80014b2:	4294      	cmp	r4, r2
 80014b4:	d105      	bne.n	80014c2 <UART_AdvFeatureConfig+0x96>
 80014b6:	684a      	ldr	r2, [r1, #4]
 80014b8:	4c0e      	ldr	r4, [pc, #56]	; (80014f4 <UART_AdvFeatureConfig+0xc8>)
 80014ba:	4022      	ands	r2, r4
 80014bc:	6c44      	ldr	r4, [r0, #68]	; 0x44
 80014be:	4322      	orrs	r2, r4
 80014c0:	604a      	str	r2, [r1, #4]
 80014c2:	061b      	lsls	r3, r3, #24
 80014c4:	d506      	bpl.n	80014d4 <UART_AdvFeatureConfig+0xa8>
 80014c6:	6802      	ldr	r2, [r0, #0]
 80014c8:	490b      	ldr	r1, [pc, #44]	; (80014f8 <UART_AdvFeatureConfig+0xcc>)
 80014ca:	6853      	ldr	r3, [r2, #4]
 80014cc:	400b      	ands	r3, r1
 80014ce:	6c81      	ldr	r1, [r0, #72]	; 0x48
 80014d0:	430b      	orrs	r3, r1
 80014d2:	6053      	str	r3, [r2, #4]
 80014d4:	bd30      	pop	{r4, r5, pc}
 80014d6:	46c0      	nop			; (mov r8, r8)
 80014d8:	fffdffff 	.word	0xfffdffff
 80014dc:	fffeffff 	.word	0xfffeffff
 80014e0:	fffbffff 	.word	0xfffbffff
 80014e4:	ffff7fff 	.word	0xffff7fff
 80014e8:	ffffefff 	.word	0xffffefff
 80014ec:	ffffdfff 	.word	0xffffdfff
 80014f0:	ffefffff 	.word	0xffefffff
 80014f4:	ff9fffff 	.word	0xff9fffff
 80014f8:	fff7ffff 	.word	0xfff7ffff

080014fc <HAL_UART_Init>:
 80014fc:	b570      	push	{r4, r5, r6, lr}
 80014fe:	1e04      	subs	r4, r0, #0
 8001500:	d101      	bne.n	8001506 <HAL_UART_Init+0xa>
 8001502:	2001      	movs	r0, #1
 8001504:	bd70      	pop	{r4, r5, r6, pc}
 8001506:	0005      	movs	r5, r0
 8001508:	3569      	adds	r5, #105	; 0x69
 800150a:	782b      	ldrb	r3, [r5, #0]
 800150c:	b2db      	uxtb	r3, r3
 800150e:	2b00      	cmp	r3, #0
 8001510:	d104      	bne.n	800151c <HAL_UART_Init+0x20>
 8001512:	0002      	movs	r2, r0
 8001514:	3268      	adds	r2, #104	; 0x68
 8001516:	7013      	strb	r3, [r2, #0]
 8001518:	f001 fa3a 	bl	8002990 <HAL_UART_MspInit>
 800151c:	2324      	movs	r3, #36	; 0x24
 800151e:	2101      	movs	r1, #1
 8001520:	6822      	ldr	r2, [r4, #0]
 8001522:	702b      	strb	r3, [r5, #0]
 8001524:	6813      	ldr	r3, [r2, #0]
 8001526:	0020      	movs	r0, r4
 8001528:	438b      	bics	r3, r1
 800152a:	6013      	str	r3, [r2, #0]
 800152c:	f7ff fef4 	bl	8001318 <UART_SetConfig>
 8001530:	2801      	cmp	r0, #1
 8001532:	d0e6      	beq.n	8001502 <HAL_UART_Init+0x6>
 8001534:	6a63      	ldr	r3, [r4, #36]	; 0x24
 8001536:	2b00      	cmp	r3, #0
 8001538:	d002      	beq.n	8001540 <HAL_UART_Init+0x44>
 800153a:	0020      	movs	r0, r4
 800153c:	f7ff ff76 	bl	800142c <UART_AdvFeatureConfig>
 8001540:	6823      	ldr	r3, [r4, #0]
 8001542:	490b      	ldr	r1, [pc, #44]	; (8001570 <HAL_UART_Init+0x74>)
 8001544:	685a      	ldr	r2, [r3, #4]
 8001546:	2000      	movs	r0, #0
 8001548:	400a      	ands	r2, r1
 800154a:	2108      	movs	r1, #8
 800154c:	605a      	str	r2, [r3, #4]
 800154e:	689a      	ldr	r2, [r3, #8]
 8001550:	438a      	bics	r2, r1
 8001552:	609a      	str	r2, [r3, #8]
 8001554:	2201      	movs	r2, #1
 8001556:	6819      	ldr	r1, [r3, #0]
 8001558:	430a      	orrs	r2, r1
 800155a:	601a      	str	r2, [r3, #0]
 800155c:	0022      	movs	r2, r4
 800155e:	2320      	movs	r3, #32
 8001560:	66e0      	str	r0, [r4, #108]	; 0x6c
 8001562:	326a      	adds	r2, #106	; 0x6a
 8001564:	3468      	adds	r4, #104	; 0x68
 8001566:	702b      	strb	r3, [r5, #0]
 8001568:	7013      	strb	r3, [r2, #0]
 800156a:	7020      	strb	r0, [r4, #0]
 800156c:	e7ca      	b.n	8001504 <HAL_UART_Init+0x8>
 800156e:	46c0      	nop			; (mov r8, r8)
 8001570:	fffff7ff 	.word	0xfffff7ff

08001574 <CH395TCPServerStart>:
 8001574:	b537      	push	{r0, r1, r2, r4, r5, lr}
 8001576:	000d      	movs	r5, r1
 8001578:	9001      	str	r0, [sp, #4]
 800157a:	2405      	movs	r4, #5
 800157c:	f000 f88e 	bl	800169c <CH395CMDInitCH395>
 8001580:	4819      	ldr	r0, [pc, #100]	; (80015e8 <CH395TCPServerStart+0x74>)
 8001582:	f000 fa87 	bl	8001a94 <Delay_us>
 8001586:	f000 f853 	bl	8001630 <CH395CMDGetPHYStatus>
 800158a:	2801      	cmp	r0, #1
 800158c:	d105      	bne.n	800159a <CH395TCPServerStart+0x26>
 800158e:	3c01      	subs	r4, #1
 8001590:	b2e4      	uxtb	r4, r4
 8001592:	2c00      	cmp	r4, #0
 8001594:	d1f4      	bne.n	8001580 <CH395TCPServerStart+0xc>
 8001596:	0020      	movs	r0, r4
 8001598:	bd3e      	pop	{r1, r2, r3, r4, r5, pc}
 800159a:	4814      	ldr	r0, [pc, #80]	; (80015ec <CH395TCPServerStart+0x78>)
 800159c:	f000 fa7a 	bl	8001a94 <Delay_us>
 80015a0:	2001      	movs	r0, #1
 80015a2:	f000 f9fb 	bl	800199c <CH395DHCPEnable>
 80015a6:	2800      	cmp	r0, #0
 80015a8:	d005      	beq.n	80015b6 <CH395TCPServerStart+0x42>
 80015aa:	a801      	add	r0, sp, #4
 80015ac:	f000 f892 	bl	80016d4 <CH395CMDSetIPAddr>
 80015b0:	a801      	add	r0, sp, #4
 80015b2:	f000 f8a5 	bl	8001700 <CH395CMDSetGWIPAddr>
 80015b6:	2002      	movs	r0, #2
 80015b8:	f000 fa1f 	bl	80019fa <CH395SetStartPara>
 80015bc:	2400      	movs	r4, #0
 80015be:	0020      	movs	r0, r4
 80015c0:	2103      	movs	r1, #3
 80015c2:	f000 f8b3 	bl	800172c <CH395SetSocketProtType>
 80015c6:	0020      	movs	r0, r4
 80015c8:	3401      	adds	r4, #1
 80015ca:	0029      	movs	r1, r5
 80015cc:	b2e4      	uxtb	r4, r4
 80015ce:	f000 f8c3 	bl	8001758 <CH395SetSocketSourPort>
 80015d2:	2c04      	cmp	r4, #4
 80015d4:	d1f3      	bne.n	80015be <CH395TCPServerStart+0x4a>
 80015d6:	2000      	movs	r0, #0
 80015d8:	f000 f988 	bl	80018ec <CH395OpenSocket>
 80015dc:	2000      	movs	r0, #0
 80015de:	f000 f9a5 	bl	800192c <CH395TCPListen>
 80015e2:	2001      	movs	r0, #1
 80015e4:	e7d8      	b.n	8001598 <CH395TCPServerStart+0x24>
 80015e6:	46c0      	nop			; (mov r8, r8)
 80015e8:	000186a0 	.word	0x000186a0
 80015ec:	00030d40 	.word	0x00030d40

080015f0 <CH395CMDReset>:
 80015f0:	b510      	push	{r4, lr}
 80015f2:	2005      	movs	r0, #5
 80015f4:	f000 fa16 	bl	8001a24 <xWriteCH395Cmd>
 80015f8:	4b03      	ldr	r3, [pc, #12]	; (8001608 <CH395CMDReset+0x18>)
 80015fa:	2201      	movs	r2, #1
 80015fc:	8899      	ldrh	r1, [r3, #4]
 80015fe:	6818      	ldr	r0, [r3, #0]
 8001600:	f7fe ff5e 	bl	80004c0 <HAL_GPIO_WritePin>
 8001604:	bd10      	pop	{r4, pc}
 8001606:	46c0      	nop			; (mov r8, r8)
 8001608:	20000000 	.word	0x20000000

0800160c <CH395CMDGetVer>:
 800160c:	b510      	push	{r4, lr}
 800160e:	2001      	movs	r0, #1
 8001610:	f000 fa08 	bl	8001a24 <xWriteCH395Cmd>
 8001614:	f000 fa30 	bl	8001a78 <xReadCH395Data>
 8001618:	0004      	movs	r4, r0
 800161a:	4b04      	ldr	r3, [pc, #16]	; (800162c <CH395CMDGetVer+0x20>)
 800161c:	2201      	movs	r2, #1
 800161e:	6818      	ldr	r0, [r3, #0]
 8001620:	8899      	ldrh	r1, [r3, #4]
 8001622:	f7fe ff4d 	bl	80004c0 <HAL_GPIO_WritePin>
 8001626:	0020      	movs	r0, r4
 8001628:	bd10      	pop	{r4, pc}
 800162a:	46c0      	nop			; (mov r8, r8)
 800162c:	20000000 	.word	0x20000000

08001630 <CH395CMDGetPHYStatus>:
 8001630:	b510      	push	{r4, lr}
 8001632:	2026      	movs	r0, #38	; 0x26
 8001634:	f000 f9f6 	bl	8001a24 <xWriteCH395Cmd>
 8001638:	f000 fa1e 	bl	8001a78 <xReadCH395Data>
 800163c:	0004      	movs	r4, r0
 800163e:	4b04      	ldr	r3, [pc, #16]	; (8001650 <CH395CMDGetPHYStatus+0x20>)
 8001640:	2201      	movs	r2, #1
 8001642:	6818      	ldr	r0, [r3, #0]
 8001644:	8899      	ldrh	r1, [r3, #4]
 8001646:	f7fe ff3b 	bl	80004c0 <HAL_GPIO_WritePin>
 800164a:	0020      	movs	r0, r4
 800164c:	bd10      	pop	{r4, pc}
 800164e:	46c0      	nop			; (mov r8, r8)
 8001650:	20000000 	.word	0x20000000

08001654 <CH395CMDGetGlobIntStatus>:
 8001654:	b510      	push	{r4, lr}
 8001656:	2029      	movs	r0, #41	; 0x29
 8001658:	f000 f9e4 	bl	8001a24 <xWriteCH395Cmd>
 800165c:	f000 fa0c 	bl	8001a78 <xReadCH395Data>
 8001660:	0004      	movs	r4, r0
 8001662:	4b04      	ldr	r3, [pc, #16]	; (8001674 <CH395CMDGetGlobIntStatus+0x20>)
 8001664:	2201      	movs	r2, #1
 8001666:	6818      	ldr	r0, [r3, #0]
 8001668:	8899      	ldrh	r1, [r3, #4]
 800166a:	f7fe ff29 	bl	80004c0 <HAL_GPIO_WritePin>
 800166e:	0020      	movs	r0, r4
 8001670:	bd10      	pop	{r4, pc}
 8001672:	46c0      	nop			; (mov r8, r8)
 8001674:	20000000 	.word	0x20000000

08001678 <CH395GetCmdStatus>:
 8001678:	b510      	push	{r4, lr}
 800167a:	202c      	movs	r0, #44	; 0x2c
 800167c:	f000 f9d2 	bl	8001a24 <xWriteCH395Cmd>
 8001680:	f000 f9fa 	bl	8001a78 <xReadCH395Data>
 8001684:	0004      	movs	r4, r0
 8001686:	4b04      	ldr	r3, [pc, #16]	; (8001698 <CH395GetCmdStatus+0x20>)
 8001688:	2201      	movs	r2, #1
 800168a:	6818      	ldr	r0, [r3, #0]
 800168c:	8899      	ldrh	r1, [r3, #4]
 800168e:	f7fe ff17 	bl	80004c0 <HAL_GPIO_WritePin>
 8001692:	0020      	movs	r0, r4
 8001694:	bd10      	pop	{r4, pc}
 8001696:	46c0      	nop			; (mov r8, r8)
 8001698:	20000000 	.word	0x20000000

0800169c <CH395CMDInitCH395>:
 800169c:	b510      	push	{r4, lr}
 800169e:	2027      	movs	r0, #39	; 0x27
 80016a0:	f000 f9c0 	bl	8001a24 <xWriteCH395Cmd>
 80016a4:	4b09      	ldr	r3, [pc, #36]	; (80016cc <CH395CMDInitCH395+0x30>)
 80016a6:	2201      	movs	r2, #1
 80016a8:	8899      	ldrh	r1, [r3, #4]
 80016aa:	6818      	ldr	r0, [r3, #0]
 80016ac:	f7fe ff08 	bl	80004c0 <HAL_GPIO_WritePin>
 80016b0:	24ca      	movs	r4, #202	; 0xca
 80016b2:	4807      	ldr	r0, [pc, #28]	; (80016d0 <CH395CMDInitCH395+0x34>)
 80016b4:	f000 f9ee 	bl	8001a94 <Delay_us>
 80016b8:	f7ff ffde 	bl	8001678 <CH395GetCmdStatus>
 80016bc:	2810      	cmp	r0, #16
 80016be:	d104      	bne.n	80016ca <CH395CMDInitCH395+0x2e>
 80016c0:	3c01      	subs	r4, #1
 80016c2:	b2e4      	uxtb	r4, r4
 80016c4:	2c00      	cmp	r4, #0
 80016c6:	d1f4      	bne.n	80016b2 <CH395CMDInitCH395+0x16>
 80016c8:	30ea      	adds	r0, #234	; 0xea
 80016ca:	bd10      	pop	{r4, pc}
 80016cc:	20000000 	.word	0x20000000
 80016d0:	00002710 	.word	0x00002710

080016d4 <CH395CMDSetIPAddr>:
 80016d4:	b570      	push	{r4, r5, r6, lr}
 80016d6:	0004      	movs	r4, r0
 80016d8:	2022      	movs	r0, #34	; 0x22
 80016da:	f000 f9a3 	bl	8001a24 <xWriteCH395Cmd>
 80016de:	1d25      	adds	r5, r4, #4
 80016e0:	7820      	ldrb	r0, [r4, #0]
 80016e2:	3401      	adds	r4, #1
 80016e4:	f000 f9bc 	bl	8001a60 <xWriteCH395Data>
 80016e8:	42ac      	cmp	r4, r5
 80016ea:	d1f9      	bne.n	80016e0 <CH395CMDSetIPAddr+0xc>
 80016ec:	4b03      	ldr	r3, [pc, #12]	; (80016fc <CH395CMDSetIPAddr+0x28>)
 80016ee:	2201      	movs	r2, #1
 80016f0:	8899      	ldrh	r1, [r3, #4]
 80016f2:	6818      	ldr	r0, [r3, #0]
 80016f4:	f7fe fee4 	bl	80004c0 <HAL_GPIO_WritePin>
 80016f8:	bd70      	pop	{r4, r5, r6, pc}
 80016fa:	46c0      	nop			; (mov r8, r8)
 80016fc:	20000000 	.word	0x20000000

08001700 <CH395CMDSetGWIPAddr>:
 8001700:	b570      	push	{r4, r5, r6, lr}
 8001702:	0004      	movs	r4, r0
 8001704:	2023      	movs	r0, #35	; 0x23
 8001706:	f000 f98d 	bl	8001a24 <xWriteCH395Cmd>
 800170a:	1d25      	adds	r5, r4, #4
 800170c:	7820      	ldrb	r0, [r4, #0]
 800170e:	3401      	adds	r4, #1
 8001710:	f000 f9a6 	bl	8001a60 <xWriteCH395Data>
 8001714:	42ac      	cmp	r4, r5
 8001716:	d1f9      	bne.n	800170c <CH395CMDSetGWIPAddr+0xc>
 8001718:	4b03      	ldr	r3, [pc, #12]	; (8001728 <CH395CMDSetGWIPAddr+0x28>)
 800171a:	2201      	movs	r2, #1
 800171c:	8899      	ldrh	r1, [r3, #4]
 800171e:	6818      	ldr	r0, [r3, #0]
 8001720:	f7fe fece 	bl	80004c0 <HAL_GPIO_WritePin>
 8001724:	bd70      	pop	{r4, r5, r6, pc}
 8001726:	46c0      	nop			; (mov r8, r8)
 8001728:	20000000 	.word	0x20000000

0800172c <CH395SetSocketProtType>:
 800172c:	b570      	push	{r4, r5, r6, lr}
 800172e:	0005      	movs	r5, r0
 8001730:	000c      	movs	r4, r1
 8001732:	2034      	movs	r0, #52	; 0x34
 8001734:	f000 f976 	bl	8001a24 <xWriteCH395Cmd>
 8001738:	0028      	movs	r0, r5
 800173a:	f000 f991 	bl	8001a60 <xWriteCH395Data>
 800173e:	0020      	movs	r0, r4
 8001740:	f000 f98e 	bl	8001a60 <xWriteCH395Data>
 8001744:	4b03      	ldr	r3, [pc, #12]	; (8001754 <CH395SetSocketProtType+0x28>)
 8001746:	2201      	movs	r2, #1
 8001748:	8899      	ldrh	r1, [r3, #4]
 800174a:	6818      	ldr	r0, [r3, #0]
 800174c:	f7fe feb8 	bl	80004c0 <HAL_GPIO_WritePin>
 8001750:	bd70      	pop	{r4, r5, r6, pc}
 8001752:	46c0      	nop			; (mov r8, r8)
 8001754:	20000000 	.word	0x20000000

08001758 <CH395SetSocketSourPort>:
 8001758:	b570      	push	{r4, r5, r6, lr}
 800175a:	0005      	movs	r5, r0
 800175c:	000c      	movs	r4, r1
 800175e:	2033      	movs	r0, #51	; 0x33
 8001760:	f000 f960 	bl	8001a24 <xWriteCH395Cmd>
 8001764:	0028      	movs	r0, r5
 8001766:	f000 f97b 	bl	8001a60 <xWriteCH395Data>
 800176a:	b2e0      	uxtb	r0, r4
 800176c:	f000 f978 	bl	8001a60 <xWriteCH395Data>
 8001770:	0a20      	lsrs	r0, r4, #8
 8001772:	f000 f975 	bl	8001a60 <xWriteCH395Data>
 8001776:	4b03      	ldr	r3, [pc, #12]	; (8001784 <CH395SetSocketSourPort+0x2c>)
 8001778:	2201      	movs	r2, #1
 800177a:	8899      	ldrh	r1, [r3, #4]
 800177c:	6818      	ldr	r0, [r3, #0]
 800177e:	f7fe fe9f 	bl	80004c0 <HAL_GPIO_WritePin>
 8001782:	bd70      	pop	{r4, r5, r6, pc}
 8001784:	20000000 	.word	0x20000000

08001788 <CH395SendData>:
 8001788:	b5f8      	push	{r3, r4, r5, r6, r7, lr}
 800178a:	2601      	movs	r6, #1
 800178c:	0007      	movs	r7, r0
 800178e:	000c      	movs	r4, r1
 8001790:	0015      	movs	r5, r2
 8001792:	4086      	lsls	r6, r0
 8001794:	4b15      	ldr	r3, [pc, #84]	; (80017ec <CH395SendData+0x64>)
 8001796:	789a      	ldrb	r2, [r3, #2]
 8001798:	4216      	tst	r6, r2
 800179a:	d01b      	beq.n	80017d4 <CH395SendData+0x4c>
 800179c:	789a      	ldrb	r2, [r3, #2]
 800179e:	2039      	movs	r0, #57	; 0x39
 80017a0:	43b2      	bics	r2, r6
 80017a2:	709a      	strb	r2, [r3, #2]
 80017a4:	f000 f93e 	bl	8001a24 <xWriteCH395Cmd>
 80017a8:	0038      	movs	r0, r7
 80017aa:	f000 f959 	bl	8001a60 <xWriteCH395Data>
 80017ae:	b2e8      	uxtb	r0, r5
 80017b0:	f000 f956 	bl	8001a60 <xWriteCH395Data>
 80017b4:	0a28      	lsrs	r0, r5, #8
 80017b6:	f000 f953 	bl	8001a60 <xWriteCH395Data>
 80017ba:	2002      	movs	r0, #2
 80017bc:	f000 f96a 	bl	8001a94 <Delay_us>
 80017c0:	1965      	adds	r5, r4, r5
 80017c2:	42a5      	cmp	r5, r4
 80017c4:	d10c      	bne.n	80017e0 <CH395SendData+0x58>
 80017c6:	4b0a      	ldr	r3, [pc, #40]	; (80017f0 <CH395SendData+0x68>)
 80017c8:	2201      	movs	r2, #1
 80017ca:	8899      	ldrh	r1, [r3, #4]
 80017cc:	6818      	ldr	r0, [r3, #0]
 80017ce:	f7fe fe77 	bl	80004c0 <HAL_GPIO_WritePin>
 80017d2:	bdf8      	pop	{r3, r4, r5, r6, r7, pc}
 80017d4:	4807      	ldr	r0, [pc, #28]	; (80017f4 <CH395SendData+0x6c>)
 80017d6:	f000 f95d 	bl	8001a94 <Delay_us>
 80017da:	f7ff ff17 	bl	800160c <CH395CMDGetVer>
 80017de:	e7d9      	b.n	8001794 <CH395SendData+0xc>
 80017e0:	7820      	ldrb	r0, [r4, #0]
 80017e2:	f000 f93d 	bl	8001a60 <xWriteCH395Data>
 80017e6:	3401      	adds	r4, #1
 80017e8:	e7eb      	b.n	80017c2 <CH395SendData+0x3a>
 80017ea:	46c0      	nop			; (mov r8, r8)
 80017ec:	20000008 	.word	0x20000008
 80017f0:	20000000 	.word	0x20000000
 80017f4:	00002710 	.word	0x00002710

080017f8 <CH395StartSendingData>:
 80017f8:	b570      	push	{r4, r5, r6, lr}
 80017fa:	0005      	movs	r5, r0
 80017fc:	000c      	movs	r4, r1
 80017fe:	2039      	movs	r0, #57	; 0x39
 8001800:	f000 f910 	bl	8001a24 <xWriteCH395Cmd>
 8001804:	0028      	movs	r0, r5
 8001806:	f000 f92b 	bl	8001a60 <xWriteCH395Data>
 800180a:	b2e0      	uxtb	r0, r4
 800180c:	f000 f928 	bl	8001a60 <xWriteCH395Data>
 8001810:	0a20      	lsrs	r0, r4, #8
 8001812:	f000 f925 	bl	8001a60 <xWriteCH395Data>
 8001816:	2002      	movs	r0, #2
 8001818:	f000 f93c 	bl	8001a94 <Delay_us>
 800181c:	bd70      	pop	{r4, r5, r6, pc}

0800181e <CH395ContinueSendingData>:
 800181e:	b570      	push	{r4, r5, r6, lr}
 8001820:	0004      	movs	r4, r0
 8001822:	1845      	adds	r5, r0, r1
 8001824:	42ac      	cmp	r4, r5
 8001826:	d100      	bne.n	800182a <CH395ContinueSendingData+0xc>
 8001828:	bd70      	pop	{r4, r5, r6, pc}
 800182a:	7820      	ldrb	r0, [r4, #0]
 800182c:	f000 f918 	bl	8001a60 <xWriteCH395Data>
 8001830:	3401      	adds	r4, #1
 8001832:	e7f7      	b.n	8001824 <CH395ContinueSendingData+0x6>

08001834 <CH395Complete>:
 8001834:	b510      	push	{r4, lr}
 8001836:	4b03      	ldr	r3, [pc, #12]	; (8001844 <CH395Complete+0x10>)
 8001838:	2201      	movs	r2, #1
 800183a:	8899      	ldrh	r1, [r3, #4]
 800183c:	6818      	ldr	r0, [r3, #0]
 800183e:	f7fe fe3f 	bl	80004c0 <HAL_GPIO_WritePin>
 8001842:	bd10      	pop	{r4, pc}
 8001844:	20000000 	.word	0x20000000

08001848 <CH395GetRecvLength>:
 8001848:	b510      	push	{r4, lr}
 800184a:	0004      	movs	r4, r0
 800184c:	203b      	movs	r0, #59	; 0x3b
 800184e:	f000 f8e9 	bl	8001a24 <xWriteCH395Cmd>
 8001852:	0020      	movs	r0, r4
 8001854:	f000 f904 	bl	8001a60 <xWriteCH395Data>
 8001858:	f000 f90e 	bl	8001a78 <xReadCH395Data>
 800185c:	b284      	uxth	r4, r0
 800185e:	f000 f90b 	bl	8001a78 <xReadCH395Data>
 8001862:	4b05      	ldr	r3, [pc, #20]	; (8001878 <CH395GetRecvLength+0x30>)
 8001864:	0200      	lsls	r0, r0, #8
 8001866:	1824      	adds	r4, r4, r0
 8001868:	b2a4      	uxth	r4, r4
 800186a:	6818      	ldr	r0, [r3, #0]
 800186c:	8899      	ldrh	r1, [r3, #4]
 800186e:	2201      	movs	r2, #1
 8001870:	f7fe fe26 	bl	80004c0 <HAL_GPIO_WritePin>
 8001874:	0020      	movs	r0, r4
 8001876:	bd10      	pop	{r4, pc}
 8001878:	20000000 	.word	0x20000000

0800187c <CH395ClearRecvBuf>:
 800187c:	b510      	push	{r4, lr}
 800187e:	0004      	movs	r4, r0
 8001880:	202e      	movs	r0, #46	; 0x2e
 8001882:	f000 f8cf 	bl	8001a24 <xWriteCH395Cmd>
 8001886:	0020      	movs	r0, r4
 8001888:	f000 f8ea 	bl	8001a60 <xWriteCH395Data>
 800188c:	4b03      	ldr	r3, [pc, #12]	; (800189c <CH395ClearRecvBuf+0x20>)
 800188e:	2201      	movs	r2, #1
 8001890:	8899      	ldrh	r1, [r3, #4]
 8001892:	6818      	ldr	r0, [r3, #0]
 8001894:	f7fe fe14 	bl	80004c0 <HAL_GPIO_WritePin>
 8001898:	bd10      	pop	{r4, pc}
 800189a:	46c0      	nop			; (mov r8, r8)
 800189c:	20000000 	.word	0x20000000

080018a0 <CH395GetRecvData>:
 80018a0:	b570      	push	{r4, r5, r6, lr}
 80018a2:	0006      	movs	r6, r0
 80018a4:	000c      	movs	r4, r1
 80018a6:	0015      	movs	r5, r2
 80018a8:	2900      	cmp	r1, #0
 80018aa:	d017      	beq.n	80018dc <CH395GetRecvData+0x3c>
 80018ac:	203c      	movs	r0, #60	; 0x3c
 80018ae:	f000 f8b9 	bl	8001a24 <xWriteCH395Cmd>
 80018b2:	0030      	movs	r0, r6
 80018b4:	f000 f8d4 	bl	8001a60 <xWriteCH395Data>
 80018b8:	b2e0      	uxtb	r0, r4
 80018ba:	f000 f8d1 	bl	8001a60 <xWriteCH395Data>
 80018be:	0a20      	lsrs	r0, r4, #8
 80018c0:	f000 f8ce 	bl	8001a60 <xWriteCH395Data>
 80018c4:	2001      	movs	r0, #1
 80018c6:	f000 f8e5 	bl	8001a94 <Delay_us>
 80018ca:	192c      	adds	r4, r5, r4
 80018cc:	42a5      	cmp	r5, r4
 80018ce:	d106      	bne.n	80018de <CH395GetRecvData+0x3e>
 80018d0:	4b05      	ldr	r3, [pc, #20]	; (80018e8 <CH395GetRecvData+0x48>)
 80018d2:	2201      	movs	r2, #1
 80018d4:	8899      	ldrh	r1, [r3, #4]
 80018d6:	6818      	ldr	r0, [r3, #0]
 80018d8:	f7fe fdf2 	bl	80004c0 <HAL_GPIO_WritePin>
 80018dc:	bd70      	pop	{r4, r5, r6, pc}
 80018de:	f000 f8cb 	bl	8001a78 <xReadCH395Data>
 80018e2:	7028      	strb	r0, [r5, #0]
 80018e4:	3501      	adds	r5, #1
 80018e6:	e7f1      	b.n	80018cc <CH395GetRecvData+0x2c>
 80018e8:	20000000 	.word	0x20000000

080018ec <CH395OpenSocket>:
 80018ec:	b510      	push	{r4, lr}
 80018ee:	0004      	movs	r4, r0
 80018f0:	2035      	movs	r0, #53	; 0x35
 80018f2:	f000 f897 	bl	8001a24 <xWriteCH395Cmd>
 80018f6:	0020      	movs	r0, r4
 80018f8:	f000 f8b2 	bl	8001a60 <xWriteCH395Data>
 80018fc:	4b09      	ldr	r3, [pc, #36]	; (8001924 <CH395OpenSocket+0x38>)
 80018fe:	2201      	movs	r2, #1
 8001900:	8899      	ldrh	r1, [r3, #4]
 8001902:	6818      	ldr	r0, [r3, #0]
 8001904:	f7fe fddc 	bl	80004c0 <HAL_GPIO_WritePin>
 8001908:	24ca      	movs	r4, #202	; 0xca
 800190a:	4807      	ldr	r0, [pc, #28]	; (8001928 <CH395OpenSocket+0x3c>)
 800190c:	f000 f8c2 	bl	8001a94 <Delay_us>
 8001910:	f7ff feb2 	bl	8001678 <CH395GetCmdStatus>
 8001914:	2810      	cmp	r0, #16
 8001916:	d104      	bne.n	8001922 <CH395OpenSocket+0x36>
 8001918:	3c01      	subs	r4, #1
 800191a:	b2e4      	uxtb	r4, r4
 800191c:	2c00      	cmp	r4, #0
 800191e:	d1f4      	bne.n	800190a <CH395OpenSocket+0x1e>
 8001920:	30ea      	adds	r0, #234	; 0xea
 8001922:	bd10      	pop	{r4, pc}
 8001924:	20000000 	.word	0x20000000
 8001928:	00001388 	.word	0x00001388

0800192c <CH395TCPListen>:
 800192c:	b510      	push	{r4, lr}
 800192e:	0004      	movs	r4, r0
 8001930:	2036      	movs	r0, #54	; 0x36
 8001932:	f000 f877 	bl	8001a24 <xWriteCH395Cmd>
 8001936:	0020      	movs	r0, r4
 8001938:	f000 f892 	bl	8001a60 <xWriteCH395Data>
 800193c:	4b09      	ldr	r3, [pc, #36]	; (8001964 <CH395TCPListen+0x38>)
 800193e:	2201      	movs	r2, #1
 8001940:	8899      	ldrh	r1, [r3, #4]
 8001942:	6818      	ldr	r0, [r3, #0]
 8001944:	f7fe fdbc 	bl	80004c0 <HAL_GPIO_WritePin>
 8001948:	24ca      	movs	r4, #202	; 0xca
 800194a:	4807      	ldr	r0, [pc, #28]	; (8001968 <CH395TCPListen+0x3c>)
 800194c:	f000 f8a2 	bl	8001a94 <Delay_us>
 8001950:	f7ff fe92 	bl	8001678 <CH395GetCmdStatus>
 8001954:	2810      	cmp	r0, #16
 8001956:	d104      	bne.n	8001962 <CH395TCPListen+0x36>
 8001958:	3c01      	subs	r4, #1
 800195a:	b2e4      	uxtb	r4, r4
 800195c:	2c00      	cmp	r4, #0
 800195e:	d1f4      	bne.n	800194a <CH395TCPListen+0x1e>
 8001960:	30ea      	adds	r0, #234	; 0xea
 8001962:	bd10      	pop	{r4, pc}
 8001964:	20000000 	.word	0x20000000
 8001968:	00001388 	.word	0x00001388

0800196c <CH395GetSocketInt>:
 800196c:	b510      	push	{r4, lr}
 800196e:	0004      	movs	r4, r0
 8001970:	2030      	movs	r0, #48	; 0x30
 8001972:	f000 f857 	bl	8001a24 <xWriteCH395Cmd>
 8001976:	0020      	movs	r0, r4
 8001978:	f000 f872 	bl	8001a60 <xWriteCH395Data>
 800197c:	2002      	movs	r0, #2
 800197e:	f000 f889 	bl	8001a94 <Delay_us>
 8001982:	f000 f879 	bl	8001a78 <xReadCH395Data>
 8001986:	0004      	movs	r4, r0
 8001988:	4b03      	ldr	r3, [pc, #12]	; (8001998 <CH395GetSocketInt+0x2c>)
 800198a:	2201      	movs	r2, #1
 800198c:	6818      	ldr	r0, [r3, #0]
 800198e:	8899      	ldrh	r1, [r3, #4]
 8001990:	f7fe fd96 	bl	80004c0 <HAL_GPIO_WritePin>
 8001994:	0020      	movs	r0, r4
 8001996:	bd10      	pop	{r4, pc}
 8001998:	20000000 	.word	0x20000000

0800199c <CH395DHCPEnable>:
 800199c:	b510      	push	{r4, lr}
 800199e:	0004      	movs	r4, r0
 80019a0:	2041      	movs	r0, #65	; 0x41
 80019a2:	f000 f83f 	bl	8001a24 <xWriteCH395Cmd>
 80019a6:	0020      	movs	r0, r4
 80019a8:	f000 f85a 	bl	8001a60 <xWriteCH395Data>
 80019ac:	4b09      	ldr	r3, [pc, #36]	; (80019d4 <CH395DHCPEnable+0x38>)
 80019ae:	2201      	movs	r2, #1
 80019b0:	8899      	ldrh	r1, [r3, #4]
 80019b2:	6818      	ldr	r0, [r3, #0]
 80019b4:	f7fe fd84 	bl	80004c0 <HAL_GPIO_WritePin>
 80019b8:	24ca      	movs	r4, #202	; 0xca
 80019ba:	4807      	ldr	r0, [pc, #28]	; (80019d8 <CH395DHCPEnable+0x3c>)
 80019bc:	f000 f86a 	bl	8001a94 <Delay_us>
 80019c0:	f7ff fe5a 	bl	8001678 <CH395GetCmdStatus>
 80019c4:	2810      	cmp	r0, #16
 80019c6:	d104      	bne.n	80019d2 <CH395DHCPEnable+0x36>
 80019c8:	3c01      	subs	r4, #1
 80019ca:	b2e4      	uxtb	r4, r4
 80019cc:	2c00      	cmp	r4, #0
 80019ce:	d1f4      	bne.n	80019ba <CH395DHCPEnable+0x1e>
 80019d0:	30ea      	adds	r0, #234	; 0xea
 80019d2:	bd10      	pop	{r4, pc}
 80019d4:	20000000 	.word	0x20000000
 80019d8:	00004e20 	.word	0x00004e20

080019dc <CH395ReadGPIOAddr>:
 80019dc:	b510      	push	{r4, lr}
 80019de:	0004      	movs	r4, r0
 80019e0:	20ec      	movs	r0, #236	; 0xec
 80019e2:	f000 f81f 	bl	8001a24 <xWriteCH395Cmd>
 80019e6:	0020      	movs	r0, r4
 80019e8:	f000 f83a 	bl	8001a60 <xWriteCH395Data>
 80019ec:	20fa      	movs	r0, #250	; 0xfa
 80019ee:	0080      	lsls	r0, r0, #2
 80019f0:	f000 f850 	bl	8001a94 <Delay_us>
 80019f4:	f000 f840 	bl	8001a78 <xReadCH395Data>
 80019f8:	bd10      	pop	{r4, pc}

080019fa <CH395SetStartPara>:
 80019fa:	b510      	push	{r4, lr}
 80019fc:	0004      	movs	r4, r0
 80019fe:	2055      	movs	r0, #85	; 0x55
 8001a00:	f000 f810 	bl	8001a24 <xWriteCH395Cmd>
 8001a04:	b2e0      	uxtb	r0, r4
 8001a06:	f000 f82b 	bl	8001a60 <xWriteCH395Data>
 8001a0a:	b2a0      	uxth	r0, r4
 8001a0c:	0a00      	lsrs	r0, r0, #8
 8001a0e:	f000 f827 	bl	8001a60 <xWriteCH395Data>
 8001a12:	0c20      	lsrs	r0, r4, #16
 8001a14:	b2c0      	uxtb	r0, r0
 8001a16:	f000 f823 	bl	8001a60 <xWriteCH395Data>
 8001a1a:	0e20      	lsrs	r0, r4, #24
 8001a1c:	f000 f820 	bl	8001a60 <xWriteCH395Data>
 8001a20:	bd10      	pop	{r4, pc}
	...

08001a24 <xWriteCH395Cmd>:
 8001a24:	b537      	push	{r0, r1, r2, r4, r5, lr}
 8001a26:	466b      	mov	r3, sp
 8001a28:	4c0b      	ldr	r4, [pc, #44]	; (8001a58 <xWriteCH395Cmd+0x34>)
 8001a2a:	71d8      	strb	r0, [r3, #7]
 8001a2c:	88a1      	ldrh	r1, [r4, #4]
 8001a2e:	6820      	ldr	r0, [r4, #0]
 8001a30:	2201      	movs	r2, #1
 8001a32:	1ddd      	adds	r5, r3, #7
 8001a34:	f7fe fd44 	bl	80004c0 <HAL_GPIO_WritePin>
 8001a38:	88a1      	ldrh	r1, [r4, #4]
 8001a3a:	6820      	ldr	r0, [r4, #0]
 8001a3c:	2200      	movs	r2, #0
 8001a3e:	f7fe fd3f 	bl	80004c0 <HAL_GPIO_WritePin>
 8001a42:	0029      	movs	r1, r5
 8001a44:	2364      	movs	r3, #100	; 0x64
 8001a46:	2201      	movs	r2, #1
 8001a48:	4804      	ldr	r0, [pc, #16]	; (8001a5c <xWriteCH395Cmd+0x38>)
 8001a4a:	f7ff f9bd 	bl	8000dc8 <HAL_SPI_Transmit>
 8001a4e:	2002      	movs	r0, #2
 8001a50:	f000 f820 	bl	8001a94 <Delay_us>
 8001a54:	bd37      	pop	{r0, r1, r2, r4, r5, pc}
 8001a56:	46c0      	nop			; (mov r8, r8)
 8001a58:	20000000 	.word	0x20000000
 8001a5c:	200008ec 	.word	0x200008ec

08001a60 <xWriteCH395Data>:
 8001a60:	b507      	push	{r0, r1, r2, lr}
 8001a62:	466b      	mov	r3, sp
 8001a64:	1dd9      	adds	r1, r3, #7
 8001a66:	7008      	strb	r0, [r1, #0]
 8001a68:	2364      	movs	r3, #100	; 0x64
 8001a6a:	2201      	movs	r2, #1
 8001a6c:	4801      	ldr	r0, [pc, #4]	; (8001a74 <xWriteCH395Data+0x14>)
 8001a6e:	f7ff f9ab 	bl	8000dc8 <HAL_SPI_Transmit>
 8001a72:	bd07      	pop	{r0, r1, r2, pc}
 8001a74:	200008ec 	.word	0x200008ec

08001a78 <xReadCH395Data>:
 8001a78:	b513      	push	{r0, r1, r4, lr}
 8001a7a:	466b      	mov	r3, sp
 8001a7c:	1ddc      	adds	r4, r3, #7
 8001a7e:	2201      	movs	r2, #1
 8001a80:	2364      	movs	r3, #100	; 0x64
 8001a82:	0021      	movs	r1, r4
 8001a84:	4802      	ldr	r0, [pc, #8]	; (8001a90 <xReadCH395Data+0x18>)
 8001a86:	f7ff fb91 	bl	80011ac <HAL_SPI_Receive>
 8001a8a:	7820      	ldrb	r0, [r4, #0]
 8001a8c:	bd16      	pop	{r1, r2, r4, pc}
 8001a8e:	46c0      	nop			; (mov r8, r8)
 8001a90:	200008ec 	.word	0x200008ec

08001a94 <Delay_us>:
 8001a94:	2200      	movs	r2, #0
 8001a96:	4b07      	ldr	r3, [pc, #28]	; (8001ab4 <Delay_us+0x20>)
 8001a98:	00c0      	lsls	r0, r0, #3
 8001a9a:	6058      	str	r0, [r3, #4]
 8001a9c:	4906      	ldr	r1, [pc, #24]	; (8001ab8 <Delay_us+0x24>)
 8001a9e:	609a      	str	r2, [r3, #8]
 8001aa0:	3201      	adds	r2, #1
 8001aa2:	601a      	str	r2, [r3, #0]
 8001aa4:	681a      	ldr	r2, [r3, #0]
 8001aa6:	400a      	ands	r2, r1
 8001aa8:	2a01      	cmp	r2, #1
 8001aaa:	d0fb      	beq.n	8001aa4 <Delay_us+0x10>
 8001aac:	2200      	movs	r2, #0
 8001aae:	601a      	str	r2, [r3, #0]
 8001ab0:	609a      	str	r2, [r3, #8]
 8001ab2:	4770      	bx	lr
 8001ab4:	e000e010 	.word	0xe000e010
 8001ab8:	00010001 	.word	0x00010001

08001abc <FS_begin>:
 8001abc:	4b05      	ldr	r3, [pc, #20]	; (8001ad4 <FS_begin+0x18>)
 8001abe:	4299      	cmp	r1, r3
 8001ac0:	d901      	bls.n	8001ac6 <FS_begin+0xa>
 8001ac2:	2000      	movs	r0, #0
 8001ac4:	4770      	bx	lr
 8001ac6:	680b      	ldr	r3, [r1, #0]
 8001ac8:	6043      	str	r3, [r0, #4]
 8001aca:	3301      	adds	r3, #1
 8001acc:	d0f9      	beq.n	8001ac2 <FS_begin+0x6>
 8001ace:	6001      	str	r1, [r0, #0]
 8001ad0:	2001      	movs	r0, #1
 8001ad2:	e7f7      	b.n	8001ac4 <FS_begin+0x8>
 8001ad4:	08003fff 	.word	0x08003fff

08001ad8 <FS_open>:
 8001ad8:	b5f0      	push	{r4, r5, r6, r7, lr}
 8001ada:	c9c0      	ldmia	r1!, {r6, r7}
 8001adc:	0005      	movs	r5, r0
 8001ade:	b085      	sub	sp, #20
 8001ae0:	9203      	str	r2, [sp, #12]
 8001ae2:	9602      	str	r6, [sp, #8]
 8001ae4:	3604      	adds	r6, #4
 8001ae6:	9b02      	ldr	r3, [sp, #8]
 8001ae8:	6832      	ldr	r2, [r6, #0]
 8001aea:	9803      	ldr	r0, [sp, #12]
 8001aec:	189c      	adds	r4, r3, r2
 8001aee:	0023      	movs	r3, r4
 8001af0:	3308      	adds	r3, #8
 8001af2:	0019      	movs	r1, r3
 8001af4:	3f01      	subs	r7, #1
 8001af6:	9301      	str	r3, [sp, #4]
 8001af8:	f7fe fb06 	bl	8000108 <strcmp>
 8001afc:	2800      	cmp	r0, #0
 8001afe:	d10b      	bne.n	8001b18 <FS_open+0x40>
 8001b00:	6862      	ldr	r2, [r4, #4]
 8001b02:	9b02      	ldr	r3, [sp, #8]
 8001b04:	4694      	mov	ip, r2
 8001b06:	6822      	ldr	r2, [r4, #0]
 8001b08:	4463      	add	r3, ip
 8001b0a:	0028      	movs	r0, r5
 8001b0c:	9901      	ldr	r1, [sp, #4]
 8001b0e:	606b      	str	r3, [r5, #4]
 8001b10:	6029      	str	r1, [r5, #0]
 8001b12:	60aa      	str	r2, [r5, #8]
 8001b14:	b005      	add	sp, #20
 8001b16:	bdf0      	pop	{r4, r5, r6, r7, pc}
 8001b18:	2f00      	cmp	r7, #0
 8001b1a:	dce3      	bgt.n	8001ae4 <FS_open+0xc>
 8001b1c:	2200      	movs	r2, #0
 8001b1e:	0013      	movs	r3, r2
 8001b20:	9201      	str	r2, [sp, #4]
 8001b22:	e7f2      	b.n	8001b0a <FS_open+0x32>

08001b24 <FS_exists>:
 8001b24:	b5f7      	push	{r0, r1, r2, r4, r5, r6, r7, lr}
 8001b26:	6804      	ldr	r4, [r0, #0]
 8001b28:	000f      	movs	r7, r1
 8001b2a:	0026      	movs	r6, r4
 8001b2c:	2500      	movs	r5, #0
 8001b2e:	6843      	ldr	r3, [r0, #4]
 8001b30:	9301      	str	r3, [sp, #4]
 8001b32:	9b01      	ldr	r3, [sp, #4]
 8001b34:	42ab      	cmp	r3, r5
 8001b36:	d101      	bne.n	8001b3c <FS_exists+0x18>
 8001b38:	2000      	movs	r0, #0
 8001b3a:	bdfe      	pop	{r1, r2, r3, r4, r5, r6, r7, pc}
 8001b3c:	3404      	adds	r4, #4
 8001b3e:	6821      	ldr	r1, [r4, #0]
 8001b40:	0038      	movs	r0, r7
 8001b42:	3108      	adds	r1, #8
 8001b44:	1989      	adds	r1, r1, r6
 8001b46:	f7fe fadf 	bl	8000108 <strcmp>
 8001b4a:	2800      	cmp	r0, #0
 8001b4c:	d001      	beq.n	8001b52 <FS_exists+0x2e>
 8001b4e:	3501      	adds	r5, #1
 8001b50:	e7ef      	b.n	8001b32 <FS_exists+0xe>
 8001b52:	2001      	movs	r0, #1
 8001b54:	e7f1      	b.n	8001b3a <FS_exists+0x16>
	...

08001b58 <onHome>:
 8001b58:	b510      	push	{r4, lr}
 8001b5a:	0004      	movs	r4, r0
 8001b5c:	4903      	ldr	r1, [pc, #12]	; (8001b6c <onHome+0x14>)
 8001b5e:	3005      	adds	r0, #5
 8001b60:	f000 ffef 	bl	8002b42 <strcat>
 8001b64:	0020      	movs	r0, r4
 8001b66:	f000 fb5d 	bl	8002224 <HTTPonNotFound>
 8001b6a:	bd10      	pop	{r4, pc}
 8001b6c:	08002dcb 	.word	0x08002dcb

08001b70 <onSwitch>:
 8001b70:	b570      	push	{r4, r5, r6, lr}
 8001b72:	4913      	ldr	r1, [pc, #76]	; (8001bc0 <onSwitch+0x50>)
 8001b74:	0004      	movs	r4, r0
 8001b76:	f000 f9d3 	bl	8001f20 <getHTTPArg>
 8001b7a:	4912      	ldr	r1, [pc, #72]	; (8001bc4 <onSwitch+0x54>)
 8001b7c:	0005      	movs	r5, r0
 8001b7e:	0020      	movs	r0, r4
 8001b80:	f000 f9ce 	bl	8001f20 <getHTTPArg>
 8001b84:	0006      	movs	r6, r0
 8001b86:	2d00      	cmp	r5, #0
 8001b88:	d016      	beq.n	8001bb8 <onSwitch+0x48>
 8001b8a:	2800      	cmp	r0, #0
 8001b8c:	d014      	beq.n	8001bb8 <onSwitch+0x48>
 8001b8e:	0028      	movs	r0, r5
 8001b90:	f000 f9e7 	bl	8001f62 <atou8>
 8001b94:	0005      	movs	r5, r0
 8001b96:	0030      	movs	r0, r6
 8001b98:	f000 f9e3 	bl	8001f62 <atou8>
 8001b9c:	0001      	movs	r1, r0
 8001b9e:	2d06      	cmp	r5, #6
 8001ba0:	d80a      	bhi.n	8001bb8 <onSwitch+0x48>
 8001ba2:	2806      	cmp	r0, #6
 8001ba4:	d808      	bhi.n	8001bb8 <onSwitch+0x48>
 8001ba6:	0028      	movs	r0, r5
 8001ba8:	f000 fe46 	bl	8002838 <switch_Antenna>
 8001bac:	21c8      	movs	r1, #200	; 0xc8
 8001bae:	4a06      	ldr	r2, [pc, #24]	; (8001bc8 <onSwitch+0x58>)
 8001bb0:	0020      	movs	r0, r4
 8001bb2:	f000 fab9 	bl	8002128 <HTTPSendStr>
 8001bb6:	bd70      	pop	{r4, r5, r6, pc}
 8001bb8:	2196      	movs	r1, #150	; 0x96
 8001bba:	4a04      	ldr	r2, [pc, #16]	; (8001bcc <onSwitch+0x5c>)
 8001bbc:	0049      	lsls	r1, r1, #1
 8001bbe:	e7f7      	b.n	8001bb0 <onSwitch+0x40>
 8001bc0:	08002de7 	.word	0x08002de7
 8001bc4:	08002de9 	.word	0x08002de9
 8001bc8:	08002e3e 	.word	0x08002e3e
 8001bcc:	08002deb 	.word	0x08002deb

08001bd0 <onStatus>:
 8001bd0:	b510      	push	{r4, lr}
 8001bd2:	4a02      	ldr	r2, [pc, #8]	; (8001bdc <onStatus+0xc>)
 8001bd4:	21c8      	movs	r1, #200	; 0xc8
 8001bd6:	f000 faa7 	bl	8002128 <HTTPSendStr>
 8001bda:	bd10      	pop	{r4, pc}
 8001bdc:	08002dde 	.word	0x08002dde

08001be0 <onReset>:
 8001be0:	b510      	push	{r4, lr}
 8001be2:	4a02      	ldr	r2, [pc, #8]	; (8001bec <onReset+0xc>)
 8001be4:	21c8      	movs	r1, #200	; 0xc8
 8001be6:	f000 fa9f 	bl	8002128 <HTTPSendStr>
 8001bea:	bd10      	pop	{r4, pc}
 8001bec:	08002dd6 	.word	0x08002dd6

08001bf0 <onGetAlloc>:
 8001bf0:	b570      	push	{r4, r5, r6, lr}
 8001bf2:	0006      	movs	r6, r0
 8001bf4:	f000 fe68 	bl	80028c8 <get_Antenna>
 8001bf8:	4c0e      	ldr	r4, [pc, #56]	; (8001c34 <onGetAlloc+0x44>)
 8001bfa:	0005      	movs	r5, r0
 8001bfc:	490e      	ldr	r1, [pc, #56]	; (8001c38 <onGetAlloc+0x48>)
 8001bfe:	0020      	movs	r0, r4
 8001c00:	f000 ffbb 	bl	8002b7a <strcpy>
 8001c04:	230f      	movs	r3, #15
 8001c06:	402b      	ands	r3, r5
 8001c08:	3330      	adds	r3, #48	; 0x30
 8001c0a:	092d      	lsrs	r5, r5, #4
 8001c0c:	70a3      	strb	r3, [r4, #2]
 8001c0e:	3530      	adds	r5, #48	; 0x30
 8001c10:	1ce0      	adds	r0, r4, #3
 8001c12:	490a      	ldr	r1, [pc, #40]	; (8001c3c <onGetAlloc+0x4c>)
 8001c14:	f000 ffb1 	bl	8002b7a <strcpy>
 8001c18:	71a5      	strb	r5, [r4, #6]
 8001c1a:	1de0      	adds	r0, r4, #7
 8001c1c:	4908      	ldr	r1, [pc, #32]	; (8001c40 <onGetAlloc+0x50>)
 8001c1e:	f000 ffac 	bl	8002b7a <strcpy>
 8001c22:	2300      	movs	r3, #0
 8001c24:	0030      	movs	r0, r6
 8001c26:	7263      	strb	r3, [r4, #9]
 8001c28:	0022      	movs	r2, r4
 8001c2a:	21c8      	movs	r1, #200	; 0xc8
 8001c2c:	f000 fa7c 	bl	8002128 <HTTPSendStr>
 8001c30:	bd70      	pop	{r4, r5, r6, pc}
 8001c32:	46c0      	nop			; (mov r8, r8)
 8001c34:	2000045c 	.word	0x2000045c
 8001c38:	08002dc4 	.word	0x08002dc4
 8001c3c:	08002dc7 	.word	0x08002dc7
 8001c40:	08002e40 	.word	0x08002e40

08001c44 <resetHTTPParseState>:
 8001c44:	0002      	movs	r2, r0
 8001c46:	2300      	movs	r3, #0
 8001c48:	3245      	adds	r2, #69	; 0x45
 8001c4a:	7003      	strb	r3, [r0, #0]
 8001c4c:	7013      	strb	r3, [r2, #0]
 8001c4e:	2292      	movs	r2, #146	; 0x92
 8001c50:	0052      	lsls	r2, r2, #1
 8001c52:	7103      	strb	r3, [r0, #4]
 8001c54:	70c3      	strb	r3, [r0, #3]
 8001c56:	5483      	strb	r3, [r0, r2]
 8001c58:	0002      	movs	r2, r0
 8001c5a:	30fe      	adds	r0, #254	; 0xfe
 8001c5c:	3298      	adds	r2, #152	; 0x98
 8001c5e:	7013      	strb	r3, [r2, #0]
 8001c60:	83c3      	strh	r3, [r0, #30]
 8001c62:	4770      	bx	lr

08001c64 <HTTPGetContentType>:
 8001c64:	b5f7      	push	{r0, r1, r2, r4, r5, r6, r7, lr}
 8001c66:	0006      	movs	r6, r0
 8001c68:	f7fe fa58 	bl	800011c <strlen>
 8001c6c:	4c21      	ldr	r4, [pc, #132]	; (8001cf4 <HTTPGetContentType+0x90>)
 8001c6e:	0007      	movs	r7, r0
 8001c70:	2803      	cmp	r0, #3
 8001c72:	d93c      	bls.n	8001cee <HTTPGetContentType+0x8a>
 8001c74:	1f43      	subs	r3, r0, #5
 8001c76:	18f3      	adds	r3, r6, r3
 8001c78:	491f      	ldr	r1, [pc, #124]	; (8001cf8 <HTTPGetContentType+0x94>)
 8001c7a:	0018      	movs	r0, r3
 8001c7c:	9301      	str	r3, [sp, #4]
 8001c7e:	f7fe fa43 	bl	8000108 <strcmp>
 8001c82:	4c1e      	ldr	r4, [pc, #120]	; (8001cfc <HTTPGetContentType+0x98>)
 8001c84:	2800      	cmp	r0, #0
 8001c86:	d032      	beq.n	8001cee <HTTPGetContentType+0x8a>
 8001c88:	1f3d      	subs	r5, r7, #4
 8001c8a:	1975      	adds	r5, r6, r5
 8001c8c:	491c      	ldr	r1, [pc, #112]	; (8001d00 <HTTPGetContentType+0x9c>)
 8001c8e:	0028      	movs	r0, r5
 8001c90:	f7fe fa3a 	bl	8000108 <strcmp>
 8001c94:	2800      	cmp	r0, #0
 8001c96:	d02a      	beq.n	8001cee <HTTPGetContentType+0x8a>
 8001c98:	491a      	ldr	r1, [pc, #104]	; (8001d04 <HTTPGetContentType+0xa0>)
 8001c9a:	0028      	movs	r0, r5
 8001c9c:	f7fe fa34 	bl	8000108 <strcmp>
 8001ca0:	4c19      	ldr	r4, [pc, #100]	; (8001d08 <HTTPGetContentType+0xa4>)
 8001ca2:	2800      	cmp	r0, #0
 8001ca4:	d023      	beq.n	8001cee <HTTPGetContentType+0x8a>
 8001ca6:	1ef8      	subs	r0, r7, #3
 8001ca8:	1830      	adds	r0, r6, r0
 8001caa:	4918      	ldr	r1, [pc, #96]	; (8001d0c <HTTPGetContentType+0xa8>)
 8001cac:	f7fe fa2c 	bl	8000108 <strcmp>
 8001cb0:	4c17      	ldr	r4, [pc, #92]	; (8001d10 <HTTPGetContentType+0xac>)
 8001cb2:	2800      	cmp	r0, #0
 8001cb4:	d01b      	beq.n	8001cee <HTTPGetContentType+0x8a>
 8001cb6:	4917      	ldr	r1, [pc, #92]	; (8001d14 <HTTPGetContentType+0xb0>)
 8001cb8:	0028      	movs	r0, r5
 8001cba:	f7fe fa25 	bl	8000108 <strcmp>
 8001cbe:	4c16      	ldr	r4, [pc, #88]	; (8001d18 <HTTPGetContentType+0xb4>)
 8001cc0:	2800      	cmp	r0, #0
 8001cc2:	d014      	beq.n	8001cee <HTTPGetContentType+0x8a>
 8001cc4:	4915      	ldr	r1, [pc, #84]	; (8001d1c <HTTPGetContentType+0xb8>)
 8001cc6:	0028      	movs	r0, r5
 8001cc8:	f7fe fa1e 	bl	8000108 <strcmp>
 8001ccc:	4c14      	ldr	r4, [pc, #80]	; (8001d20 <HTTPGetContentType+0xbc>)
 8001cce:	2800      	cmp	r0, #0
 8001cd0:	d00d      	beq.n	8001cee <HTTPGetContentType+0x8a>
 8001cd2:	4914      	ldr	r1, [pc, #80]	; (8001d24 <HTTPGetContentType+0xc0>)
 8001cd4:	9801      	ldr	r0, [sp, #4]
 8001cd6:	f7fe fa17 	bl	8000108 <strcmp>
 8001cda:	2800      	cmp	r0, #0
 8001cdc:	d007      	beq.n	8001cee <HTTPGetContentType+0x8a>
 8001cde:	4912      	ldr	r1, [pc, #72]	; (8001d28 <HTTPGetContentType+0xc4>)
 8001ce0:	0028      	movs	r0, r5
 8001ce2:	f7fe fa11 	bl	8000108 <strcmp>
 8001ce6:	4c03      	ldr	r4, [pc, #12]	; (8001cf4 <HTTPGetContentType+0x90>)
 8001ce8:	2800      	cmp	r0, #0
 8001cea:	d100      	bne.n	8001cee <HTTPGetContentType+0x8a>
 8001cec:	4c0f      	ldr	r4, [pc, #60]	; (8001d2c <HTTPGetContentType+0xc8>)
 8001cee:	0020      	movs	r0, r4
 8001cf0:	bdfe      	pop	{r1, r2, r3, r4, r5, r6, r7, pc}
 8001cf2:	46c0      	nop			; (mov r8, r8)
 8001cf4:	08002ee1 	.word	0x08002ee1
 8001cf8:	08002dd0 	.word	0x08002dd0
 8001cfc:	08002eb5 	.word	0x08002eb5
 8001d00:	08002e16 	.word	0x08002e16
 8001d04:	08002e1b 	.word	0x08002e1b
 8001d08:	08002ea2 	.word	0x08002ea2
 8001d0c:	08002e20 	.word	0x08002e20
 8001d10:	08002eca 	.word	0x08002eca
 8001d14:	08002e24 	.word	0x08002e24
 8001d18:	08002eec 	.word	0x08002eec
 8001d1c:	08002e29 	.word	0x08002e29
 8001d20:	08002ebf 	.word	0x08002ebf
 8001d24:	08002e2e 	.word	0x08002e2e
 8001d28:	08002e34 	.word	0x08002e34
 8001d2c:	08002eab 	.word	0x08002eab

08001d30 <strsepstr>:
 8001d30:	b5f8      	push	{r3, r4, r5, r6, r7, lr}
 8001d32:	0006      	movs	r6, r0
 8001d34:	0008      	movs	r0, r1
 8001d36:	000c      	movs	r4, r1
 8001d38:	f7fe f9f0 	bl	800011c <strlen>
 8001d3c:	6835      	ldr	r5, [r6, #0]
 8001d3e:	0007      	movs	r7, r0
 8001d40:	2d00      	cmp	r5, #0
 8001d42:	d00b      	beq.n	8001d5c <strsepstr+0x2c>
 8001d44:	0021      	movs	r1, r4
 8001d46:	0028      	movs	r0, r5
 8001d48:	f000 ff79 	bl	8002c3e <strstr>
 8001d4c:	1e04      	subs	r4, r0, #0
 8001d4e:	d004      	beq.n	8001d5a <strsepstr+0x2a>
 8001d50:	003a      	movs	r2, r7
 8001d52:	2100      	movs	r1, #0
 8001d54:	f000 feed 	bl	8002b32 <memset>
 8001d58:	19e4      	adds	r4, r4, r7
 8001d5a:	6034      	str	r4, [r6, #0]
 8001d5c:	0028      	movs	r0, r5
 8001d5e:	bdf8      	pop	{r3, r4, r5, r6, r7, pc}

08001d60 <parse_http>:
 8001d60:	b5f0      	push	{r4, r5, r6, r7, lr}
 8001d62:	0004      	movs	r4, r0
 8001d64:	7800      	ldrb	r0, [r0, #0]
 8001d66:	b085      	sub	sp, #20
 8001d68:	2804      	cmp	r0, #4
 8001d6a:	d900      	bls.n	8001d6e <parse_http+0xe>
 8001d6c:	e0c1      	b.n	8001ef2 <parse_http+0x192>
 8001d6e:	f7fe f9dd 	bl	800012c <__gnu_thumb1_case_uqi>
 8001d72:	6203      	.short	0x6203
 8001d74:	73c0      	.short	0x73c0
 8001d76:	79          	.byte	0x79
 8001d77:	00          	.byte	0x00
 8001d78:	9101      	str	r1, [sp, #4]
 8001d7a:	a801      	add	r0, sp, #4
 8001d7c:	495e      	ldr	r1, [pc, #376]	; (8001ef8 <parse_http+0x198>)
 8001d7e:	f7ff ffd7 	bl	8001d30 <strsepstr>
 8001d82:	1e06      	subs	r6, r0, #0
 8001d84:	d02f      	beq.n	8001de6 <parse_http+0x86>
 8001d86:	2280      	movs	r2, #128	; 0x80
 8001d88:	495c      	ldr	r1, [pc, #368]	; (8001efc <parse_http+0x19c>)
 8001d8a:	00d2      	lsls	r2, r2, #3
 8001d8c:	f000 ff38 	bl	8002c00 <strnstr>
 8001d90:	2800      	cmp	r0, #0
 8001d92:	d028      	beq.n	8001de6 <parse_http+0x86>
 8001d94:	4d5a      	ldr	r5, [pc, #360]	; (8001f00 <parse_http+0x1a0>)
 8001d96:	0030      	movs	r0, r6
 8001d98:	aa02      	add	r2, sp, #8
 8001d9a:	0029      	movs	r1, r5
 8001d9c:	f000 ff95 	bl	8002cca <strtok_r>
 8001da0:	1e06      	subs	r6, r0, #0
 8001da2:	d020      	beq.n	8001de6 <parse_http+0x86>
 8001da4:	4957      	ldr	r1, [pc, #348]	; (8001f04 <parse_http+0x1a4>)
 8001da6:	f7fe f9af 	bl	8000108 <strcmp>
 8001daa:	2800      	cmp	r0, #0
 8001dac:	d11e      	bne.n	8001dec <parse_http+0x8c>
 8001dae:	2300      	movs	r3, #0
 8001db0:	0029      	movs	r1, r5
 8001db2:	70e3      	strb	r3, [r4, #3]
 8001db4:	aa02      	add	r2, sp, #8
 8001db6:	2000      	movs	r0, #0
 8001db8:	f000 ff87 	bl	8002cca <strtok_r>
 8001dbc:	1e01      	subs	r1, r0, #0
 8001dbe:	d012      	beq.n	8001de6 <parse_http+0x86>
 8001dc0:	1d66      	adds	r6, r4, #5
 8001dc2:	2240      	movs	r2, #64	; 0x40
 8001dc4:	0030      	movs	r0, r6
 8001dc6:	f000 ff07 	bl	8002bd8 <strncpy>
 8001dca:	213f      	movs	r1, #63	; 0x3f
 8001dcc:	0030      	movs	r0, r6
 8001dce:	f000 fec6 	bl	8002b5e <strchr>
 8001dd2:	78e3      	ldrb	r3, [r4, #3]
 8001dd4:	2b00      	cmp	r3, #0
 8001dd6:	d011      	beq.n	8001dfc <parse_http+0x9c>
 8001dd8:	aa02      	add	r2, sp, #8
 8001dda:	0029      	movs	r1, r5
 8001ddc:	2000      	movs	r0, #0
 8001dde:	f000 ff74 	bl	8002cca <strtok_r>
 8001de2:	2800      	cmp	r0, #0
 8001de4:	d124      	bne.n	8001e30 <parse_http+0xd0>
 8001de6:	2000      	movs	r0, #0
 8001de8:	7020      	strb	r0, [r4, #0]
 8001dea:	e03c      	b.n	8001e66 <parse_http+0x106>
 8001dec:	4946      	ldr	r1, [pc, #280]	; (8001f08 <parse_http+0x1a8>)
 8001dee:	0030      	movs	r0, r6
 8001df0:	f7fe f98a 	bl	8000108 <strcmp>
 8001df4:	2800      	cmp	r0, #0
 8001df6:	d1da      	bne.n	8001dae <parse_http+0x4e>
 8001df8:	2301      	movs	r3, #1
 8001dfa:	e7d9      	b.n	8001db0 <parse_http+0x50>
 8001dfc:	2800      	cmp	r0, #0
 8001dfe:	d0eb      	beq.n	8001dd8 <parse_http+0x78>
 8001e00:	7003      	strb	r3, [r0, #0]
 8001e02:	7843      	ldrb	r3, [r0, #1]
 8001e04:	2b00      	cmp	r3, #0
 8001e06:	d0e7      	beq.n	8001dd8 <parse_http+0x78>
 8001e08:	4e40      	ldr	r6, [pc, #256]	; (8001f0c <parse_http+0x1ac>)
 8001e0a:	3001      	adds	r0, #1
 8001e0c:	0031      	movs	r1, r6
 8001e0e:	aa03      	add	r2, sp, #12
 8001e10:	f000 ff5b 	bl	8002cca <strtok_r>
 8001e14:	2800      	cmp	r0, #0
 8001e16:	d0df      	beq.n	8001dd8 <parse_http+0x78>
 8001e18:	0022      	movs	r2, r4
 8001e1a:	3245      	adds	r2, #69	; 0x45
 8001e1c:	7813      	ldrb	r3, [r2, #0]
 8001e1e:	1c59      	adds	r1, r3, #1
 8001e20:	3312      	adds	r3, #18
 8001e22:	009b      	lsls	r3, r3, #2
 8001e24:	7011      	strb	r1, [r2, #0]
 8001e26:	5118      	str	r0, [r3, r4]
 8001e28:	aa03      	add	r2, sp, #12
 8001e2a:	0031      	movs	r1, r6
 8001e2c:	2000      	movs	r0, #0
 8001e2e:	e7ef      	b.n	8001e10 <parse_http+0xb0>
 8001e30:	7823      	ldrb	r3, [r4, #0]
 8001e32:	3301      	adds	r3, #1
 8001e34:	7023      	strb	r3, [r4, #0]
 8001e36:	4f30      	ldr	r7, [pc, #192]	; (8001ef8 <parse_http+0x198>)
 8001e38:	0039      	movs	r1, r7
 8001e3a:	a801      	add	r0, sp, #4
 8001e3c:	f7ff ff78 	bl	8001d30 <strsepstr>
 8001e40:	2800      	cmp	r0, #0
 8001e42:	d006      	beq.n	8001e52 <parse_http+0xf2>
 8001e44:	4e32      	ldr	r6, [pc, #200]	; (8001f10 <parse_http+0x1b0>)
 8001e46:	aa02      	add	r2, sp, #8
 8001e48:	0031      	movs	r1, r6
 8001e4a:	f000 ff3e 	bl	8002cca <strtok_r>
 8001e4e:	1e05      	subs	r5, r0, #0
 8001e50:	d10e      	bne.n	8001e70 <parse_http+0x110>
 8001e52:	7823      	ldrb	r3, [r4, #0]
 8001e54:	3301      	adds	r3, #1
 8001e56:	7023      	strb	r3, [r4, #0]
 8001e58:	78e3      	ldrb	r3, [r4, #3]
 8001e5a:	2b01      	cmp	r3, #1
 8001e5c:	d030      	beq.n	8001ec0 <parse_http+0x160>
 8001e5e:	7823      	ldrb	r3, [r4, #0]
 8001e60:	3301      	adds	r3, #1
 8001e62:	7023      	strb	r3, [r4, #0]
 8001e64:	2001      	movs	r0, #1
 8001e66:	2392      	movs	r3, #146	; 0x92
 8001e68:	005b      	lsls	r3, r3, #1
 8001e6a:	54e0      	strb	r0, [r4, r3]
 8001e6c:	b005      	add	sp, #20
 8001e6e:	bdf0      	pop	{r4, r5, r6, r7, pc}
 8001e70:	7803      	ldrb	r3, [r0, #0]
 8001e72:	2b00      	cmp	r3, #0
 8001e74:	d0ed      	beq.n	8001e52 <parse_http+0xf2>
 8001e76:	4927      	ldr	r1, [pc, #156]	; (8001f14 <parse_http+0x1b4>)
 8001e78:	f7fe f946 	bl	8000108 <strcmp>
 8001e7c:	2800      	cmp	r0, #0
 8001e7e:	d10d      	bne.n	8001e9c <parse_http+0x13c>
 8001e80:	aa02      	add	r2, sp, #8
 8001e82:	0031      	movs	r1, r6
 8001e84:	f000 ff21 	bl	8002cca <strtok_r>
 8001e88:	2800      	cmp	r0, #0
 8001e8a:	d0ac      	beq.n	8001de6 <parse_http+0x86>
 8001e8c:	4922      	ldr	r1, [pc, #136]	; (8001f18 <parse_http+0x1b8>)
 8001e8e:	f000 fed6 	bl	8002c3e <strstr>
 8001e92:	2800      	cmp	r0, #0
 8001e94:	d0d0      	beq.n	8001e38 <parse_http+0xd8>
 8001e96:	2301      	movs	r3, #1
 8001e98:	7123      	strb	r3, [r4, #4]
 8001e9a:	e7cd      	b.n	8001e38 <parse_http+0xd8>
 8001e9c:	491f      	ldr	r1, [pc, #124]	; (8001f1c <parse_http+0x1bc>)
 8001e9e:	0028      	movs	r0, r5
 8001ea0:	f7fe f932 	bl	8000108 <strcmp>
 8001ea4:	2800      	cmp	r0, #0
 8001ea6:	d1c7      	bne.n	8001e38 <parse_http+0xd8>
 8001ea8:	0031      	movs	r1, r6
 8001eaa:	aa02      	add	r2, sp, #8
 8001eac:	f000 ff0d 	bl	8002cca <strtok_r>
 8001eb0:	1e01      	subs	r1, r0, #0
 8001eb2:	d098      	beq.n	8001de6 <parse_http+0x86>
 8001eb4:	0020      	movs	r0, r4
 8001eb6:	2240      	movs	r2, #64	; 0x40
 8001eb8:	3058      	adds	r0, #88	; 0x58
 8001eba:	f000 fe8d 	bl	8002bd8 <strncpy>
 8001ebe:	e7bb      	b.n	8001e38 <parse_http+0xd8>
 8001ec0:	490d      	ldr	r1, [pc, #52]	; (8001ef8 <parse_http+0x198>)
 8001ec2:	a801      	add	r0, sp, #4
 8001ec4:	f7ff ff34 	bl	8001d30 <strsepstr>
 8001ec8:	2800      	cmp	r0, #0
 8001eca:	d0c8      	beq.n	8001e5e <parse_http+0xfe>
 8001ecc:	4d0f      	ldr	r5, [pc, #60]	; (8001f0c <parse_http+0x1ac>)
 8001ece:	aa03      	add	r2, sp, #12
 8001ed0:	0029      	movs	r1, r5
 8001ed2:	f000 fefa 	bl	8002cca <strtok_r>
 8001ed6:	2800      	cmp	r0, #0
 8001ed8:	d0c1      	beq.n	8001e5e <parse_http+0xfe>
 8001eda:	0022      	movs	r2, r4
 8001edc:	3245      	adds	r2, #69	; 0x45
 8001ede:	7813      	ldrb	r3, [r2, #0]
 8001ee0:	1c59      	adds	r1, r3, #1
 8001ee2:	3312      	adds	r3, #18
 8001ee4:	009b      	lsls	r3, r3, #2
 8001ee6:	7011      	strb	r1, [r2, #0]
 8001ee8:	5118      	str	r0, [r3, r4]
 8001eea:	aa03      	add	r2, sp, #12
 8001eec:	0029      	movs	r1, r5
 8001eee:	2000      	movs	r0, #0
 8001ef0:	e7ef      	b.n	8001ed2 <parse_http+0x172>
 8001ef2:	2001      	movs	r0, #1
 8001ef4:	e7ba      	b.n	8001e6c <parse_http+0x10c>
 8001ef6:	46c0      	nop			; (mov r8, r8)
 8001ef8:	08002f13 	.word	0x08002f13
 8001efc:	08002f2b 	.word	0x08002f2b
 8001f00:	08002ef6 	.word	0x08002ef6
 8001f04:	08002f0a 	.word	0x08002f0a
 8001f08:	08002f0e 	.word	0x08002f0e
 8001f0c:	08002f31 	.word	0x08002f31
 8001f10:	08002e9f 	.word	0x08002e9f
 8001f14:	08002ef8 	.word	0x08002ef8
 8001f18:	08002f33 	.word	0x08002f33
 8001f1c:	08002f03 	.word	0x08002f03

08001f20 <getHTTPArg>:
 8001f20:	0003      	movs	r3, r0
 8001f22:	b5f0      	push	{r4, r5, r6, r7, lr}
 8001f24:	3345      	adds	r3, #69	; 0x45
 8001f26:	781c      	ldrb	r4, [r3, #0]
 8001f28:	2200      	movs	r2, #0
 8001f2a:	1e23      	subs	r3, r4, #0
 8001f2c:	d115      	bne.n	8001f5a <getHTTPArg+0x3a>
 8001f2e:	0018      	movs	r0, r3
 8001f30:	bdf0      	pop	{r4, r5, r6, r7, pc}
 8001f32:	000e      	movs	r6, r1
 8001f34:	0093      	lsls	r3, r2, #2
 8001f36:	18c3      	adds	r3, r0, r3
 8001f38:	6c9b      	ldr	r3, [r3, #72]	; 0x48
 8001f3a:	781d      	ldrb	r5, [r3, #0]
 8001f3c:	7837      	ldrb	r7, [r6, #0]
 8001f3e:	2d00      	cmp	r5, #0
 8001f40:	d00a      	beq.n	8001f58 <getHTTPArg+0x38>
 8001f42:	2f00      	cmp	r7, #0
 8001f44:	d103      	bne.n	8001f4e <getHTTPArg+0x2e>
 8001f46:	2d3d      	cmp	r5, #61	; 0x3d
 8001f48:	d106      	bne.n	8001f58 <getHTTPArg+0x38>
 8001f4a:	3301      	adds	r3, #1
 8001f4c:	e7ef      	b.n	8001f2e <getHTTPArg+0xe>
 8001f4e:	42af      	cmp	r7, r5
 8001f50:	d102      	bne.n	8001f58 <getHTTPArg+0x38>
 8001f52:	3601      	adds	r6, #1
 8001f54:	3301      	adds	r3, #1
 8001f56:	e7f0      	b.n	8001f3a <getHTTPArg+0x1a>
 8001f58:	3201      	adds	r2, #1
 8001f5a:	4294      	cmp	r4, r2
 8001f5c:	dce9      	bgt.n	8001f32 <getHTTPArg+0x12>
 8001f5e:	2300      	movs	r3, #0
 8001f60:	e7e5      	b.n	8001f2e <getHTTPArg+0xe>

08001f62 <atou8>:
 8001f62:	b530      	push	{r4, r5, lr}
 8001f64:	0001      	movs	r1, r0
 8001f66:	1cc4      	adds	r4, r0, #3
 8001f68:	250a      	movs	r5, #10
 8001f6a:	2000      	movs	r0, #0
 8001f6c:	780b      	ldrb	r3, [r1, #0]
 8001f6e:	2b00      	cmp	r3, #0
 8001f70:	d006      	beq.n	8001f80 <atou8+0x1e>
 8001f72:	4368      	muls	r0, r5
 8001f74:	181b      	adds	r3, r3, r0
 8001f76:	3b30      	subs	r3, #48	; 0x30
 8001f78:	3101      	adds	r1, #1
 8001f7a:	b2d8      	uxtb	r0, r3
 8001f7c:	428c      	cmp	r4, r1
 8001f7e:	d1f5      	bne.n	8001f6c <atou8+0xa>
 8001f80:	bd30      	pop	{r4, r5, pc}

08001f82 <u16toa>:
 8001f82:	b5f8      	push	{r3, r4, r5, r6, r7, lr}
 8001f84:	0007      	movs	r7, r0
 8001f86:	000c      	movs	r4, r1
 8001f88:	2600      	movs	r6, #0
 8001f8a:	19a5      	adds	r5, r4, r6
 8001f8c:	2f00      	cmp	r7, #0
 8001f8e:	d107      	bne.n	8001fa0 <u16toa+0x1e>
 8001f90:	0873      	lsrs	r3, r6, #1
 8001f92:	702f      	strb	r7, [r5, #0]
 8001f94:	18e3      	adds	r3, r4, r3
 8001f96:	3d01      	subs	r5, #1
 8001f98:	429c      	cmp	r4, r3
 8001f9a:	d10f      	bne.n	8001fbc <u16toa+0x3a>
 8001f9c:	0030      	movs	r0, r6
 8001f9e:	bdf8      	pop	{r3, r4, r5, r6, r7, pc}
 8001fa0:	0038      	movs	r0, r7
 8001fa2:	210a      	movs	r1, #10
 8001fa4:	f7fe f952 	bl	800024c <__aeabi_uidivmod>
 8001fa8:	3130      	adds	r1, #48	; 0x30
 8001faa:	7029      	strb	r1, [r5, #0]
 8001fac:	0038      	movs	r0, r7
 8001fae:	210a      	movs	r1, #10
 8001fb0:	f7fe f8c6 	bl	8000140 <__udivsi3>
 8001fb4:	3601      	adds	r6, #1
 8001fb6:	b2f6      	uxtb	r6, r6
 8001fb8:	b287      	uxth	r7, r0
 8001fba:	e7e6      	b.n	8001f8a <u16toa+0x8>
 8001fbc:	7822      	ldrb	r2, [r4, #0]
 8001fbe:	7829      	ldrb	r1, [r5, #0]
 8001fc0:	7021      	strb	r1, [r4, #0]
 8001fc2:	702a      	strb	r2, [r5, #0]
 8001fc4:	3401      	adds	r4, #1
 8001fc6:	e7e6      	b.n	8001f96 <u16toa+0x14>

08001fc8 <HTTPSendFile>:
 8001fc8:	b082      	sub	sp, #8
 8001fca:	b5f0      	push	{r4, r5, r6, r7, lr}
 8001fcc:	b08d      	sub	sp, #52	; 0x34
 8001fce:	9313      	str	r3, [sp, #76]	; 0x4c
 8001fd0:	9b14      	ldr	r3, [sp, #80]	; 0x50
 8001fd2:	0006      	movs	r6, r0
 8001fd4:	0004      	movs	r4, r0
 8001fd6:	0010      	movs	r0, r2
 8001fd8:	0015      	movs	r5, r2
 8001fda:	9103      	str	r1, [sp, #12]
 8001fdc:	9212      	str	r2, [sp, #72]	; 0x48
 8001fde:	9302      	str	r3, [sp, #8]
 8001fe0:	f7fe f89c 	bl	800011c <strlen>
 8001fe4:	3803      	subs	r0, #3
 8001fe6:	1828      	adds	r0, r5, r0
 8001fe8:	4944      	ldr	r1, [pc, #272]	; (80020fc <HTTPSendFile+0x134>)
 8001fea:	f7fe f88d 	bl	8000108 <strcmp>
 8001fee:	369c      	adds	r6, #156	; 0x9c
 8001ff0:	1e07      	subs	r7, r0, #0
 8001ff2:	d000      	beq.n	8001ff6 <HTTPSendFile+0x2e>
 8001ff4:	e076      	b.n	80020e4 <HTTPSendFile+0x11c>
 8001ff6:	0029      	movs	r1, r5
 8001ff8:	a804      	add	r0, sp, #16
 8001ffa:	f000 fdbe 	bl	8002b7a <strcpy>
 8001ffe:	a804      	add	r0, sp, #16
 8002000:	f7fe f88c 	bl	800011c <strlen>
 8002004:	ab04      	add	r3, sp, #16
 8002006:	18c0      	adds	r0, r0, r3
 8002008:	3803      	subs	r0, #3
 800200a:	7007      	strb	r7, [r0, #0]
 800200c:	0018      	movs	r0, r3
 800200e:	f7ff fe29 	bl	8001c64 <HTTPGetContentType>
 8002012:	2301      	movs	r3, #1
 8002014:	0005      	movs	r5, r0
 8002016:	9301      	str	r3, [sp, #4]
 8002018:	2300      	movs	r3, #0
 800201a:	4939      	ldr	r1, [pc, #228]	; (8002100 <HTTPSendFile+0x138>)
 800201c:	7033      	strb	r3, [r6, #0]
 800201e:	0030      	movs	r0, r6
 8002020:	f000 fd8f 	bl	8002b42 <strcat>
 8002024:	0023      	movs	r3, r4
 8002026:	2220      	movs	r2, #32
 8002028:	33a4      	adds	r3, #164	; 0xa4
 800202a:	0027      	movs	r7, r4
 800202c:	701a      	strb	r2, [r3, #0]
 800202e:	466b      	mov	r3, sp
 8002030:	37a5      	adds	r7, #165	; 0xa5
 8002032:	8998      	ldrh	r0, [r3, #12]
 8002034:	0039      	movs	r1, r7
 8002036:	f7ff ffa4 	bl	8001f82 <u16toa>
 800203a:	183f      	adds	r7, r7, r0
 800203c:	4931      	ldr	r1, [pc, #196]	; (8002104 <HTTPSendFile+0x13c>)
 800203e:	0038      	movs	r0, r7
 8002040:	f000 fd7f 	bl	8002b42 <strcat>
 8002044:	1d78      	adds	r0, r7, #5
 8002046:	4930      	ldr	r1, [pc, #192]	; (8002108 <HTTPSendFile+0x140>)
 8002048:	f000 fd7b 	bl	8002b42 <strcat>
 800204c:	0038      	movs	r0, r7
 800204e:	7923      	ldrb	r3, [r4, #4]
 8002050:	3011      	adds	r0, #17
 8002052:	2b01      	cmp	r3, #1
 8002054:	d14c      	bne.n	80020f0 <HTTPSendFile+0x128>
 8002056:	492d      	ldr	r1, [pc, #180]	; (800210c <HTTPSendFile+0x144>)
 8002058:	f000 fd73 	bl	8002b42 <strcat>
 800205c:	371d      	adds	r7, #29
 800205e:	9b01      	ldr	r3, [sp, #4]
 8002060:	2b00      	cmp	r3, #0
 8002062:	d004      	beq.n	800206e <HTTPSendFile+0xa6>
 8002064:	0038      	movs	r0, r7
 8002066:	492a      	ldr	r1, [pc, #168]	; (8002110 <HTTPSendFile+0x148>)
 8002068:	f000 fd6b 	bl	8002b42 <strcat>
 800206c:	3718      	adds	r7, #24
 800206e:	4929      	ldr	r1, [pc, #164]	; (8002114 <HTTPSendFile+0x14c>)
 8002070:	0038      	movs	r0, r7
 8002072:	370e      	adds	r7, #14
 8002074:	f000 fd65 	bl	8002b42 <strcat>
 8002078:	0029      	movs	r1, r5
 800207a:	0038      	movs	r0, r7
 800207c:	f000 fd61 	bl	8002b42 <strcat>
 8002080:	0028      	movs	r0, r5
 8002082:	f7fe f84b 	bl	800011c <strlen>
 8002086:	183f      	adds	r7, r7, r0
 8002088:	4923      	ldr	r1, [pc, #140]	; (8002118 <HTTPSendFile+0x150>)
 800208a:	0038      	movs	r0, r7
 800208c:	f000 fd59 	bl	8002b42 <strcat>
 8002090:	1cb8      	adds	r0, r7, #2
 8002092:	4922      	ldr	r1, [pc, #136]	; (800211c <HTTPSendFile+0x154>)
 8002094:	f000 fd55 	bl	8002b42 <strcat>
 8002098:	466b      	mov	r3, sp
 800209a:	891b      	ldrh	r3, [r3, #8]
 800209c:	3712      	adds	r7, #18
 800209e:	0018      	movs	r0, r3
 80020a0:	0039      	movs	r1, r7
 80020a2:	9301      	str	r3, [sp, #4]
 80020a4:	f7ff ff6d 	bl	8001f82 <u16toa>
 80020a8:	4d1d      	ldr	r5, [pc, #116]	; (8002120 <HTTPSendFile+0x158>)
 80020aa:	183f      	adds	r7, r7, r0
 80020ac:	0029      	movs	r1, r5
 80020ae:	0038      	movs	r0, r7
 80020b0:	f000 fd47 	bl	8002b42 <strcat>
 80020b4:	0029      	movs	r1, r5
 80020b6:	1cb8      	adds	r0, r7, #2
 80020b8:	f000 fd43 	bl	8002b42 <strcat>
 80020bc:	0030      	movs	r0, r6
 80020be:	f7fe f82d 	bl	800011c <strlen>
 80020c2:	0023      	movs	r3, r4
 80020c4:	9a01      	ldr	r2, [sp, #4]
 80020c6:	339a      	adds	r3, #154	; 0x9a
 80020c8:	8018      	strh	r0, [r3, #0]
 80020ca:	3364      	adds	r3, #100	; 0x64
 80020cc:	83da      	strh	r2, [r3, #30]
 80020ce:	9a13      	ldr	r2, [sp, #76]	; 0x4c
 80020d0:	3b02      	subs	r3, #2
 80020d2:	625a      	str	r2, [r3, #36]	; 0x24
 80020d4:	2301      	movs	r3, #1
 80020d6:	3498      	adds	r4, #152	; 0x98
 80020d8:	7023      	strb	r3, [r4, #0]
 80020da:	b00d      	add	sp, #52	; 0x34
 80020dc:	bcf0      	pop	{r4, r5, r6, r7}
 80020de:	bc08      	pop	{r3}
 80020e0:	b002      	add	sp, #8
 80020e2:	4718      	bx	r3
 80020e4:	0028      	movs	r0, r5
 80020e6:	f7ff fdbd 	bl	8001c64 <HTTPGetContentType>
 80020ea:	2300      	movs	r3, #0
 80020ec:	0005      	movs	r5, r0
 80020ee:	e792      	b.n	8002016 <HTTPSendFile+0x4e>
 80020f0:	490c      	ldr	r1, [pc, #48]	; (8002124 <HTTPSendFile+0x15c>)
 80020f2:	f000 fd26 	bl	8002b42 <strcat>
 80020f6:	3719      	adds	r7, #25
 80020f8:	e7b1      	b.n	800205e <HTTPSendFile+0x96>
 80020fa:	46c0      	nop			; (mov r8, r8)
 80020fc:	08002e39 	.word	0x08002e39
 8002100:	08002f16 	.word	0x08002f16
 8002104:	08002e3d 	.word	0x08002e3d
 8002108:	08002e43 	.word	0x08002e43
 800210c:	08002e50 	.word	0x08002e50
 8002110:	08002e66 	.word	0x08002e66
 8002114:	08002e7f 	.word	0x08002e7f
 8002118:	08002e40 	.word	0x08002e40
 800211c:	08002e8e 	.word	0x08002e8e
 8002120:	08002f13 	.word	0x08002f13
 8002124:	08002e5d 	.word	0x08002e5d

08002128 <HTTPSendStr>:
 8002128:	b5f7      	push	{r0, r1, r2, r4, r5, r6, r7, lr}
 800212a:	0006      	movs	r6, r0
 800212c:	2300      	movs	r3, #0
 800212e:	0005      	movs	r5, r0
 8002130:	369c      	adds	r6, #156	; 0x9c
 8002132:	000c      	movs	r4, r1
 8002134:	7033      	strb	r3, [r6, #0]
 8002136:	4932      	ldr	r1, [pc, #200]	; (8002200 <HTTPSendStr+0xd8>)
 8002138:	0030      	movs	r0, r6
 800213a:	9201      	str	r2, [sp, #4]
 800213c:	002f      	movs	r7, r5
 800213e:	f000 fd00 	bl	8002b42 <strcat>
 8002142:	002b      	movs	r3, r5
 8002144:	2220      	movs	r2, #32
 8002146:	33a4      	adds	r3, #164	; 0xa4
 8002148:	37a5      	adds	r7, #165	; 0xa5
 800214a:	701a      	strb	r2, [r3, #0]
 800214c:	b2a0      	uxth	r0, r4
 800214e:	0039      	movs	r1, r7
 8002150:	f7ff ff17 	bl	8001f82 <u16toa>
 8002154:	183c      	adds	r4, r7, r0
 8002156:	492b      	ldr	r1, [pc, #172]	; (8002204 <HTTPSendStr+0xdc>)
 8002158:	0020      	movs	r0, r4
 800215a:	f000 fcf2 	bl	8002b42 <strcat>
 800215e:	1d60      	adds	r0, r4, #5
 8002160:	4929      	ldr	r1, [pc, #164]	; (8002208 <HTTPSendStr+0xe0>)
 8002162:	f000 fcee 	bl	8002b42 <strcat>
 8002166:	0020      	movs	r0, r4
 8002168:	792b      	ldrb	r3, [r5, #4]
 800216a:	3011      	adds	r0, #17
 800216c:	2b01      	cmp	r3, #1
 800216e:	d141      	bne.n	80021f4 <HTTPSendStr+0xcc>
 8002170:	4926      	ldr	r1, [pc, #152]	; (800220c <HTTPSendStr+0xe4>)
 8002172:	f000 fce6 	bl	8002b42 <strcat>
 8002176:	341d      	adds	r4, #29
 8002178:	1d68      	adds	r0, r5, #5
 800217a:	f7ff fd73 	bl	8001c64 <HTTPGetContentType>
 800217e:	0007      	movs	r7, r0
 8002180:	4923      	ldr	r1, [pc, #140]	; (8002210 <HTTPSendStr+0xe8>)
 8002182:	0020      	movs	r0, r4
 8002184:	340e      	adds	r4, #14
 8002186:	f000 fcdc 	bl	8002b42 <strcat>
 800218a:	0039      	movs	r1, r7
 800218c:	0020      	movs	r0, r4
 800218e:	f000 fcd8 	bl	8002b42 <strcat>
 8002192:	0038      	movs	r0, r7
 8002194:	f7fd ffc2 	bl	800011c <strlen>
 8002198:	1824      	adds	r4, r4, r0
 800219a:	491e      	ldr	r1, [pc, #120]	; (8002214 <HTTPSendStr+0xec>)
 800219c:	0020      	movs	r0, r4
 800219e:	f000 fcd0 	bl	8002b42 <strcat>
 80021a2:	491d      	ldr	r1, [pc, #116]	; (8002218 <HTTPSendStr+0xf0>)
 80021a4:	1ca0      	adds	r0, r4, #2
 80021a6:	f000 fccc 	bl	8002b42 <strcat>
 80021aa:	9801      	ldr	r0, [sp, #4]
 80021ac:	f7fd ffb6 	bl	800011c <strlen>
 80021b0:	3412      	adds	r4, #18
 80021b2:	0021      	movs	r1, r4
 80021b4:	b280      	uxth	r0, r0
 80021b6:	f7ff fee4 	bl	8001f82 <u16toa>
 80021ba:	4f18      	ldr	r7, [pc, #96]	; (800221c <HTTPSendStr+0xf4>)
 80021bc:	1824      	adds	r4, r4, r0
 80021be:	0039      	movs	r1, r7
 80021c0:	0020      	movs	r0, r4
 80021c2:	f000 fcbe 	bl	8002b42 <strcat>
 80021c6:	0039      	movs	r1, r7
 80021c8:	1ca0      	adds	r0, r4, #2
 80021ca:	f000 fcba 	bl	8002b42 <strcat>
 80021ce:	0030      	movs	r0, r6
 80021d0:	f7fd ffa4 	bl	800011c <strlen>
 80021d4:	002b      	movs	r3, r5
 80021d6:	339a      	adds	r3, #154	; 0x9a
 80021d8:	8018      	strh	r0, [r3, #0]
 80021da:	9801      	ldr	r0, [sp, #4]
 80021dc:	f7fd ff9e 	bl	800011c <strlen>
 80021e0:	002b      	movs	r3, r5
 80021e2:	9a01      	ldr	r2, [sp, #4]
 80021e4:	33fe      	adds	r3, #254	; 0xfe
 80021e6:	83d8      	strh	r0, [r3, #30]
 80021e8:	3b02      	subs	r3, #2
 80021ea:	625a      	str	r2, [r3, #36]	; 0x24
 80021ec:	2301      	movs	r3, #1
 80021ee:	3598      	adds	r5, #152	; 0x98
 80021f0:	702b      	strb	r3, [r5, #0]
 80021f2:	bdf7      	pop	{r0, r1, r2, r4, r5, r6, r7, pc}
 80021f4:	490a      	ldr	r1, [pc, #40]	; (8002220 <HTTPSendStr+0xf8>)
 80021f6:	f000 fca4 	bl	8002b42 <strcat>
 80021fa:	3419      	adds	r4, #25
 80021fc:	e7bc      	b.n	8002178 <HTTPSendStr+0x50>
 80021fe:	46c0      	nop			; (mov r8, r8)
 8002200:	08002f16 	.word	0x08002f16
 8002204:	08002e3d 	.word	0x08002e3d
 8002208:	08002e43 	.word	0x08002e43
 800220c:	08002e50 	.word	0x08002e50
 8002210:	08002e7f 	.word	0x08002e7f
 8002214:	08002e40 	.word	0x08002e40
 8002218:	08002e8e 	.word	0x08002e8e
 800221c:	08002f13 	.word	0x08002f13
 8002220:	08002e5d 	.word	0x08002e5d

08002224 <HTTPonNotFound>:
 8002224:	b570      	push	{r4, r5, r6, lr}
 8002226:	4c2c      	ldr	r4, [pc, #176]	; (80022d8 <HTTPonNotFound+0xb4>)
 8002228:	1d45      	adds	r5, r0, #5
 800222a:	b09c      	sub	sp, #112	; 0x70
 800222c:	0006      	movs	r6, r0
 800222e:	0029      	movs	r1, r5
 8002230:	0020      	movs	r0, r4
 8002232:	f7ff fc77 	bl	8001b24 <FS_exists>
 8002236:	2800      	cmp	r0, #0
 8002238:	d017      	beq.n	800226a <HTTPonNotFound+0x46>
 800223a:	002a      	movs	r2, r5
 800223c:	0021      	movs	r1, r4
 800223e:	a808      	add	r0, sp, #32
 8002240:	f7ff fc4a 	bl	8001ad8 <FS_open>
 8002244:	9b08      	ldr	r3, [sp, #32]
 8002246:	2b00      	cmp	r3, #0
 8002248:	d030      	beq.n	80022ac <HTTPonNotFound+0x88>
 800224a:	002a      	movs	r2, r5
 800224c:	0021      	movs	r1, r4
 800224e:	a80b      	add	r0, sp, #44	; 0x2c
 8002250:	f7ff fc42 	bl	8001ad8 <FS_open>
 8002254:	9b0d      	ldr	r3, [sp, #52]	; 0x34
 8002256:	9a0b      	ldr	r2, [sp, #44]	; 0x2c
 8002258:	9303      	str	r3, [sp, #12]
 800225a:	9300      	str	r3, [sp, #0]
 800225c:	9b0c      	ldr	r3, [sp, #48]	; 0x30
 800225e:	21c8      	movs	r1, #200	; 0xc8
 8002260:	0030      	movs	r0, r6
 8002262:	f7ff feb1 	bl	8001fc8 <HTTPSendFile>
 8002266:	b01c      	add	sp, #112	; 0x70
 8002268:	bd70      	pop	{r4, r5, r6, pc}
 800226a:	0029      	movs	r1, r5
 800226c:	a80b      	add	r0, sp, #44	; 0x2c
 800226e:	f000 fc84 	bl	8002b7a <strcpy>
 8002272:	491a      	ldr	r1, [pc, #104]	; (80022dc <HTTPonNotFound+0xb8>)
 8002274:	a80b      	add	r0, sp, #44	; 0x2c
 8002276:	f000 fc64 	bl	8002b42 <strcat>
 800227a:	a90b      	add	r1, sp, #44	; 0x2c
 800227c:	0020      	movs	r0, r4
 800227e:	f7ff fc51 	bl	8001b24 <FS_exists>
 8002282:	2800      	cmp	r0, #0
 8002284:	d012      	beq.n	80022ac <HTTPonNotFound+0x88>
 8002286:	aa0b      	add	r2, sp, #44	; 0x2c
 8002288:	0021      	movs	r1, r4
 800228a:	a805      	add	r0, sp, #20
 800228c:	f7ff fc24 	bl	8001ad8 <FS_open>
 8002290:	9b05      	ldr	r3, [sp, #20]
 8002292:	2b00      	cmp	r3, #0
 8002294:	d00a      	beq.n	80022ac <HTTPonNotFound+0x88>
 8002296:	aa0b      	add	r2, sp, #44	; 0x2c
 8002298:	0021      	movs	r1, r4
 800229a:	a808      	add	r0, sp, #32
 800229c:	f7ff fc1c 	bl	8001ad8 <FS_open>
 80022a0:	9b0a      	ldr	r3, [sp, #40]	; 0x28
 80022a2:	9a08      	ldr	r2, [sp, #32]
 80022a4:	9303      	str	r3, [sp, #12]
 80022a6:	9300      	str	r3, [sp, #0]
 80022a8:	9b09      	ldr	r3, [sp, #36]	; 0x24
 80022aa:	e7d8      	b.n	800225e <HTTPonNotFound+0x3a>
 80022ac:	4c0c      	ldr	r4, [pc, #48]	; (80022e0 <HTTPonNotFound+0xbc>)
 80022ae:	490d      	ldr	r1, [pc, #52]	; (80022e4 <HTTPonNotFound+0xc0>)
 80022b0:	0020      	movs	r0, r4
 80022b2:	f000 fc62 	bl	8002b7a <strcpy>
 80022b6:	2240      	movs	r2, #64	; 0x40
 80022b8:	0029      	movs	r1, r5
 80022ba:	0020      	movs	r0, r4
 80022bc:	f000 fc65 	bl	8002b8a <strncat>
 80022c0:	4909      	ldr	r1, [pc, #36]	; (80022e8 <HTTPonNotFound+0xc4>)
 80022c2:	0020      	movs	r0, r4
 80022c4:	f000 fc3d 	bl	8002b42 <strcat>
 80022c8:	21ca      	movs	r1, #202	; 0xca
 80022ca:	0022      	movs	r2, r4
 80022cc:	0049      	lsls	r1, r1, #1
 80022ce:	0030      	movs	r0, r6
 80022d0:	f7ff ff2a 	bl	8002128 <HTTPSendStr>
 80022d4:	e7c7      	b.n	8002266 <HTTPonNotFound+0x42>
 80022d6:	46c0      	nop			; (mov r8, r8)
 80022d8:	20000838 	.word	0x20000838
 80022dc:	08002e39 	.word	0x08002e39
 80022e0:	200007e0 	.word	0x200007e0
 80022e4:	08002f1f 	.word	0x08002f1f
 80022e8:	08002f13 	.word	0x08002f13

080022ec <HTTPHandle>:
 80022ec:	b5f0      	push	{r4, r5, r6, r7, lr}
 80022ee:	2401      	movs	r4, #1
 80022f0:	b087      	sub	sp, #28
 80022f2:	9004      	str	r0, [sp, #16]
 80022f4:	b2e3      	uxtb	r3, r4
 80022f6:	9305      	str	r3, [sp, #20]
 80022f8:	9b04      	ldr	r3, [sp, #16]
 80022fa:	2201      	movs	r2, #1
 80022fc:	785b      	ldrb	r3, [r3, #1]
 80022fe:	4123      	asrs	r3, r4
 8002300:	4213      	tst	r3, r2
 8002302:	d060      	beq.n	80023c6 <HTTPHandle+0xda>
 8002304:	2394      	movs	r3, #148	; 0x94
 8002306:	005b      	lsls	r3, r3, #1
 8002308:	4363      	muls	r3, r4
 800230a:	9302      	str	r3, [sp, #8]
 800230c:	9a02      	ldr	r2, [sp, #8]
 800230e:	4e35      	ldr	r6, [pc, #212]	; (80023e4 <HTTPHandle+0xf8>)
 8002310:	4694      	mov	ip, r2
 8002312:	3e29      	subs	r6, #41	; 0x29
 8002314:	3eff      	subs	r6, #255	; 0xff
 8002316:	18f6      	adds	r6, r6, r3
 8002318:	4b32      	ldr	r3, [pc, #200]	; (80023e4 <HTTPHandle+0xf8>)
 800231a:	4463      	add	r3, ip
 800231c:	1f1a      	subs	r2, r3, #4
 800231e:	9301      	str	r3, [sp, #4]
 8002320:	7813      	ldrb	r3, [r2, #0]
 8002322:	2b00      	cmp	r3, #0
 8002324:	d04f      	beq.n	80023c6 <HTTPHandle+0xda>
 8002326:	2101      	movs	r1, #1
 8002328:	40a1      	lsls	r1, r4
 800232a:	2500      	movs	r5, #0
 800232c:	9b04      	ldr	r3, [sp, #16]
 800232e:	785b      	ldrb	r3, [r3, #1]
 8002330:	438b      	bics	r3, r1
 8002332:	9904      	ldr	r1, [sp, #16]
 8002334:	704b      	strb	r3, [r1, #1]
 8002336:	7015      	strb	r5, [r2, #0]
 8002338:	4662      	mov	r2, ip
 800233a:	4b2a      	ldr	r3, [pc, #168]	; (80023e4 <HTTPHandle+0xf8>)
 800233c:	3b24      	subs	r3, #36	; 0x24
 800233e:	3bff      	subs	r3, #255	; 0xff
 8002340:	189b      	adds	r3, r3, r2
 8002342:	9303      	str	r3, [sp, #12]
 8002344:	4b28      	ldr	r3, [pc, #160]	; (80023e8 <HTTPHandle+0xfc>)
 8002346:	00ef      	lsls	r7, r5, #3
 8002348:	18ff      	adds	r7, r7, r3
 800234a:	2240      	movs	r2, #64	; 0x40
 800234c:	6839      	ldr	r1, [r7, #0]
 800234e:	9803      	ldr	r0, [sp, #12]
 8002350:	f000 fc31 	bl	8002bb6 <strncmp>
 8002354:	2800      	cmp	r0, #0
 8002356:	d13b      	bne.n	80023d0 <HTTPHandle+0xe4>
 8002358:	687b      	ldr	r3, [r7, #4]
 800235a:	0030      	movs	r0, r6
 800235c:	4798      	blx	r3
 800235e:	9b01      	ldr	r3, [sp, #4]
 8002360:	3b90      	subs	r3, #144	; 0x90
 8002362:	9303      	str	r3, [sp, #12]
 8002364:	781b      	ldrb	r3, [r3, #0]
 8002366:	2b01      	cmp	r3, #1
 8002368:	d12d      	bne.n	80023c6 <HTTPHandle+0xda>
 800236a:	23af      	movs	r3, #175	; 0xaf
 800236c:	9e01      	ldr	r6, [sp, #4]
 800236e:	9f01      	ldr	r7, [sp, #4]
 8002370:	3e8e      	subs	r6, #142	; 0x8e
 8002372:	8831      	ldrh	r1, [r6, #0]
 8002374:	3f0c      	subs	r7, #12
 8002376:	00db      	lsls	r3, r3, #3
 8002378:	1a5b      	subs	r3, r3, r1
 800237a:	883a      	ldrh	r2, [r7, #0]
 800237c:	b298      	uxth	r0, r3
 800237e:	1c15      	adds	r5, r2, #0
 8002380:	4282      	cmp	r2, r0
 8002382:	d900      	bls.n	8002386 <HTTPHandle+0x9a>
 8002384:	1c1d      	adds	r5, r3, #0
 8002386:	b2ad      	uxth	r5, r5
 8002388:	1949      	adds	r1, r1, r5
 800238a:	b289      	uxth	r1, r1
 800238c:	9805      	ldr	r0, [sp, #20]
 800238e:	f7ff fa33 	bl	80017f8 <CH395StartSendingData>
 8002392:	4814      	ldr	r0, [pc, #80]	; (80023e4 <HTTPHandle+0xf8>)
 8002394:	9b02      	ldr	r3, [sp, #8]
 8002396:	388c      	subs	r0, #140	; 0x8c
 8002398:	18c0      	adds	r0, r0, r3
 800239a:	8831      	ldrh	r1, [r6, #0]
 800239c:	f7ff fa3f 	bl	800181e <CH395ContinueSendingData>
 80023a0:	9e01      	ldr	r6, [sp, #4]
 80023a2:	0029      	movs	r1, r5
 80023a4:	3e08      	subs	r6, #8
 80023a6:	6830      	ldr	r0, [r6, #0]
 80023a8:	f7ff fa39 	bl	800181e <CH395ContinueSendingData>
 80023ac:	f7ff fa42 	bl	8001834 <CH395Complete>
 80023b0:	883b      	ldrh	r3, [r7, #0]
 80023b2:	6832      	ldr	r2, [r6, #0]
 80023b4:	1b5b      	subs	r3, r3, r5
 80023b6:	b29b      	uxth	r3, r3
 80023b8:	1955      	adds	r5, r2, r5
 80023ba:	803b      	strh	r3, [r7, #0]
 80023bc:	6035      	str	r5, [r6, #0]
 80023be:	2b00      	cmp	r3, #0
 80023c0:	d10d      	bne.n	80023de <HTTPHandle+0xf2>
 80023c2:	9a03      	ldr	r2, [sp, #12]
 80023c4:	7013      	strb	r3, [r2, #0]
 80023c6:	3401      	adds	r4, #1
 80023c8:	2c04      	cmp	r4, #4
 80023ca:	d193      	bne.n	80022f4 <HTTPHandle+0x8>
 80023cc:	b007      	add	sp, #28
 80023ce:	bdf0      	pop	{r4, r5, r6, r7, pc}
 80023d0:	3501      	adds	r5, #1
 80023d2:	2d05      	cmp	r5, #5
 80023d4:	d1b6      	bne.n	8002344 <HTTPHandle+0x58>
 80023d6:	0030      	movs	r0, r6
 80023d8:	f7ff ff24 	bl	8002224 <HTTPonNotFound>
 80023dc:	e7bf      	b.n	800235e <HTTPHandle+0x72>
 80023de:	2302      	movs	r3, #2
 80023e0:	e7ef      	b.n	80023c2 <HTTPHandle+0xd6>
 80023e2:	46c0      	nop			; (mov r8, r8)
 80023e4:	20000468 	.word	0x20000468
 80023e8:	2000040c 	.word	0x2000040c

080023ec <SystemClock_Config>:
 80023ec:	b530      	push	{r4, r5, lr}
 80023ee:	2410      	movs	r4, #16
 80023f0:	b095      	sub	sp, #84	; 0x54
 80023f2:	222c      	movs	r2, #44	; 0x2c
 80023f4:	2100      	movs	r1, #0
 80023f6:	a809      	add	r0, sp, #36	; 0x24
 80023f8:	f000 fb9b 	bl	8002b32 <memset>
 80023fc:	0022      	movs	r2, r4
 80023fe:	2100      	movs	r1, #0
 8002400:	4668      	mov	r0, sp
 8002402:	f000 fb96 	bl	8002b32 <memset>
 8002406:	0022      	movs	r2, r4
 8002408:	2100      	movs	r1, #0
 800240a:	a804      	add	r0, sp, #16
 800240c:	f000 fb91 	bl	8002b32 <memset>
 8002410:	2501      	movs	r5, #1
 8002412:	2302      	movs	r3, #2
 8002414:	a808      	add	r0, sp, #32
 8002416:	9308      	str	r3, [sp, #32]
 8002418:	950b      	str	r5, [sp, #44]	; 0x2c
 800241a:	940c      	str	r4, [sp, #48]	; 0x30
 800241c:	f7fe f864 	bl	80004e8 <HAL_RCC_OscConfig>
 8002420:	2100      	movs	r1, #0
 8002422:	2307      	movs	r3, #7
 8002424:	4668      	mov	r0, sp
 8002426:	9300      	str	r3, [sp, #0]
 8002428:	9101      	str	r1, [sp, #4]
 800242a:	9102      	str	r1, [sp, #8]
 800242c:	9103      	str	r1, [sp, #12]
 800242e:	f7fe fa6f 	bl	8000910 <HAL_RCC_ClockConfig>
 8002432:	2303      	movs	r3, #3
 8002434:	a804      	add	r0, sp, #16
 8002436:	9504      	str	r5, [sp, #16]
 8002438:	9306      	str	r3, [sp, #24]
 800243a:	f7fe fb17 	bl	8000a6c <HAL_RCCEx_PeriphCLKConfig>
 800243e:	b015      	add	sp, #84	; 0x54
 8002440:	bd30      	pop	{r4, r5, pc}
	...

08002444 <main>:
 8002444:	4b70      	ldr	r3, [pc, #448]	; (8002608 <main+0x1c4>)
 8002446:	b5f0      	push	{r4, r5, r6, r7, lr}
 8002448:	0018      	movs	r0, r3
 800244a:	4a70      	ldr	r2, [pc, #448]	; (800260c <main+0x1c8>)
 800244c:	b089      	sub	sp, #36	; 0x24
 800244e:	ca12      	ldmia	r2!, {r1, r4}
 8002450:	c012      	stmia	r0!, {r1, r4}
 8002452:	0001      	movs	r1, r0
 8002454:	4a6e      	ldr	r2, [pc, #440]	; (8002610 <main+0x1cc>)
 8002456:	4f6f      	ldr	r7, [pc, #444]	; (8002614 <main+0x1d0>)
 8002458:	ca11      	ldmia	r2!, {r0, r4}
 800245a:	c111      	stmia	r1!, {r0, r4}
 800245c:	4a6e      	ldr	r2, [pc, #440]	; (8002618 <main+0x1d4>)
 800245e:	2602      	movs	r6, #2
 8002460:	ca11      	ldmia	r2!, {r0, r4}
 8002462:	c111      	stmia	r1!, {r0, r4}
 8002464:	2400      	movs	r4, #0
 8002466:	001a      	movs	r2, r3
 8002468:	496c      	ldr	r1, [pc, #432]	; (800261c <main+0x1d8>)
 800246a:	761c      	strb	r4, [r3, #24]
 800246c:	321c      	adds	r2, #28
 800246e:	c921      	ldmia	r1!, {r0, r5}
 8002470:	c221      	stmia	r2!, {r0, r5}
 8002472:	001a      	movs	r2, r3
 8002474:	496a      	ldr	r1, [pc, #424]	; (8002620 <main+0x1dc>)
 8002476:	3224      	adds	r2, #36	; 0x24
 8002478:	c921      	ldmia	r1!, {r0, r5}
 800247a:	c221      	stmia	r2!, {r0, r5}
 800247c:	4a69      	ldr	r2, [pc, #420]	; (8002624 <main+0x1e0>)
 800247e:	332c      	adds	r3, #44	; 0x2c
 8002480:	ca03      	ldmia	r2!, {r0, r1}
 8002482:	c303      	stmia	r3!, {r0, r1}
 8002484:	f7fd fefa 	bl	800027c <HAL_Init>
 8002488:	f7ff ffb0 	bl	80023ec <SystemClock_Config>
 800248c:	2214      	movs	r2, #20
 800248e:	0021      	movs	r1, r4
 8002490:	a803      	add	r0, sp, #12
 8002492:	f000 fb4e 	bl	8002b32 <memset>
 8002496:	2080      	movs	r0, #128	; 0x80
 8002498:	4b63      	ldr	r3, [pc, #396]	; (8002628 <main+0x1e4>)
 800249a:	03c0      	lsls	r0, r0, #15
 800249c:	6959      	ldr	r1, [r3, #20]
 800249e:	2501      	movs	r5, #1
 80024a0:	4301      	orrs	r1, r0
 80024a2:	6159      	str	r1, [r3, #20]
 80024a4:	695a      	ldr	r2, [r3, #20]
 80024a6:	4002      	ands	r2, r0
 80024a8:	2080      	movs	r0, #128	; 0x80
 80024aa:	9200      	str	r2, [sp, #0]
 80024ac:	9a00      	ldr	r2, [sp, #0]
 80024ae:	6959      	ldr	r1, [r3, #20]
 80024b0:	0280      	lsls	r0, r0, #10
 80024b2:	4301      	orrs	r1, r0
 80024b4:	6159      	str	r1, [r3, #20]
 80024b6:	2180      	movs	r1, #128	; 0x80
 80024b8:	695a      	ldr	r2, [r3, #20]
 80024ba:	02c9      	lsls	r1, r1, #11
 80024bc:	4002      	ands	r2, r0
 80024be:	9201      	str	r2, [sp, #4]
 80024c0:	9a01      	ldr	r2, [sp, #4]
 80024c2:	695a      	ldr	r2, [r3, #20]
 80024c4:	4859      	ldr	r0, [pc, #356]	; (800262c <main+0x1e8>)
 80024c6:	430a      	orrs	r2, r1
 80024c8:	615a      	str	r2, [r3, #20]
 80024ca:	695b      	ldr	r3, [r3, #20]
 80024cc:	0022      	movs	r2, r4
 80024ce:	400b      	ands	r3, r1
 80024d0:	9302      	str	r3, [sp, #8]
 80024d2:	2103      	movs	r1, #3
 80024d4:	9b02      	ldr	r3, [sp, #8]
 80024d6:	f7fd fff3 	bl	80004c0 <HAL_GPIO_WritePin>
 80024da:	2090      	movs	r0, #144	; 0x90
 80024dc:	0022      	movs	r2, r4
 80024de:	0039      	movs	r1, r7
 80024e0:	05c0      	lsls	r0, r0, #23
 80024e2:	f7fd ffed 	bl	80004c0 <HAL_GPIO_WritePin>
 80024e6:	2090      	movs	r0, #144	; 0x90
 80024e8:	2201      	movs	r2, #1
 80024ea:	2110      	movs	r1, #16
 80024ec:	05c0      	lsls	r0, r0, #23
 80024ee:	f7fd ffe7 	bl	80004c0 <HAL_GPIO_WritePin>
 80024f2:	2303      	movs	r3, #3
 80024f4:	a903      	add	r1, sp, #12
 80024f6:	484d      	ldr	r0, [pc, #308]	; (800262c <main+0x1e8>)
 80024f8:	9303      	str	r3, [sp, #12]
 80024fa:	9504      	str	r5, [sp, #16]
 80024fc:	9605      	str	r6, [sp, #20]
 80024fe:	9406      	str	r4, [sp, #24]
 8002500:	f7fd ff28 	bl	8000354 <HAL_GPIO_Init>
 8002504:	2090      	movs	r0, #144	; 0x90
 8002506:	a903      	add	r1, sp, #12
 8002508:	05c0      	lsls	r0, r0, #23
 800250a:	9703      	str	r7, [sp, #12]
 800250c:	9504      	str	r5, [sp, #16]
 800250e:	9605      	str	r6, [sp, #20]
 8002510:	9406      	str	r4, [sp, #24]
 8002512:	f7fd ff1f 	bl	8000354 <HAL_GPIO_Init>
 8002516:	2090      	movs	r0, #144	; 0x90
 8002518:	2310      	movs	r3, #16
 800251a:	a903      	add	r1, sp, #12
 800251c:	05c0      	lsls	r0, r0, #23
 800251e:	9303      	str	r3, [sp, #12]
 8002520:	9504      	str	r5, [sp, #16]
 8002522:	9505      	str	r5, [sp, #20]
 8002524:	9406      	str	r4, [sp, #24]
 8002526:	f7fd ff15 	bl	8000354 <HAL_GPIO_Init>
 800252a:	4b41      	ldr	r3, [pc, #260]	; (8002630 <main+0x1ec>)
 800252c:	a903      	add	r1, sp, #12
 800252e:	4841      	ldr	r0, [pc, #260]	; (8002634 <main+0x1f0>)
 8002530:	9304      	str	r3, [sp, #16]
 8002532:	9603      	str	r6, [sp, #12]
 8002534:	9505      	str	r5, [sp, #20]
 8002536:	f7fd ff0d 	bl	8000354 <HAL_GPIO_Init>
 800253a:	483f      	ldr	r0, [pc, #252]	; (8002638 <main+0x1f4>)
 800253c:	4b3f      	ldr	r3, [pc, #252]	; (800263c <main+0x1f8>)
 800253e:	6084      	str	r4, [r0, #8]
 8002540:	6003      	str	r3, [r0, #0]
 8002542:	2382      	movs	r3, #130	; 0x82
 8002544:	005b      	lsls	r3, r3, #1
 8002546:	6043      	str	r3, [r0, #4]
 8002548:	23e0      	movs	r3, #224	; 0xe0
 800254a:	00db      	lsls	r3, r3, #3
 800254c:	60c3      	str	r3, [r0, #12]
 800254e:	2380      	movs	r3, #128	; 0x80
 8002550:	009b      	lsls	r3, r3, #2
 8002552:	6183      	str	r3, [r0, #24]
 8002554:	3bfa      	subs	r3, #250	; 0xfa
 8002556:	3bff      	subs	r3, #255	; 0xff
 8002558:	62c3      	str	r3, [r0, #44]	; 0x2c
 800255a:	6106      	str	r6, [r0, #16]
 800255c:	6145      	str	r5, [r0, #20]
 800255e:	61c4      	str	r4, [r0, #28]
 8002560:	6204      	str	r4, [r0, #32]
 8002562:	6244      	str	r4, [r0, #36]	; 0x24
 8002564:	6284      	str	r4, [r0, #40]	; 0x28
 8002566:	6304      	str	r4, [r0, #48]	; 0x30
 8002568:	6344      	str	r4, [r0, #52]	; 0x34
 800256a:	f7fe fbcf 	bl	8000d0c <HAL_SPI_Init>
 800256e:	4834      	ldr	r0, [pc, #208]	; (8002640 <main+0x1fc>)
 8002570:	4b34      	ldr	r3, [pc, #208]	; (8002644 <main+0x200>)
 8002572:	6084      	str	r4, [r0, #8]
 8002574:	6003      	str	r3, [r0, #0]
 8002576:	2396      	movs	r3, #150	; 0x96
 8002578:	019b      	lsls	r3, r3, #6
 800257a:	6043      	str	r3, [r0, #4]
 800257c:	230c      	movs	r3, #12
 800257e:	60c4      	str	r4, [r0, #12]
 8002580:	6143      	str	r3, [r0, #20]
 8002582:	6104      	str	r4, [r0, #16]
 8002584:	6184      	str	r4, [r0, #24]
 8002586:	61c4      	str	r4, [r0, #28]
 8002588:	6204      	str	r4, [r0, #32]
 800258a:	6244      	str	r4, [r0, #36]	; 0x24
 800258c:	f7fe ffb6 	bl	80014fc <HAL_UART_Init>
 8002590:	0021      	movs	r1, r4
 8002592:	0022      	movs	r2, r4
 8002594:	2005      	movs	r0, #5
 8002596:	f7fd fe8f 	bl	80002b8 <HAL_NVIC_SetPriority>
 800259a:	2005      	movs	r0, #5
 800259c:	f7fd feb6 	bl	800030c <HAL_NVIC_EnableIRQ>
 80025a0:	4929      	ldr	r1, [pc, #164]	; (8002648 <main+0x204>)
 80025a2:	482a      	ldr	r0, [pc, #168]	; (800264c <main+0x208>)
 80025a4:	f7ff fa8a 	bl	8001abc <FS_begin>
 80025a8:	2500      	movs	r5, #0
 80025aa:	4829      	ldr	r0, [pc, #164]	; (8002650 <main+0x20c>)
 80025ac:	f7ff fa72 	bl	8001a94 <Delay_us>
 80025b0:	f7ff f81e 	bl	80015f0 <CH395CMDReset>
 80025b4:	4827      	ldr	r0, [pc, #156]	; (8002654 <main+0x210>)
 80025b6:	f7ff fa6d 	bl	8001a94 <Delay_us>
 80025ba:	4a27      	ldr	r2, [pc, #156]	; (8002658 <main+0x214>)
 80025bc:	4b27      	ldr	r3, [pc, #156]	; (800265c <main+0x218>)
 80025be:	7810      	ldrb	r0, [r2, #0]
 80025c0:	8819      	ldrh	r1, [r3, #0]
 80025c2:	7853      	ldrb	r3, [r2, #1]
 80025c4:	4c26      	ldr	r4, [pc, #152]	; (8002660 <main+0x21c>)
 80025c6:	021b      	lsls	r3, r3, #8
 80025c8:	4303      	orrs	r3, r0
 80025ca:	7890      	ldrb	r0, [r2, #2]
 80025cc:	7025      	strb	r5, [r4, #0]
 80025ce:	0400      	lsls	r0, r0, #16
 80025d0:	4303      	orrs	r3, r0
 80025d2:	78d0      	ldrb	r0, [r2, #3]
 80025d4:	0600      	lsls	r0, r0, #24
 80025d6:	4318      	orrs	r0, r3
 80025d8:	f7fe ffcc 	bl	8001574 <CH395TCPServerStart>
 80025dc:	4e21      	ldr	r6, [pc, #132]	; (8002664 <main+0x220>)
 80025de:	4f22      	ldr	r7, [pc, #136]	; (8002668 <main+0x224>)
 80025e0:	7020      	strb	r0, [r4, #0]
 80025e2:	7035      	strb	r5, [r6, #0]
 80025e4:	703d      	strb	r5, [r7, #0]
 80025e6:	4821      	ldr	r0, [pc, #132]	; (800266c <main+0x228>)
 80025e8:	7833      	ldrb	r3, [r6, #0]
 80025ea:	2b00      	cmp	r3, #0
 80025ec:	d1dc      	bne.n	80025a8 <main+0x164>
 80025ee:	783b      	ldrb	r3, [r7, #0]
 80025f0:	2b00      	cmp	r3, #0
 80025f2:	d1d9      	bne.n	80025a8 <main+0x164>
 80025f4:	7823      	ldrb	r3, [r4, #0]
 80025f6:	2b00      	cmp	r3, #0
 80025f8:	d0f6      	beq.n	80025e8 <main+0x1a4>
 80025fa:	7843      	ldrb	r3, [r0, #1]
 80025fc:	2b00      	cmp	r3, #0
 80025fe:	d0f3      	beq.n	80025e8 <main+0x1a4>
 8002600:	f7ff fe74 	bl	80022ec <HTTPHandle>
 8002604:	e7ef      	b.n	80025e6 <main+0x1a2>
 8002606:	46c0      	nop			; (mov r8, r8)
 8002608:	20000844 	.word	0x20000844
 800260c:	08002f38 	.word	0x08002f38
 8002610:	08002f40 	.word	0x08002f40
 8002614:	00000603 	.word	0x00000603
 8002618:	08002f48 	.word	0x08002f48
 800261c:	08002f50 	.word	0x08002f50
 8002620:	08002f58 	.word	0x08002f58
 8002624:	08002f60 	.word	0x08002f60
 8002628:	40021000 	.word	0x40021000
 800262c:	48001400 	.word	0x48001400
 8002630:	10210000 	.word	0x10210000
 8002634:	48000400 	.word	0x48000400
 8002638:	200008ec 	.word	0x200008ec
 800263c:	40013000 	.word	0x40013000
 8002640:	2000087c 	.word	0x2000087c
 8002644:	40013800 	.word	0x40013800
 8002648:	08002d90 	.word	0x08002d90
 800264c:	20000838 	.word	0x20000838
 8002650:	000493e0 	.word	0x000493e0
 8002654:	00030d40 	.word	0x00030d40
 8002658:	20000434 	.word	0x20000434
 800265c:	20000438 	.word	0x20000438
 8002660:	20000830 	.word	0x20000830
 8002664:	20000841 	.word	0x20000841
 8002668:	20000840 	.word	0x20000840
 800266c:	20000008 	.word	0x20000008

08002670 <interrupt_CH395>:
 8002670:	b5f0      	push	{r4, r5, r6, r7, lr}
 8002672:	b087      	sub	sp, #28
 8002674:	f7fe ffee 	bl	8001654 <CH395CMDGetGlobIntStatus>
 8002678:	0743      	lsls	r3, r0, #29
 800267a:	d502      	bpl.n	8002682 <interrupt_CH395+0x12>
 800267c:	2201      	movs	r2, #1
 800267e:	4b69      	ldr	r3, [pc, #420]	; (8002824 <interrupt_CH395+0x1b4>)
 8002680:	701a      	strb	r2, [r3, #0]
 8002682:	0900      	lsrs	r0, r0, #4
 8002684:	b2c3      	uxtb	r3, r0
 8002686:	9300      	str	r3, [sp, #0]
 8002688:	2b00      	cmp	r3, #0
 800268a:	d100      	bne.n	800268e <interrupt_CH395+0x1e>
 800268c:	e091      	b.n	80027b2 <interrupt_CH395+0x142>
 800268e:	2501      	movs	r5, #1
 8002690:	2201      	movs	r2, #1
 8002692:	9b00      	ldr	r3, [sp, #0]
 8002694:	b2ef      	uxtb	r7, r5
 8002696:	085b      	lsrs	r3, r3, #1
 8002698:	9300      	str	r3, [sp, #0]
 800269a:	4213      	tst	r3, r2
 800269c:	d100      	bne.n	80026a0 <interrupt_CH395+0x30>
 800269e:	e084      	b.n	80027aa <interrupt_CH395+0x13a>
 80026a0:	0038      	movs	r0, r7
 80026a2:	f7ff f963 	bl	800196c <CH395GetSocketInt>
 80026a6:	2201      	movs	r2, #1
 80026a8:	9001      	str	r0, [sp, #4]
 80026aa:	4210      	tst	r0, r2
 80026ac:	d037      	beq.n	800271e <interrupt_CH395+0xae>
 80026ae:	2301      	movs	r3, #1
 80026b0:	40ab      	lsls	r3, r5
 80026b2:	2094      	movs	r0, #148	; 0x94
 80026b4:	4a5c      	ldr	r2, [pc, #368]	; (8002828 <interrupt_CH395+0x1b8>)
 80026b6:	0040      	lsls	r0, r0, #1
 80026b8:	7891      	ldrb	r1, [r2, #2]
 80026ba:	4368      	muls	r0, r5
 80026bc:	430b      	orrs	r3, r1
 80026be:	b2db      	uxtb	r3, r3
 80026c0:	7093      	strb	r3, [r2, #2]
 80026c2:	4b5a      	ldr	r3, [pc, #360]	; (800282c <interrupt_CH395+0x1bc>)
 80026c4:	4a59      	ldr	r2, [pc, #356]	; (800282c <interrupt_CH395+0x1bc>)
 80026c6:	3b29      	subs	r3, #41	; 0x29
 80026c8:	3bff      	subs	r3, #255	; 0xff
 80026ca:	181b      	adds	r3, r3, r0
 80026cc:	1884      	adds	r4, r0, r2
 80026ce:	9304      	str	r3, [sp, #16]
 80026d0:	0023      	movs	r3, r4
 80026d2:	3b90      	subs	r3, #144	; 0x90
 80026d4:	9303      	str	r3, [sp, #12]
 80026d6:	781b      	ldrb	r3, [r3, #0]
 80026d8:	9002      	str	r0, [sp, #8]
 80026da:	2b02      	cmp	r3, #2
 80026dc:	d000      	beq.n	80026e0 <interrupt_CH395+0x70>
 80026de:	e06a      	b.n	80027b6 <interrupt_CH395+0x146>
 80026e0:	0023      	movs	r3, r4
 80026e2:	3b0c      	subs	r3, #12
 80026e4:	881a      	ldrh	r2, [r3, #0]
 80026e6:	9302      	str	r3, [sp, #8]
 80026e8:	23af      	movs	r3, #175	; 0xaf
 80026ea:	3c08      	subs	r4, #8
 80026ec:	1c16      	adds	r6, r2, #0
 80026ee:	00db      	lsls	r3, r3, #3
 80026f0:	429a      	cmp	r2, r3
 80026f2:	d900      	bls.n	80026f6 <interrupt_CH395+0x86>
 80026f4:	1c1e      	adds	r6, r3, #0
 80026f6:	b2b6      	uxth	r6, r6
 80026f8:	0032      	movs	r2, r6
 80026fa:	6821      	ldr	r1, [r4, #0]
 80026fc:	0038      	movs	r0, r7
 80026fe:	f7ff f843 	bl	8001788 <CH395SendData>
 8002702:	9b02      	ldr	r3, [sp, #8]
 8002704:	9a02      	ldr	r2, [sp, #8]
 8002706:	881b      	ldrh	r3, [r3, #0]
 8002708:	1b9b      	subs	r3, r3, r6
 800270a:	b29b      	uxth	r3, r3
 800270c:	8013      	strh	r3, [r2, #0]
 800270e:	6822      	ldr	r2, [r4, #0]
 8002710:	1996      	adds	r6, r2, r6
 8002712:	6026      	str	r6, [r4, #0]
 8002714:	2b00      	cmp	r3, #0
 8002716:	d102      	bne.n	800271e <interrupt_CH395+0xae>
 8002718:	9804      	ldr	r0, [sp, #16]
 800271a:	f7ff fa93 	bl	8001c44 <resetHTTPParseState>
 800271e:	2204      	movs	r2, #4
 8002720:	9b01      	ldr	r3, [sp, #4]
 8002722:	4213      	tst	r3, r2
 8002724:	d029      	beq.n	800277a <interrupt_CH395+0x10a>
 8002726:	2694      	movs	r6, #148	; 0x94
 8002728:	0038      	movs	r0, r7
 800272a:	4c40      	ldr	r4, [pc, #256]	; (800282c <interrupt_CH395+0x1bc>)
 800272c:	f7ff f88c 	bl	8001848 <CH395GetRecvLength>
 8002730:	0076      	lsls	r6, r6, #1
 8002732:	436e      	muls	r6, r5
 8002734:	3c29      	subs	r4, #41	; 0x29
 8002736:	4b3e      	ldr	r3, [pc, #248]	; (8002830 <interrupt_CH395+0x1c0>)
 8002738:	3cff      	subs	r4, #255	; 0xff
 800273a:	19a4      	adds	r4, r4, r6
 800273c:	1c01      	adds	r1, r0, #0
 800273e:	4298      	cmp	r0, r3
 8002740:	d900      	bls.n	8002744 <interrupt_CH395+0xd4>
 8002742:	1c19      	adds	r1, r3, #0
 8002744:	b289      	uxth	r1, r1
 8002746:	4a3b      	ldr	r2, [pc, #236]	; (8002834 <interrupt_CH395+0x1c4>)
 8002748:	0038      	movs	r0, r7
 800274a:	f7ff f8a9 	bl	80018a0 <CH395GetRecvData>
 800274e:	0020      	movs	r0, r4
 8002750:	f7ff fa78 	bl	8001c44 <resetHTTPParseState>
 8002754:	4b35      	ldr	r3, [pc, #212]	; (800282c <interrupt_CH395+0x1bc>)
 8002756:	3e03      	subs	r6, #3
 8002758:	559f      	strb	r7, [r3, r6]
 800275a:	4936      	ldr	r1, [pc, #216]	; (8002834 <interrupt_CH395+0x1c4>)
 800275c:	0020      	movs	r0, r4
 800275e:	f7ff faff 	bl	8001d60 <parse_http>
 8002762:	2800      	cmp	r0, #0
 8002764:	d006      	beq.n	8002774 <interrupt_CH395+0x104>
 8002766:	2301      	movs	r3, #1
 8002768:	40ab      	lsls	r3, r5
 800276a:	4a2f      	ldr	r2, [pc, #188]	; (8002828 <interrupt_CH395+0x1b8>)
 800276c:	7851      	ldrb	r1, [r2, #1]
 800276e:	430b      	orrs	r3, r1
 8002770:	b2db      	uxtb	r3, r3
 8002772:	7053      	strb	r3, [r2, #1]
 8002774:	0038      	movs	r0, r7
 8002776:	f7ff f881 	bl	800187c <CH395ClearRecvBuf>
 800277a:	9b01      	ldr	r3, [sp, #4]
 800277c:	071b      	lsls	r3, r3, #28
 800277e:	d506      	bpl.n	800278e <interrupt_CH395+0x11e>
 8002780:	2301      	movs	r3, #1
 8002782:	40ab      	lsls	r3, r5
 8002784:	4a28      	ldr	r2, [pc, #160]	; (8002828 <interrupt_CH395+0x1b8>)
 8002786:	7811      	ldrb	r1, [r2, #0]
 8002788:	430b      	orrs	r3, r1
 800278a:	b2db      	uxtb	r3, r3
 800278c:	7013      	strb	r3, [r2, #0]
 800278e:	9b01      	ldr	r3, [sp, #4]
 8002790:	06db      	lsls	r3, r3, #27
 8002792:	d50a      	bpl.n	80027aa <interrupt_CH395+0x13a>
 8002794:	2301      	movs	r3, #1
 8002796:	40ab      	lsls	r3, r5
 8002798:	43db      	mvns	r3, r3
 800279a:	4a23      	ldr	r2, [pc, #140]	; (8002828 <interrupt_CH395+0x1b8>)
 800279c:	b25b      	sxtb	r3, r3
 800279e:	7811      	ldrb	r1, [r2, #0]
 80027a0:	4019      	ands	r1, r3
 80027a2:	7011      	strb	r1, [r2, #0]
 80027a4:	7851      	ldrb	r1, [r2, #1]
 80027a6:	400b      	ands	r3, r1
 80027a8:	7053      	strb	r3, [r2, #1]
 80027aa:	3501      	adds	r5, #1
 80027ac:	2d04      	cmp	r5, #4
 80027ae:	d000      	beq.n	80027b2 <interrupt_CH395+0x142>
 80027b0:	e76e      	b.n	8002690 <interrupt_CH395+0x20>
 80027b2:	b007      	add	sp, #28
 80027b4:	bdf0      	pop	{r4, r5, r6, r7, pc}
 80027b6:	2b01      	cmp	r3, #1
 80027b8:	d1b1      	bne.n	800271e <interrupt_CH395+0xae>
 80027ba:	0023      	movs	r3, r4
 80027bc:	3b8e      	subs	r3, #142	; 0x8e
 80027be:	8819      	ldrh	r1, [r3, #0]
 80027c0:	9305      	str	r3, [sp, #20]
 80027c2:	3382      	adds	r3, #130	; 0x82
 80027c4:	9304      	str	r3, [sp, #16]
 80027c6:	23af      	movs	r3, #175	; 0xaf
 80027c8:	9a04      	ldr	r2, [sp, #16]
 80027ca:	00db      	lsls	r3, r3, #3
 80027cc:	1a5b      	subs	r3, r3, r1
 80027ce:	8812      	ldrh	r2, [r2, #0]
 80027d0:	b298      	uxth	r0, r3
 80027d2:	1c16      	adds	r6, r2, #0
 80027d4:	4282      	cmp	r2, r0
 80027d6:	d900      	bls.n	80027da <interrupt_CH395+0x16a>
 80027d8:	1c1e      	adds	r6, r3, #0
 80027da:	b2b6      	uxth	r6, r6
 80027dc:	1989      	adds	r1, r1, r6
 80027de:	b289      	uxth	r1, r1
 80027e0:	0038      	movs	r0, r7
 80027e2:	f7ff f809 	bl	80017f8 <CH395StartSendingData>
 80027e6:	9b05      	ldr	r3, [sp, #20]
 80027e8:	4810      	ldr	r0, [pc, #64]	; (800282c <interrupt_CH395+0x1bc>)
 80027ea:	8819      	ldrh	r1, [r3, #0]
 80027ec:	9b02      	ldr	r3, [sp, #8]
 80027ee:	388c      	subs	r0, #140	; 0x8c
 80027f0:	18c0      	adds	r0, r0, r3
 80027f2:	3c08      	subs	r4, #8
 80027f4:	f7ff f813 	bl	800181e <CH395ContinueSendingData>
 80027f8:	0031      	movs	r1, r6
 80027fa:	6820      	ldr	r0, [r4, #0]
 80027fc:	f7ff f80f 	bl	800181e <CH395ContinueSendingData>
 8002800:	f7ff f818 	bl	8001834 <CH395Complete>
 8002804:	9b04      	ldr	r3, [sp, #16]
 8002806:	9a04      	ldr	r2, [sp, #16]
 8002808:	881b      	ldrh	r3, [r3, #0]
 800280a:	1b9b      	subs	r3, r3, r6
 800280c:	b29b      	uxth	r3, r3
 800280e:	8013      	strh	r3, [r2, #0]
 8002810:	6822      	ldr	r2, [r4, #0]
 8002812:	1996      	adds	r6, r2, r6
 8002814:	6026      	str	r6, [r4, #0]
 8002816:	2b00      	cmp	r3, #0
 8002818:	d102      	bne.n	8002820 <interrupt_CH395+0x1b0>
 800281a:	9a03      	ldr	r2, [sp, #12]
 800281c:	7013      	strb	r3, [r2, #0]
 800281e:	e77e      	b.n	800271e <interrupt_CH395+0xae>
 8002820:	2302      	movs	r3, #2
 8002822:	e7fa      	b.n	800281a <interrupt_CH395+0x1aa>
 8002824:	20000841 	.word	0x20000841
 8002828:	20000008 	.word	0x20000008
 800282c:	20000468 	.word	0x20000468
 8002830:	000003ff 	.word	0x000003ff
 8002834:	2000000b 	.word	0x2000000b

08002838 <switch_Antenna>:
 8002838:	b5f0      	push	{r4, r5, r6, r7, lr}
 800283a:	4c22      	ldr	r4, [pc, #136]	; (80028c4 <switch_Antenna+0x8c>)
 800283c:	b085      	sub	sp, #20
 800283e:	0023      	movs	r3, r4
 8002840:	3334      	adds	r3, #52	; 0x34
 8002842:	0005      	movs	r5, r0
 8002844:	7620      	strb	r0, [r4, #24]
 8002846:	7019      	strb	r1, [r3, #0]
 8002848:	4288      	cmp	r0, r1
 800284a:	d101      	bne.n	8002850 <switch_Antenna+0x18>
 800284c:	2800      	cmp	r0, #0
 800284e:	d137      	bne.n	80028c0 <switch_Antenna+0x88>
 8002850:	2701      	movs	r7, #1
 8002852:	002a      	movs	r2, r5
 8002854:	89a3      	ldrh	r3, [r4, #12]
 8002856:	68a6      	ldr	r6, [r4, #8]
 8002858:	9302      	str	r3, [sp, #8]
 800285a:	6923      	ldr	r3, [r4, #16]
 800285c:	403a      	ands	r2, r7
 800285e:	9300      	str	r3, [sp, #0]
 8002860:	8aa3      	ldrh	r3, [r4, #20]
 8002862:	88a1      	ldrh	r1, [r4, #4]
 8002864:	6820      	ldr	r0, [r4, #0]
 8002866:	9301      	str	r3, [sp, #4]
 8002868:	f7fd fe2a 	bl	80004c0 <HAL_GPIO_WritePin>
 800286c:	0030      	movs	r0, r6
 800286e:	2602      	movs	r6, #2
 8002870:	086a      	lsrs	r2, r5, #1
 8002872:	403a      	ands	r2, r7
 8002874:	9902      	ldr	r1, [sp, #8]
 8002876:	f7fd fe23 	bl	80004c0 <HAL_GPIO_WritePin>
 800287a:	08aa      	lsrs	r2, r5, #2
 800287c:	4032      	ands	r2, r6
 800287e:	9901      	ldr	r1, [sp, #4]
 8002880:	9800      	ldr	r0, [sp, #0]
 8002882:	f7fd fe1d 	bl	80004c0 <HAL_GPIO_WritePin>
 8002886:	6a63      	ldr	r3, [r4, #36]	; 0x24
 8002888:	8c21      	ldrh	r1, [r4, #32]
 800288a:	9300      	str	r3, [sp, #0]
 800288c:	8d23      	ldrh	r3, [r4, #40]	; 0x28
 800288e:	69e0      	ldr	r0, [r4, #28]
 8002890:	9301      	str	r3, [sp, #4]
 8002892:	6ae3      	ldr	r3, [r4, #44]	; 0x2c
 8002894:	9302      	str	r3, [sp, #8]
 8002896:	8e23      	ldrh	r3, [r4, #48]	; 0x30
 8002898:	9303      	str	r3, [sp, #12]
 800289a:	0023      	movs	r3, r4
 800289c:	3334      	adds	r3, #52	; 0x34
 800289e:	781d      	ldrb	r5, [r3, #0]
 80028a0:	002a      	movs	r2, r5
 80028a2:	403a      	ands	r2, r7
 80028a4:	f7fd fe0c 	bl	80004c0 <HAL_GPIO_WritePin>
 80028a8:	086a      	lsrs	r2, r5, #1
 80028aa:	403a      	ands	r2, r7
 80028ac:	9901      	ldr	r1, [sp, #4]
 80028ae:	9800      	ldr	r0, [sp, #0]
 80028b0:	f7fd fe06 	bl	80004c0 <HAL_GPIO_WritePin>
 80028b4:	08aa      	lsrs	r2, r5, #2
 80028b6:	4032      	ands	r2, r6
 80028b8:	9903      	ldr	r1, [sp, #12]
 80028ba:	9802      	ldr	r0, [sp, #8]
 80028bc:	f7fd fe00 	bl	80004c0 <HAL_GPIO_WritePin>
 80028c0:	b005      	add	sp, #20
 80028c2:	bdf0      	pop	{r4, r5, r6, r7, pc}
 80028c4:	20000844 	.word	0x20000844

080028c8 <get_Antenna>:
 80028c8:	b510      	push	{r4, lr}
 80028ca:	2081      	movs	r0, #129	; 0x81
 80028cc:	f7ff f886 	bl	80019dc <CH395ReadGPIOAddr>
 80028d0:	2104      	movs	r1, #4
 80028d2:	0743      	lsls	r3, r0, #29
 80028d4:	0082      	lsls	r2, r0, #2
 80028d6:	400a      	ands	r2, r1
 80028d8:	0fdb      	lsrs	r3, r3, #31
 80028da:	4313      	orrs	r3, r2
 80028dc:	2202      	movs	r2, #2
 80028de:	4002      	ands	r2, r0
 80028e0:	4313      	orrs	r3, r2
 80028e2:	2210      	movs	r2, #16
 80028e4:	4002      	ands	r2, r0
 80028e6:	4313      	orrs	r3, r2
 80028e8:	311c      	adds	r1, #28
 80028ea:	0842      	lsrs	r2, r0, #1
 80028ec:	400a      	ands	r2, r1
 80028ee:	4313      	orrs	r3, r2
 80028f0:	2240      	movs	r2, #64	; 0x40
 80028f2:	0040      	lsls	r0, r0, #1
 80028f4:	4010      	ands	r0, r2
 80028f6:	4318      	orrs	r0, r3
 80028f8:	bd10      	pop	{r4, pc}
	...

080028fc <HAL_MspInit>:
 80028fc:	2001      	movs	r0, #1
 80028fe:	4b0a      	ldr	r3, [pc, #40]	; (8002928 <HAL_MspInit+0x2c>)
 8002900:	b082      	sub	sp, #8
 8002902:	6999      	ldr	r1, [r3, #24]
 8002904:	4301      	orrs	r1, r0
 8002906:	6199      	str	r1, [r3, #24]
 8002908:	2180      	movs	r1, #128	; 0x80
 800290a:	699a      	ldr	r2, [r3, #24]
 800290c:	0549      	lsls	r1, r1, #21
 800290e:	4002      	ands	r2, r0
 8002910:	9200      	str	r2, [sp, #0]
 8002912:	9a00      	ldr	r2, [sp, #0]
 8002914:	69da      	ldr	r2, [r3, #28]
 8002916:	430a      	orrs	r2, r1
 8002918:	61da      	str	r2, [r3, #28]
 800291a:	69db      	ldr	r3, [r3, #28]
 800291c:	400b      	ands	r3, r1
 800291e:	9301      	str	r3, [sp, #4]
 8002920:	9b01      	ldr	r3, [sp, #4]
 8002922:	b002      	add	sp, #8
 8002924:	4770      	bx	lr
 8002926:	46c0      	nop			; (mov r8, r8)
 8002928:	40021000 	.word	0x40021000

0800292c <HAL_SPI_MspInit>:
 800292c:	b510      	push	{r4, lr}
 800292e:	0004      	movs	r4, r0
 8002930:	b088      	sub	sp, #32
 8002932:	2214      	movs	r2, #20
 8002934:	2100      	movs	r1, #0
 8002936:	a803      	add	r0, sp, #12
 8002938:	f000 f8fb 	bl	8002b32 <memset>
 800293c:	4b12      	ldr	r3, [pc, #72]	; (8002988 <HAL_SPI_MspInit+0x5c>)
 800293e:	6822      	ldr	r2, [r4, #0]
 8002940:	429a      	cmp	r2, r3
 8002942:	d11f      	bne.n	8002984 <HAL_SPI_MspInit+0x58>
 8002944:	2080      	movs	r0, #128	; 0x80
 8002946:	4b11      	ldr	r3, [pc, #68]	; (800298c <HAL_SPI_MspInit+0x60>)
 8002948:	0140      	lsls	r0, r0, #5
 800294a:	6999      	ldr	r1, [r3, #24]
 800294c:	4301      	orrs	r1, r0
 800294e:	6199      	str	r1, [r3, #24]
 8002950:	2180      	movs	r1, #128	; 0x80
 8002952:	699a      	ldr	r2, [r3, #24]
 8002954:	0289      	lsls	r1, r1, #10
 8002956:	4002      	ands	r2, r0
 8002958:	9201      	str	r2, [sp, #4]
 800295a:	9a01      	ldr	r2, [sp, #4]
 800295c:	695a      	ldr	r2, [r3, #20]
 800295e:	2090      	movs	r0, #144	; 0x90
 8002960:	430a      	orrs	r2, r1
 8002962:	615a      	str	r2, [r3, #20]
 8002964:	695b      	ldr	r3, [r3, #20]
 8002966:	05c0      	lsls	r0, r0, #23
 8002968:	400b      	ands	r3, r1
 800296a:	9302      	str	r3, [sp, #8]
 800296c:	9b02      	ldr	r3, [sp, #8]
 800296e:	23e0      	movs	r3, #224	; 0xe0
 8002970:	9303      	str	r3, [sp, #12]
 8002972:	3bde      	subs	r3, #222	; 0xde
 8002974:	9304      	str	r3, [sp, #16]
 8002976:	3b01      	subs	r3, #1
 8002978:	9305      	str	r3, [sp, #20]
 800297a:	a903      	add	r1, sp, #12
 800297c:	3302      	adds	r3, #2
 800297e:	9306      	str	r3, [sp, #24]
 8002980:	f7fd fce8 	bl	8000354 <HAL_GPIO_Init>
 8002984:	b008      	add	sp, #32
 8002986:	bd10      	pop	{r4, pc}
 8002988:	40013000 	.word	0x40013000
 800298c:	40021000 	.word	0x40021000

08002990 <HAL_UART_MspInit>:
 8002990:	b510      	push	{r4, lr}
 8002992:	0004      	movs	r4, r0
 8002994:	b088      	sub	sp, #32
 8002996:	2214      	movs	r2, #20
 8002998:	2100      	movs	r1, #0
 800299a:	a803      	add	r0, sp, #12
 800299c:	f000 f8c9 	bl	8002b32 <memset>
 80029a0:	4b12      	ldr	r3, [pc, #72]	; (80029ec <HAL_UART_MspInit+0x5c>)
 80029a2:	6822      	ldr	r2, [r4, #0]
 80029a4:	429a      	cmp	r2, r3
 80029a6:	d11f      	bne.n	80029e8 <HAL_UART_MspInit+0x58>
 80029a8:	2080      	movs	r0, #128	; 0x80
 80029aa:	4b11      	ldr	r3, [pc, #68]	; (80029f0 <HAL_UART_MspInit+0x60>)
 80029ac:	01c0      	lsls	r0, r0, #7
 80029ae:	6999      	ldr	r1, [r3, #24]
 80029b0:	4301      	orrs	r1, r0
 80029b2:	6199      	str	r1, [r3, #24]
 80029b4:	2180      	movs	r1, #128	; 0x80
 80029b6:	699a      	ldr	r2, [r3, #24]
 80029b8:	0289      	lsls	r1, r1, #10
 80029ba:	4002      	ands	r2, r0
 80029bc:	9201      	str	r2, [sp, #4]
 80029be:	9a01      	ldr	r2, [sp, #4]
 80029c0:	695a      	ldr	r2, [r3, #20]
 80029c2:	2090      	movs	r0, #144	; 0x90
 80029c4:	430a      	orrs	r2, r1
 80029c6:	615a      	str	r2, [r3, #20]
 80029c8:	695b      	ldr	r3, [r3, #20]
 80029ca:	05c0      	lsls	r0, r0, #23
 80029cc:	400b      	ands	r3, r1
 80029ce:	9302      	str	r3, [sp, #8]
 80029d0:	9b02      	ldr	r3, [sp, #8]
 80029d2:	230c      	movs	r3, #12
 80029d4:	9303      	str	r3, [sp, #12]
 80029d6:	3b0a      	subs	r3, #10
 80029d8:	9304      	str	r3, [sp, #16]
 80029da:	3301      	adds	r3, #1
 80029dc:	9306      	str	r3, [sp, #24]
 80029de:	a903      	add	r1, sp, #12
 80029e0:	3b02      	subs	r3, #2
 80029e2:	9307      	str	r3, [sp, #28]
 80029e4:	f7fd fcb6 	bl	8000354 <HAL_GPIO_Init>
 80029e8:	b008      	add	sp, #32
 80029ea:	bd10      	pop	{r4, pc}
 80029ec:	40013800 	.word	0x40013800
 80029f0:	40021000 	.word	0x40021000

080029f4 <NMI_Handler>:
 80029f4:	4770      	bx	lr

080029f6 <HardFault_Handler>:
 80029f6:	e7fe      	b.n	80029f6 <HardFault_Handler>

080029f8 <SVC_Handler>:
 80029f8:	4770      	bx	lr

080029fa <PendSV_Handler>:
 80029fa:	4770      	bx	lr

080029fc <SysTick_Handler>:
 80029fc:	b510      	push	{r4, lr}
 80029fe:	f7fd fc4d 	bl	800029c <HAL_IncTick>
 8002a02:	bd10      	pop	{r4, pc}

08002a04 <EXTI0_1_IRQHandler>:
 8002a04:	b510      	push	{r4, lr}
 8002a06:	2102      	movs	r1, #2
 8002a08:	4805      	ldr	r0, [pc, #20]	; (8002a20 <EXTI0_1_IRQHandler+0x1c>)
 8002a0a:	f7fd fd53 	bl	80004b4 <HAL_GPIO_ReadPin>
 8002a0e:	2800      	cmp	r0, #0
 8002a10:	d003      	beq.n	8002a1a <EXTI0_1_IRQHandler+0x16>
 8002a12:	2002      	movs	r0, #2
 8002a14:	f7fd fd5c 	bl	80004d0 <HAL_GPIO_EXTI_IRQHandler>
 8002a18:	bd10      	pop	{r4, pc}
 8002a1a:	f7ff fe29 	bl	8002670 <interrupt_CH395>
 8002a1e:	e7f2      	b.n	8002a06 <EXTI0_1_IRQHandler+0x2>
 8002a20:	48000400 	.word	0x48000400

08002a24 <SystemInit>:
 8002a24:	2101      	movs	r1, #1
 8002a26:	4b11      	ldr	r3, [pc, #68]	; (8002a6c <SystemInit+0x48>)
 8002a28:	4811      	ldr	r0, [pc, #68]	; (8002a70 <SystemInit+0x4c>)
 8002a2a:	681a      	ldr	r2, [r3, #0]
 8002a2c:	430a      	orrs	r2, r1
 8002a2e:	601a      	str	r2, [r3, #0]
 8002a30:	685a      	ldr	r2, [r3, #4]
 8002a32:	4002      	ands	r2, r0
 8002a34:	605a      	str	r2, [r3, #4]
 8002a36:	681a      	ldr	r2, [r3, #0]
 8002a38:	480e      	ldr	r0, [pc, #56]	; (8002a74 <SystemInit+0x50>)
 8002a3a:	4002      	ands	r2, r0
 8002a3c:	601a      	str	r2, [r3, #0]
 8002a3e:	681a      	ldr	r2, [r3, #0]
 8002a40:	480d      	ldr	r0, [pc, #52]	; (8002a78 <SystemInit+0x54>)
 8002a42:	4002      	ands	r2, r0
 8002a44:	601a      	str	r2, [r3, #0]
 8002a46:	685a      	ldr	r2, [r3, #4]
 8002a48:	480c      	ldr	r0, [pc, #48]	; (8002a7c <SystemInit+0x58>)
 8002a4a:	4002      	ands	r2, r0
 8002a4c:	200f      	movs	r0, #15
 8002a4e:	605a      	str	r2, [r3, #4]
 8002a50:	6ada      	ldr	r2, [r3, #44]	; 0x2c
 8002a52:	4382      	bics	r2, r0
 8002a54:	62da      	str	r2, [r3, #44]	; 0x2c
 8002a56:	6b1a      	ldr	r2, [r3, #48]	; 0x30
 8002a58:	4809      	ldr	r0, [pc, #36]	; (8002a80 <SystemInit+0x5c>)
 8002a5a:	4002      	ands	r2, r0
 8002a5c:	631a      	str	r2, [r3, #48]	; 0x30
 8002a5e:	6b5a      	ldr	r2, [r3, #52]	; 0x34
 8002a60:	438a      	bics	r2, r1
 8002a62:	635a      	str	r2, [r3, #52]	; 0x34
 8002a64:	2200      	movs	r2, #0
 8002a66:	609a      	str	r2, [r3, #8]
 8002a68:	4770      	bx	lr
 8002a6a:	46c0      	nop			; (mov r8, r8)
 8002a6c:	40021000 	.word	0x40021000
 8002a70:	08ffb80c 	.word	0x08ffb80c
 8002a74:	fef6ffff 	.word	0xfef6ffff
 8002a78:	fffbffff 	.word	0xfffbffff
 8002a7c:	ffc0ffff 	.word	0xffc0ffff
 8002a80:	fffffeec 	.word	0xfffffeec

08002a84 <Reset_Handler>:
 8002a84:	480d      	ldr	r0, [pc, #52]	; (8002abc <LoopForever+0x2>)
 8002a86:	4685      	mov	sp, r0
 8002a88:	480d      	ldr	r0, [pc, #52]	; (8002ac0 <LoopForever+0x6>)
 8002a8a:	490e      	ldr	r1, [pc, #56]	; (8002ac4 <LoopForever+0xa>)
 8002a8c:	4a0e      	ldr	r2, [pc, #56]	; (8002ac8 <LoopForever+0xe>)
 8002a8e:	2300      	movs	r3, #0
 8002a90:	e002      	b.n	8002a98 <LoopCopyDataInit>

08002a92 <CopyDataInit>:
 8002a92:	58d4      	ldr	r4, [r2, r3]
 8002a94:	50c4      	str	r4, [r0, r3]
 8002a96:	3304      	adds	r3, #4

08002a98 <LoopCopyDataInit>:
 8002a98:	18c4      	adds	r4, r0, r3
 8002a9a:	428c      	cmp	r4, r1
 8002a9c:	d3f9      	bcc.n	8002a92 <CopyDataInit>
 8002a9e:	4a0b      	ldr	r2, [pc, #44]	; (8002acc <LoopForever+0x12>)
 8002aa0:	4c0b      	ldr	r4, [pc, #44]	; (8002ad0 <LoopForever+0x16>)
 8002aa2:	2300      	movs	r3, #0
 8002aa4:	e001      	b.n	8002aaa <LoopFillZerobss>

08002aa6 <FillZerobss>:
 8002aa6:	6013      	str	r3, [r2, #0]
 8002aa8:	3204      	adds	r2, #4

08002aaa <LoopFillZerobss>:
 8002aaa:	42a2      	cmp	r2, r4
 8002aac:	d3fb      	bcc.n	8002aa6 <FillZerobss>
 8002aae:	f7ff ffb9 	bl	8002a24 <SystemInit>
 8002ab2:	f000 f811 	bl	8002ad8 <__libc_init_array>
 8002ab6:	f7ff fcc5 	bl	8002444 <main>

08002aba <LoopForever>:
 8002aba:	e7fe      	b.n	8002aba <LoopForever>
 8002abc:	20000fff 	.word	0x20000fff
 8002ac0:	20000000 	.word	0x20000000
 8002ac4:	20000440 	.word	0x20000440
 8002ac8:	08002f88 	.word	0x08002f88
 8002acc:	20000440 	.word	0x20000440
 8002ad0:	20000950 	.word	0x20000950

08002ad4 <ADC1_IRQHandler>:
 8002ad4:	e7fe      	b.n	8002ad4 <ADC1_IRQHandler>
	...

08002ad8 <__libc_init_array>:
 8002ad8:	b570      	push	{r4, r5, r6, lr}
 8002ada:	2600      	movs	r6, #0
 8002adc:	4d0c      	ldr	r5, [pc, #48]	; (8002b10 <__libc_init_array+0x38>)
 8002ade:	4c0d      	ldr	r4, [pc, #52]	; (8002b14 <__libc_init_array+0x3c>)
 8002ae0:	1b64      	subs	r4, r4, r5
 8002ae2:	10a4      	asrs	r4, r4, #2
 8002ae4:	42a6      	cmp	r6, r4
 8002ae6:	d109      	bne.n	8002afc <__libc_init_array+0x24>
 8002ae8:	2600      	movs	r6, #0
 8002aea:	f000 f933 	bl	8002d54 <_init>
 8002aee:	4d0a      	ldr	r5, [pc, #40]	; (8002b18 <__libc_init_array+0x40>)
 8002af0:	4c0a      	ldr	r4, [pc, #40]	; (8002b1c <__libc_init_array+0x44>)
 8002af2:	1b64      	subs	r4, r4, r5
 8002af4:	10a4      	asrs	r4, r4, #2
 8002af6:	42a6      	cmp	r6, r4
 8002af8:	d105      	bne.n	8002b06 <__libc_init_array+0x2e>
 8002afa:	bd70      	pop	{r4, r5, r6, pc}
 8002afc:	00b3      	lsls	r3, r6, #2
 8002afe:	58eb      	ldr	r3, [r5, r3]
 8002b00:	4798      	blx	r3
 8002b02:	3601      	adds	r6, #1
 8002b04:	e7ee      	b.n	8002ae4 <__libc_init_array+0xc>
 8002b06:	00b3      	lsls	r3, r6, #2
 8002b08:	58eb      	ldr	r3, [r5, r3]
 8002b0a:	4798      	blx	r3
 8002b0c:	3601      	adds	r6, #1
 8002b0e:	e7f2      	b.n	8002af6 <__libc_init_array+0x1e>
 8002b10:	08002f80 	.word	0x08002f80
 8002b14:	08002f80 	.word	0x08002f80
 8002b18:	08002f80 	.word	0x08002f80
 8002b1c:	08002f84 	.word	0x08002f84

08002b20 <memcpy>:
 8002b20:	2300      	movs	r3, #0
 8002b22:	b510      	push	{r4, lr}
 8002b24:	429a      	cmp	r2, r3
 8002b26:	d100      	bne.n	8002b2a <memcpy+0xa>
 8002b28:	bd10      	pop	{r4, pc}
 8002b2a:	5ccc      	ldrb	r4, [r1, r3]
 8002b2c:	54c4      	strb	r4, [r0, r3]
 8002b2e:	3301      	adds	r3, #1
 8002b30:	e7f8      	b.n	8002b24 <memcpy+0x4>

08002b32 <memset>:
 8002b32:	0003      	movs	r3, r0
 8002b34:	1812      	adds	r2, r2, r0
 8002b36:	4293      	cmp	r3, r2
 8002b38:	d100      	bne.n	8002b3c <memset+0xa>
 8002b3a:	4770      	bx	lr
 8002b3c:	7019      	strb	r1, [r3, #0]
 8002b3e:	3301      	adds	r3, #1
 8002b40:	e7f9      	b.n	8002b36 <memset+0x4>

08002b42 <strcat>:
 8002b42:	0002      	movs	r2, r0
 8002b44:	b510      	push	{r4, lr}
 8002b46:	7813      	ldrb	r3, [r2, #0]
 8002b48:	1c54      	adds	r4, r2, #1
 8002b4a:	2b00      	cmp	r3, #0
 8002b4c:	d105      	bne.n	8002b5a <strcat+0x18>
 8002b4e:	5ccc      	ldrb	r4, [r1, r3]
 8002b50:	54d4      	strb	r4, [r2, r3]
 8002b52:	3301      	adds	r3, #1
 8002b54:	2c00      	cmp	r4, #0
 8002b56:	d1fa      	bne.n	8002b4e <strcat+0xc>
 8002b58:	bd10      	pop	{r4, pc}
 8002b5a:	0022      	movs	r2, r4
 8002b5c:	e7f3      	b.n	8002b46 <strcat+0x4>

08002b5e <strchr>:
 8002b5e:	b2c9      	uxtb	r1, r1
 8002b60:	7803      	ldrb	r3, [r0, #0]
 8002b62:	2b00      	cmp	r3, #0
 8002b64:	d004      	beq.n	8002b70 <strchr+0x12>
 8002b66:	428b      	cmp	r3, r1
 8002b68:	d100      	bne.n	8002b6c <strchr+0xe>
 8002b6a:	4770      	bx	lr
 8002b6c:	3001      	adds	r0, #1
 8002b6e:	e7f7      	b.n	8002b60 <strchr+0x2>
 8002b70:	424b      	negs	r3, r1
 8002b72:	4159      	adcs	r1, r3
 8002b74:	4249      	negs	r1, r1
 8002b76:	4008      	ands	r0, r1
 8002b78:	e7f7      	b.n	8002b6a <strchr+0xc>

08002b7a <strcpy>:
 8002b7a:	0003      	movs	r3, r0
 8002b7c:	780a      	ldrb	r2, [r1, #0]
 8002b7e:	3101      	adds	r1, #1
 8002b80:	701a      	strb	r2, [r3, #0]
 8002b82:	3301      	adds	r3, #1
 8002b84:	2a00      	cmp	r2, #0
 8002b86:	d1f9      	bne.n	8002b7c <strcpy+0x2>
 8002b88:	4770      	bx	lr

08002b8a <strncat>:
 8002b8a:	b5f0      	push	{r4, r5, r6, r7, lr}
 8002b8c:	0004      	movs	r4, r0
 8002b8e:	7823      	ldrb	r3, [r4, #0]
 8002b90:	2b00      	cmp	r3, #0
 8002b92:	d108      	bne.n	8002ba6 <strncat+0x1c>
 8002b94:	001f      	movs	r7, r3
 8002b96:	1e56      	subs	r6, r2, #1
 8002b98:	4293      	cmp	r3, r2
 8002b9a:	d003      	beq.n	8002ba4 <strncat+0x1a>
 8002b9c:	5ccd      	ldrb	r5, [r1, r3]
 8002b9e:	54e5      	strb	r5, [r4, r3]
 8002ba0:	2d00      	cmp	r5, #0
 8002ba2:	d102      	bne.n	8002baa <strncat+0x20>
 8002ba4:	bdf0      	pop	{r4, r5, r6, r7, pc}
 8002ba6:	3401      	adds	r4, #1
 8002ba8:	e7f1      	b.n	8002b8e <strncat+0x4>
 8002baa:	429e      	cmp	r6, r3
 8002bac:	d101      	bne.n	8002bb2 <strncat+0x28>
 8002bae:	19a5      	adds	r5, r4, r6
 8002bb0:	706f      	strb	r7, [r5, #1]
 8002bb2:	3301      	adds	r3, #1
 8002bb4:	e7f0      	b.n	8002b98 <strncat+0xe>

08002bb6 <strncmp>:
 8002bb6:	2300      	movs	r3, #0
 8002bb8:	b530      	push	{r4, r5, lr}
 8002bba:	429a      	cmp	r2, r3
 8002bbc:	d00a      	beq.n	8002bd4 <strncmp+0x1e>
 8002bbe:	3a01      	subs	r2, #1
 8002bc0:	5cc4      	ldrb	r4, [r0, r3]
 8002bc2:	5ccd      	ldrb	r5, [r1, r3]
 8002bc4:	42ac      	cmp	r4, r5
 8002bc6:	d104      	bne.n	8002bd2 <strncmp+0x1c>
 8002bc8:	4293      	cmp	r3, r2
 8002bca:	d002      	beq.n	8002bd2 <strncmp+0x1c>
 8002bcc:	3301      	adds	r3, #1
 8002bce:	2c00      	cmp	r4, #0
 8002bd0:	d1f6      	bne.n	8002bc0 <strncmp+0xa>
 8002bd2:	1b63      	subs	r3, r4, r5
 8002bd4:	0018      	movs	r0, r3
 8002bd6:	bd30      	pop	{r4, r5, pc}

08002bd8 <strncpy>:
 8002bd8:	b530      	push	{r4, r5, lr}
 8002bda:	0005      	movs	r5, r0
 8002bdc:	2a00      	cmp	r2, #0
 8002bde:	d100      	bne.n	8002be2 <strncpy+0xa>
 8002be0:	bd30      	pop	{r4, r5, pc}
 8002be2:	780c      	ldrb	r4, [r1, #0]
 8002be4:	3a01      	subs	r2, #1
 8002be6:	1c6b      	adds	r3, r5, #1
 8002be8:	702c      	strb	r4, [r5, #0]
 8002bea:	3101      	adds	r1, #1
 8002bec:	2c00      	cmp	r4, #0
 8002bee:	d105      	bne.n	8002bfc <strncpy+0x24>
 8002bf0:	189a      	adds	r2, r3, r2
 8002bf2:	429a      	cmp	r2, r3
 8002bf4:	d0f4      	beq.n	8002be0 <strncpy+0x8>
 8002bf6:	701c      	strb	r4, [r3, #0]
 8002bf8:	3301      	adds	r3, #1
 8002bfa:	e7fa      	b.n	8002bf2 <strncpy+0x1a>
 8002bfc:	001d      	movs	r5, r3
 8002bfe:	e7ed      	b.n	8002bdc <strncpy+0x4>

08002c00 <strnstr>:
 8002c00:	b570      	push	{r4, r5, r6, lr}
 8002c02:	000e      	movs	r6, r1
 8002c04:	0005      	movs	r5, r0
 8002c06:	0011      	movs	r1, r2
 8002c08:	0030      	movs	r0, r6
 8002c0a:	0014      	movs	r4, r2
 8002c0c:	f000 f887 	bl	8002d1e <strnlen>
 8002c10:	0003      	movs	r3, r0
 8002c12:	4284      	cmp	r4, r0
 8002c14:	d802      	bhi.n	8002c1c <strnstr+0x1c>
 8002c16:	5c32      	ldrb	r2, [r6, r0]
 8002c18:	2a00      	cmp	r2, #0
 8002c1a:	d10d      	bne.n	8002c38 <strnstr+0x38>
 8002c1c:	0021      	movs	r1, r4
 8002c1e:	0032      	movs	r2, r6
 8002c20:	0028      	movs	r0, r5
 8002c22:	f000 f862 	bl	8002cea <memmem>
 8002c26:	1e04      	subs	r4, r0, #0
 8002c28:	d006      	beq.n	8002c38 <strnstr+0x38>
 8002c2a:	1b42      	subs	r2, r0, r5
 8002c2c:	2100      	movs	r1, #0
 8002c2e:	0028      	movs	r0, r5
 8002c30:	f000 f850 	bl	8002cd4 <memchr>
 8002c34:	2800      	cmp	r0, #0
 8002c36:	d000      	beq.n	8002c3a <strnstr+0x3a>
 8002c38:	2400      	movs	r4, #0
 8002c3a:	0020      	movs	r0, r4
 8002c3c:	bd70      	pop	{r4, r5, r6, pc}

08002c3e <strstr>:
 8002c3e:	b510      	push	{r4, lr}
 8002c40:	7803      	ldrb	r3, [r0, #0]
 8002c42:	2b00      	cmp	r3, #0
 8002c44:	d10f      	bne.n	8002c66 <strstr+0x28>
 8002c46:	780b      	ldrb	r3, [r1, #0]
 8002c48:	425a      	negs	r2, r3
 8002c4a:	4153      	adcs	r3, r2
 8002c4c:	425b      	negs	r3, r3
 8002c4e:	4018      	ands	r0, r3
 8002c50:	bd10      	pop	{r4, pc}
 8002c52:	2300      	movs	r3, #0
 8002c54:	5cca      	ldrb	r2, [r1, r3]
 8002c56:	2a00      	cmp	r2, #0
 8002c58:	d0fa      	beq.n	8002c50 <strstr+0x12>
 8002c5a:	5cc4      	ldrb	r4, [r0, r3]
 8002c5c:	4294      	cmp	r4, r2
 8002c5e:	d101      	bne.n	8002c64 <strstr+0x26>
 8002c60:	3301      	adds	r3, #1
 8002c62:	e7f7      	b.n	8002c54 <strstr+0x16>
 8002c64:	3001      	adds	r0, #1
 8002c66:	7803      	ldrb	r3, [r0, #0]
 8002c68:	2b00      	cmp	r3, #0
 8002c6a:	d1f2      	bne.n	8002c52 <strstr+0x14>
 8002c6c:	0018      	movs	r0, r3
 8002c6e:	e7ef      	b.n	8002c50 <strstr+0x12>

08002c70 <__strtok_r>:
 8002c70:	b5f0      	push	{r4, r5, r6, r7, lr}
 8002c72:	2800      	cmp	r0, #0
 8002c74:	d104      	bne.n	8002c80 <__strtok_r+0x10>
 8002c76:	6810      	ldr	r0, [r2, #0]
 8002c78:	2800      	cmp	r0, #0
 8002c7a:	d101      	bne.n	8002c80 <__strtok_r+0x10>
 8002c7c:	bdf0      	pop	{r4, r5, r6, r7, pc}
 8002c7e:	0020      	movs	r0, r4
 8002c80:	000e      	movs	r6, r1
 8002c82:	7805      	ldrb	r5, [r0, #0]
 8002c84:	1c44      	adds	r4, r0, #1
 8002c86:	7837      	ldrb	r7, [r6, #0]
 8002c88:	2f00      	cmp	r7, #0
 8002c8a:	d104      	bne.n	8002c96 <__strtok_r+0x26>
 8002c8c:	2d00      	cmp	r5, #0
 8002c8e:	d110      	bne.n	8002cb2 <__strtok_r+0x42>
 8002c90:	6015      	str	r5, [r2, #0]
 8002c92:	0028      	movs	r0, r5
 8002c94:	e7f2      	b.n	8002c7c <__strtok_r+0xc>
 8002c96:	3601      	adds	r6, #1
 8002c98:	42bd      	cmp	r5, r7
 8002c9a:	d1f4      	bne.n	8002c86 <__strtok_r+0x16>
 8002c9c:	2b00      	cmp	r3, #0
 8002c9e:	d1ee      	bne.n	8002c7e <__strtok_r+0xe>
 8002ca0:	6014      	str	r4, [r2, #0]
 8002ca2:	7003      	strb	r3, [r0, #0]
 8002ca4:	e7ea      	b.n	8002c7c <__strtok_r+0xc>
 8002ca6:	0033      	movs	r3, r6
 8002ca8:	e00d      	b.n	8002cc6 <__strtok_r+0x56>
 8002caa:	3501      	adds	r5, #1
 8002cac:	2f00      	cmp	r7, #0
 8002cae:	d103      	bne.n	8002cb8 <__strtok_r+0x48>
 8002cb0:	001c      	movs	r4, r3
 8002cb2:	000d      	movs	r5, r1
 8002cb4:	7826      	ldrb	r6, [r4, #0]
 8002cb6:	1c63      	adds	r3, r4, #1
 8002cb8:	782f      	ldrb	r7, [r5, #0]
 8002cba:	42be      	cmp	r6, r7
 8002cbc:	d1f5      	bne.n	8002caa <__strtok_r+0x3a>
 8002cbe:	2e00      	cmp	r6, #0
 8002cc0:	d0f1      	beq.n	8002ca6 <__strtok_r+0x36>
 8002cc2:	2100      	movs	r1, #0
 8002cc4:	7021      	strb	r1, [r4, #0]
 8002cc6:	6013      	str	r3, [r2, #0]
 8002cc8:	e7d8      	b.n	8002c7c <__strtok_r+0xc>

08002cca <strtok_r>:
 8002cca:	b510      	push	{r4, lr}
 8002ccc:	2301      	movs	r3, #1
 8002cce:	f7ff ffcf 	bl	8002c70 <__strtok_r>
 8002cd2:	bd10      	pop	{r4, pc}

08002cd4 <memchr>:
 8002cd4:	b2c9      	uxtb	r1, r1
 8002cd6:	1882      	adds	r2, r0, r2
 8002cd8:	4290      	cmp	r0, r2
 8002cda:	d101      	bne.n	8002ce0 <memchr+0xc>
 8002cdc:	2000      	movs	r0, #0
 8002cde:	4770      	bx	lr
 8002ce0:	7803      	ldrb	r3, [r0, #0]
 8002ce2:	428b      	cmp	r3, r1
 8002ce4:	d0fb      	beq.n	8002cde <memchr+0xa>
 8002ce6:	3001      	adds	r0, #1
 8002ce8:	e7f6      	b.n	8002cd8 <memchr+0x4>

08002cea <memmem>:
 8002cea:	b5f7      	push	{r0, r1, r2, r4, r5, r6, r7, lr}
 8002cec:	0007      	movs	r7, r0
 8002cee:	9100      	str	r1, [sp, #0]
 8002cf0:	9201      	str	r2, [sp, #4]
 8002cf2:	001e      	movs	r6, r3
 8002cf4:	0004      	movs	r4, r0
 8002cf6:	000d      	movs	r5, r1
 8002cf8:	2b00      	cmp	r3, #0
 8002cfa:	d109      	bne.n	8002d10 <memmem+0x26>
 8002cfc:	0020      	movs	r0, r4
 8002cfe:	bdfe      	pop	{r1, r2, r3, r4, r5, r6, r7, pc}
 8002d00:	0032      	movs	r2, r6
 8002d02:	9901      	ldr	r1, [sp, #4]
 8002d04:	0020      	movs	r0, r4
 8002d06:	f000 f815 	bl	8002d34 <memcmp>
 8002d0a:	2800      	cmp	r0, #0
 8002d0c:	d0f6      	beq.n	8002cfc <memmem+0x12>
 8002d0e:	3d01      	subs	r5, #1
 8002d10:	9b00      	ldr	r3, [sp, #0]
 8002d12:	18fc      	adds	r4, r7, r3
 8002d14:	1b64      	subs	r4, r4, r5
 8002d16:	42b5      	cmp	r5, r6
 8002d18:	d2f2      	bcs.n	8002d00 <memmem+0x16>
 8002d1a:	2400      	movs	r4, #0
 8002d1c:	e7ee      	b.n	8002cfc <memmem+0x12>

08002d1e <strnlen>:
 8002d1e:	0003      	movs	r3, r0
 8002d20:	1841      	adds	r1, r0, r1
 8002d22:	428b      	cmp	r3, r1
 8002d24:	d002      	beq.n	8002d2c <strnlen+0xe>
 8002d26:	781a      	ldrb	r2, [r3, #0]
 8002d28:	2a00      	cmp	r2, #0
 8002d2a:	d101      	bne.n	8002d30 <strnlen+0x12>
 8002d2c:	1a18      	subs	r0, r3, r0
 8002d2e:	4770      	bx	lr
 8002d30:	3301      	adds	r3, #1
 8002d32:	e7f6      	b.n	8002d22 <strnlen+0x4>

08002d34 <memcmp>:
 8002d34:	b530      	push	{r4, r5, lr}
 8002d36:	2400      	movs	r4, #0
 8002d38:	42a2      	cmp	r2, r4
 8002d3a:	d101      	bne.n	8002d40 <memcmp+0xc>
 8002d3c:	2000      	movs	r0, #0
 8002d3e:	e005      	b.n	8002d4c <memcmp+0x18>
 8002d40:	5d03      	ldrb	r3, [r0, r4]
 8002d42:	1c65      	adds	r5, r4, #1
 8002d44:	5d0c      	ldrb	r4, [r1, r4]
 8002d46:	42a3      	cmp	r3, r4
 8002d48:	d001      	beq.n	8002d4e <memcmp+0x1a>
 8002d4a:	1b18      	subs	r0, r3, r4
 8002d4c:	bd30      	pop	{r4, r5, pc}
 8002d4e:	002c      	movs	r4, r5
 8002d50:	e7f2      	b.n	8002d38 <memcmp+0x4>
	...

08002d54 <_init>:
 8002d54:	b5f8      	push	{r3, r4, r5, r6, r7, lr}
 8002d56:	46c0      	nop			; (mov r8, r8)
 8002d58:	bcf8      	pop	{r3, r4, r5, r6, r7}
 8002d5a:	bc08      	pop	{r3}
 8002d5c:	469e      	mov	lr, r3
 8002d5e:	4770      	bx	lr

08002d60 <_fini>:
 8002d60:	b5f8      	push	{r3, r4, r5, r6, r7, lr}
 8002d62:	46c0      	nop			; (mov r8, r8)
 8002d64:	bcf8      	pop	{r3, r4, r5, r6, r7}
 8002d66:	bc08      	pop	{r3}
 8002d68:	469e      	mov	lr, r3
 8002d6a:	4770      	bx	lr
