
Antenna Switch 6x2 New.elf:     file format elf32-littlearm

Sections:
Idx Name          Size      VMA       LMA       File off  Algn
  0 .isr_vector   000000c0  08000000  08000000  00010000  2**0
                  CONTENTS, ALLOC, LOAD, READONLY, DATA
  1 .text         00005498  080000c0  080000c0  000100c0  2**2
                  CONTENTS, ALLOC, LOAD, READONLY, CODE
  2 .rodata       00000400  08005558  08005558  00015558  2**2
                  CONTENTS, ALLOC, LOAD, READONLY, DATA
  3 .ARM.extab    00000000  08005958  08005958  000206a4  2**0
                  CONTENTS
  4 .ARM          00000000  08005958  08005958  000206a4  2**0
                  CONTENTS
  5 .preinit_array 00000000  08005958  08005958  000206a4  2**0
                  CONTENTS, ALLOC, LOAD, DATA
  6 .init_array   00000004  08005958  08005958  00015958  2**2
                  CONTENTS, ALLOC, LOAD, DATA
  7 .fini_array   00000004  0800595c  0800595c  0001595c  2**2
                  CONTENTS, ALLOC, LOAD, DATA
  8 .data         000006a4  20000000  08005960  00020000  2**2
                  CONTENTS, ALLOC, LOAD, DATA
  9 .bss          00000c54  200006a8  08006004  000206a8  2**3
                  ALLOC
 10 ._user_heap_stack 00000404  200012fc  08006004  000212fc  2**0
                  ALLOC
 11 .ARM.attributes 00000028  00000000  00000000  000206a4  2**0
                  CONTENTS, READONLY
 12 .comment      00000053  00000000  00000000  000206cc  2**0
                  CONTENTS, READONLY
 13 .debug_frame  000002b0  00000000  00000000  00020720  2**2
                  CONTENTS, READONLY, DEBUGGING, OCTETS

Disassembly of section .text:

080000c0 <__do_global_dtors_aux>:
 80000c0:	b510      	push	{r4, lr}
 80000c2:	4c06      	ldr	r4, [pc, #24]	; (80000dc <__do_global_dtors_aux+0x1c>)
 80000c4:	7823      	ldrb	r3, [r4, #0]
 80000c6:	2b00      	cmp	r3, #0
 80000c8:	d107      	bne.n	80000da <__do_global_dtors_aux+0x1a>
 80000ca:	4b05      	ldr	r3, [pc, #20]	; (80000e0 <__do_global_dtors_aux+0x20>)
 80000cc:	2b00      	cmp	r3, #0
 80000ce:	d002      	beq.n	80000d6 <__do_global_dtors_aux+0x16>
 80000d0:	4804      	ldr	r0, [pc, #16]	; (80000e4 <__do_global_dtors_aux+0x24>)
 80000d2:	e000      	b.n	80000d6 <__do_global_dtors_aux+0x16>
 80000d4:	bf00      	nop
 80000d6:	2301      	movs	r3, #1
 80000d8:	7023      	strb	r3, [r4, #0]
 80000da:	bd10      	pop	{r4, pc}
 80000dc:	200006a8 	.word	0x200006a8
 80000e0:	00000000 	.word	0x00000000
 80000e4:	08005540 	.word	0x08005540

080000e8 <frame_dummy>:
 80000e8:	4b04      	ldr	r3, [pc, #16]	; (80000fc <frame_dummy+0x14>)
 80000ea:	b510      	push	{r4, lr}
 80000ec:	2b00      	cmp	r3, #0
 80000ee:	d003      	beq.n	80000f8 <frame_dummy+0x10>
 80000f0:	4903      	ldr	r1, [pc, #12]	; (8000100 <frame_dummy+0x18>)
 80000f2:	4804      	ldr	r0, [pc, #16]	; (8000104 <frame_dummy+0x1c>)
 80000f4:	e000      	b.n	80000f8 <frame_dummy+0x10>
 80000f6:	bf00      	nop
 80000f8:	bd10      	pop	{r4, pc}
 80000fa:	46c0      	nop			; (mov r8, r8)
 80000fc:	00000000 	.word	0x00000000
 8000100:	200006ac 	.word	0x200006ac
 8000104:	08005540 	.word	0x08005540

08000108 <strcmp>:
 8000108:	7802      	ldrb	r2, [r0, #0]
 800010a:	780b      	ldrb	r3, [r1, #0]
 800010c:	2a00      	cmp	r2, #0
 800010e:	d003      	beq.n	8000118 <strcmp+0x10>
 8000110:	3001      	adds	r0, #1
 8000112:	3101      	adds	r1, #1
 8000114:	429a      	cmp	r2, r3
 8000116:	d0f7      	beq.n	8000108 <strcmp>
 8000118:	1ad0      	subs	r0, r2, r3
 800011a:	4770      	bx	lr

0800011c <strlen>:
 800011c:	2300      	movs	r3, #0
 800011e:	5cc2      	ldrb	r2, [r0, r3]
 8000120:	3301      	adds	r3, #1
 8000122:	2a00      	cmp	r2, #0
 8000124:	d1fb      	bne.n	800011e <strlen+0x2>
 8000126:	1e58      	subs	r0, r3, #1
 8000128:	4770      	bx	lr
	...

0800012c <__udivsi3>:
 800012c:	2200      	movs	r2, #0
 800012e:	0843      	lsrs	r3, r0, #1
 8000130:	428b      	cmp	r3, r1
 8000132:	d374      	bcc.n	800021e <__udivsi3+0xf2>
 8000134:	0903      	lsrs	r3, r0, #4
 8000136:	428b      	cmp	r3, r1
 8000138:	d35f      	bcc.n	80001fa <__udivsi3+0xce>
 800013a:	0a03      	lsrs	r3, r0, #8
 800013c:	428b      	cmp	r3, r1
 800013e:	d344      	bcc.n	80001ca <__udivsi3+0x9e>
 8000140:	0b03      	lsrs	r3, r0, #12
 8000142:	428b      	cmp	r3, r1
 8000144:	d328      	bcc.n	8000198 <__udivsi3+0x6c>
 8000146:	0c03      	lsrs	r3, r0, #16
 8000148:	428b      	cmp	r3, r1
 800014a:	d30d      	bcc.n	8000168 <__udivsi3+0x3c>
 800014c:	22ff      	movs	r2, #255	; 0xff
 800014e:	0209      	lsls	r1, r1, #8
 8000150:	ba12      	rev	r2, r2
 8000152:	0c03      	lsrs	r3, r0, #16
 8000154:	428b      	cmp	r3, r1
 8000156:	d302      	bcc.n	800015e <__udivsi3+0x32>
 8000158:	1212      	asrs	r2, r2, #8
 800015a:	0209      	lsls	r1, r1, #8
 800015c:	d065      	beq.n	800022a <__udivsi3+0xfe>
 800015e:	0b03      	lsrs	r3, r0, #12
 8000160:	428b      	cmp	r3, r1
 8000162:	d319      	bcc.n	8000198 <__udivsi3+0x6c>
 8000164:	e000      	b.n	8000168 <__udivsi3+0x3c>
 8000166:	0a09      	lsrs	r1, r1, #8
 8000168:	0bc3      	lsrs	r3, r0, #15
 800016a:	428b      	cmp	r3, r1
 800016c:	d301      	bcc.n	8000172 <__udivsi3+0x46>
 800016e:	03cb      	lsls	r3, r1, #15
 8000170:	1ac0      	subs	r0, r0, r3
 8000172:	4152      	adcs	r2, r2
 8000174:	0b83      	lsrs	r3, r0, #14
 8000176:	428b      	cmp	r3, r1
 8000178:	d301      	bcc.n	800017e <__udivsi3+0x52>
 800017a:	038b      	lsls	r3, r1, #14
 800017c:	1ac0      	subs	r0, r0, r3
 800017e:	4152      	adcs	r2, r2
 8000180:	0b43      	lsrs	r3, r0, #13
 8000182:	428b      	cmp	r3, r1
 8000184:	d301      	bcc.n	800018a <__udivsi3+0x5e>
 8000186:	034b      	lsls	r3, r1, #13
 8000188:	1ac0      	subs	r0, r0, r3
 800018a:	4152      	adcs	r2, r2
 800018c:	0b03      	lsrs	r3, r0, #12
 800018e:	428b      	cmp	r3, r1
 8000190:	d301      	bcc.n	8000196 <__udivsi3+0x6a>
 8000192:	030b      	lsls	r3, r1, #12
 8000194:	1ac0      	subs	r0, r0, r3
 8000196:	4152      	adcs	r2, r2
 8000198:	0ac3      	lsrs	r3, r0, #11
 800019a:	428b      	cmp	r3, r1
 800019c:	d301      	bcc.n	80001a2 <__udivsi3+0x76>
 800019e:	02cb      	lsls	r3, r1, #11
 80001a0:	1ac0      	subs	r0, r0, r3
 80001a2:	4152      	adcs	r2, r2
 80001a4:	0a83      	lsrs	r3, r0, #10
 80001a6:	428b      	cmp	r3, r1
 80001a8:	d301      	bcc.n	80001ae <__udivsi3+0x82>
 80001aa:	028b      	lsls	r3, r1, #10
 80001ac:	1ac0      	subs	r0, r0, r3
 80001ae:	4152      	adcs	r2, r2
 80001b0:	0a43      	lsrs	r3, r0, #9
 80001b2:	428b      	cmp	r3, r1
 80001b4:	d301      	bcc.n	80001ba <__udivsi3+0x8e>
 80001b6:	024b      	lsls	r3, r1, #9
 80001b8:	1ac0      	subs	r0, r0, r3
 80001ba:	4152      	adcs	r2, r2
 80001bc:	0a03      	lsrs	r3, r0, #8
 80001be:	428b      	cmp	r3, r1
 80001c0:	d301      	bcc.n	80001c6 <__udivsi3+0x9a>
 80001c2:	020b      	lsls	r3, r1, #8
 80001c4:	1ac0      	subs	r0, r0, r3
 80001c6:	4152      	adcs	r2, r2
 80001c8:	d2cd      	bcs.n	8000166 <__udivsi3+0x3a>
 80001ca:	09c3      	lsrs	r3, r0, #7
 80001cc:	428b      	cmp	r3, r1
 80001ce:	d301      	bcc.n	80001d4 <__udivsi3+0xa8>
 80001d0:	01cb      	lsls	r3, r1, #7
 80001d2:	1ac0      	subs	r0, r0, r3
 80001d4:	4152      	adcs	r2, r2
 80001d6:	0983      	lsrs	r3, r0, #6
 80001d8:	428b      	cmp	r3, r1
 80001da:	d301      	bcc.n	80001e0 <__udivsi3+0xb4>
 80001dc:	018b      	lsls	r3, r1, #6
 80001de:	1ac0      	subs	r0, r0, r3
 80001e0:	4152      	adcs	r2, r2
 80001e2:	0943      	lsrs	r3, r0, #5
 80001e4:	428b      	cmp	r3, r1
 80001e6:	d301      	bcc.n	80001ec <__udivsi3+0xc0>
 80001e8:	014b      	lsls	r3, r1, #5
 80001ea:	1ac0      	subs	r0, r0, r3
 80001ec:	4152      	adcs	r2, r2
 80001ee:	0903      	lsrs	r3, r0, #4
 80001f0:	428b      	cmp	r3, r1
 80001f2:	d301      	bcc.n	80001f8 <__udivsi3+0xcc>
 80001f4:	010b      	lsls	r3, r1, #4
 80001f6:	1ac0      	subs	r0, r0, r3
 80001f8:	4152      	adcs	r2, r2
 80001fa:	08c3      	lsrs	r3, r0, #3
 80001fc:	428b      	cmp	r3, r1
 80001fe:	d301      	bcc.n	8000204 <__udivsi3+0xd8>
 8000200:	00cb      	lsls	r3, r1, #3
 8000202:	1ac0      	subs	r0, r0, r3
 8000204:	4152      	adcs	r2, r2
 8000206:	0883      	lsrs	r3, r0, #2
 8000208:	428b      	cmp	r3, r1
 800020a:	d301      	bcc.n	8000210 <__udivsi3+0xe4>
 800020c:	008b      	lsls	r3, r1, #2
 800020e:	1ac0      	subs	r0, r0, r3
 8000210:	4152      	adcs	r2, r2
 8000212:	0843      	lsrs	r3, r0, #1
 8000214:	428b      	cmp	r3, r1
 8000216:	d301      	bcc.n	800021c <__udivsi3+0xf0>
 8000218:	004b      	lsls	r3, r1, #1
 800021a:	1ac0      	subs	r0, r0, r3
 800021c:	4152      	adcs	r2, r2
 800021e:	1a41      	subs	r1, r0, r1
 8000220:	d200      	bcs.n	8000224 <__udivsi3+0xf8>
 8000222:	4601      	mov	r1, r0
 8000224:	4152      	adcs	r2, r2
 8000226:	4610      	mov	r0, r2
 8000228:	4770      	bx	lr
 800022a:	e7ff      	b.n	800022c <__udivsi3+0x100>
 800022c:	b501      	push	{r0, lr}
 800022e:	2000      	movs	r0, #0
 8000230:	f000 f806 	bl	8000240 <__aeabi_idiv0>
 8000234:	bd02      	pop	{r1, pc}
 8000236:	46c0      	nop			; (mov r8, r8)

08000238 <__aeabi_uidivmod>:
 8000238:	2900      	cmp	r1, #0
 800023a:	d0f7      	beq.n	800022c <__udivsi3+0x100>
 800023c:	e776      	b.n	800012c <__udivsi3>
 800023e:	4770      	bx	lr

08000240 <__aeabi_idiv0>:
 8000240:	4770      	bx	lr
 8000242:	46c0      	nop			; (mov r8, r8)

08000244 <load_config>:
 8000244:	b510      	push	{r4, lr}
 8000246:	0001      	movs	r1, r0
 8000248:	2270      	movs	r2, #112	; 0x70
 800024a:	4802      	ldr	r0, [pc, #8]	; (8000254 <load_config+0x10>)
 800024c:	f000 f894 	bl	8000378 <EEPROM_ReadBytes>
 8000250:	bd10      	pop	{r4, pc}
 8000252:	46c0      	nop			; (mov r8, r8)
 8000254:	20000000 	.word	0x20000000

08000258 <save_config>:
 8000258:	0001      	movs	r1, r0
 800025a:	2270      	movs	r2, #112	; 0x70
 800025c:	b510      	push	{r4, lr}
 800025e:	4803      	ldr	r0, [pc, #12]	; (800026c <save_config+0x14>)
 8000260:	f000 f816 	bl	8000290 <EEPROM_WriteBytes>
 8000264:	2200      	movs	r2, #0
 8000266:	4b02      	ldr	r3, [pc, #8]	; (8000270 <save_config+0x18>)
 8000268:	701a      	strb	r2, [r3, #0]
 800026a:	bd10      	pop	{r4, pc}
 800026c:	20000000 	.word	0x20000000
 8000270:	200006c4 	.word	0x200006c4

08000274 <config_check_valid>:
 8000274:	4b05      	ldr	r3, [pc, #20]	; (800028c <config_check_valid+0x18>)
 8000276:	b510      	push	{r4, lr}
 8000278:	6819      	ldr	r1, [r3, #0]
 800027a:	2208      	movs	r2, #8
 800027c:	f005 f8a1 	bl	80053c2 <strncmp>
 8000280:	b2c0      	uxtb	r0, r0
 8000282:	4243      	negs	r3, r0
 8000284:	4158      	adcs	r0, r3
 8000286:	b2c0      	uxtb	r0, r0
 8000288:	bd10      	pop	{r4, pc}
 800028a:	46c0      	nop			; (mov r8, r8)
 800028c:	20000634 	.word	0x20000634

08000290 <EEPROM_WriteBytes>:
 8000290:	b5f0      	push	{r4, r5, r6, r7, lr}
 8000292:	4647      	mov	r7, r8
 8000294:	46ce      	mov	lr, r9
 8000296:	6803      	ldr	r3, [r0, #0]
 8000298:	b580      	push	{r7, lr}
 800029a:	4699      	mov	r9, r3
 800029c:	2380      	movs	r3, #128	; 0x80
 800029e:	011b      	lsls	r3, r3, #4
 80002a0:	444b      	add	r3, r9
 80002a2:	000f      	movs	r7, r1
 80002a4:	0014      	movs	r4, r2
 80002a6:	4698      	mov	r8, r3
 80002a8:	464d      	mov	r5, r9
 80002aa:	b087      	sub	sp, #28
 80002ac:	e002      	b.n	80002b4 <EEPROM_WriteBytes+0x24>
 80002ae:	3504      	adds	r5, #4
 80002b0:	45a8      	cmp	r8, r5
 80002b2:	d05d      	beq.n	8000370 <EEPROM_WriteBytes+0xe0>
 80002b4:	682b      	ldr	r3, [r5, #0]
 80002b6:	2b00      	cmp	r3, #0
 80002b8:	d0f9      	beq.n	80002ae <EEPROM_WriteBytes+0x1e>
 80002ba:	002e      	movs	r6, r5
 80002bc:	4545      	cmp	r5, r8
 80002be:	d304      	bcc.n	80002ca <EEPROM_WriteBytes+0x3a>
 80002c0:	e005      	b.n	80002ce <EEPROM_WriteBytes+0x3e>
 80002c2:	3604      	adds	r6, #4
 80002c4:	45b0      	cmp	r8, r6
 80002c6:	d902      	bls.n	80002ce <EEPROM_WriteBytes+0x3e>
 80002c8:	6833      	ldr	r3, [r6, #0]
 80002ca:	3301      	adds	r3, #1
 80002cc:	d1f9      	bne.n	80002c2 <EEPROM_WriteBytes+0x32>
 80002ce:	b672      	cpsid	i
 80002d0:	f000 fa5c 	bl	800078c <HAL_FLASH_Unlock>
 80002d4:	2300      	movs	r3, #0
 80002d6:	9302      	str	r3, [sp, #8]
 80002d8:	9303      	str	r3, [sp, #12]
 80002da:	464b      	mov	r3, r9
 80002dc:	9304      	str	r3, [sp, #16]
 80002de:	2301      	movs	r3, #1
 80002e0:	9305      	str	r3, [sp, #20]
 80002e2:	08a3      	lsrs	r3, r4, #2
 80002e4:	3301      	adds	r3, #1
 80002e6:	009b      	lsls	r3, r3, #2
 80002e8:	18f3      	adds	r3, r6, r3
 80002ea:	4598      	cmp	r8, r3
 80002ec:	d207      	bcs.n	80002fe <EEPROM_WriteBytes+0x6e>
 80002ee:	e039      	b.n	8000364 <EEPROM_WriteBytes+0xd4>
 80002f0:	0029      	movs	r1, r5
 80002f2:	2200      	movs	r2, #0
 80002f4:	2300      	movs	r3, #0
 80002f6:	2002      	movs	r0, #2
 80002f8:	f000 fa94 	bl	8000824 <HAL_FLASH_Program>
 80002fc:	3504      	adds	r5, #4
 80002fe:	42ae      	cmp	r6, r5
 8000300:	d8f6      	bhi.n	80002f0 <EEPROM_WriteBytes+0x60>
 8000302:	46b1      	mov	r9, r6
 8000304:	2300      	movs	r3, #0
 8000306:	4649      	mov	r1, r9
 8000308:	2002      	movs	r0, #2
 800030a:	4a1a      	ldr	r2, [pc, #104]	; (8000374 <EEPROM_WriteBytes+0xe4>)
 800030c:	f000 fa8a 	bl	8000824 <HAL_FLASH_Program>
 8000310:	2500      	movs	r5, #0
 8000312:	3604      	adds	r6, #4
 8000314:	2c00      	cmp	r4, #0
 8000316:	d013      	beq.n	8000340 <EEPROM_WriteBytes+0xb0>
 8000318:	003b      	movs	r3, r7
 800031a:	9501      	str	r5, [sp, #4]
 800031c:	a801      	add	r0, sp, #4
 800031e:	3704      	adds	r7, #4
 8000320:	781a      	ldrb	r2, [r3, #0]
 8000322:	3c01      	subs	r4, #1
 8000324:	3301      	adds	r3, #1
 8000326:	7002      	strb	r2, [r0, #0]
 8000328:	b2a4      	uxth	r4, r4
 800032a:	3001      	adds	r0, #1
 800032c:	42bb      	cmp	r3, r7
 800032e:	d00f      	beq.n	8000350 <EEPROM_WriteBytes+0xc0>
 8000330:	2c00      	cmp	r4, #0
 8000332:	d1f5      	bne.n	8000320 <EEPROM_WriteBytes+0x90>
 8000334:	2300      	movs	r3, #0
 8000336:	0031      	movs	r1, r6
 8000338:	2002      	movs	r0, #2
 800033a:	9a01      	ldr	r2, [sp, #4]
 800033c:	f000 fa72 	bl	8000824 <HAL_FLASH_Program>
 8000340:	f000 fa38 	bl	80007b4 <HAL_FLASH_Lock>
 8000344:	b662      	cpsie	i
 8000346:	b007      	add	sp, #28
 8000348:	bcc0      	pop	{r6, r7}
 800034a:	46b9      	mov	r9, r7
 800034c:	46b0      	mov	r8, r6
 800034e:	bdf0      	pop	{r4, r5, r6, r7, pc}
 8000350:	0031      	movs	r1, r6
 8000352:	2300      	movs	r3, #0
 8000354:	2002      	movs	r0, #2
 8000356:	9a01      	ldr	r2, [sp, #4]
 8000358:	f000 fa64 	bl	8000824 <HAL_FLASH_Program>
 800035c:	3604      	adds	r6, #4
 800035e:	2c00      	cmp	r4, #0
 8000360:	d1da      	bne.n	8000318 <EEPROM_WriteBytes+0x88>
 8000362:	e7ed      	b.n	8000340 <EEPROM_WriteBytes+0xb0>
 8000364:	a902      	add	r1, sp, #8
 8000366:	a803      	add	r0, sp, #12
 8000368:	f000 fac0 	bl	80008ec <HAL_FLASHEx_Erase>
 800036c:	464e      	mov	r6, r9
 800036e:	e7c9      	b.n	8000304 <EEPROM_WriteBytes+0x74>
 8000370:	4646      	mov	r6, r8
 8000372:	e7ac      	b.n	80002ce <EEPROM_WriteBytes+0x3e>
 8000374:	07cb020a 	.word	0x07cb020a

08000378 <EEPROM_ReadBytes>:
 8000378:	b5f0      	push	{r4, r5, r6, r7, lr}
 800037a:	2380      	movs	r3, #128	; 0x80
 800037c:	000e      	movs	r6, r1
 800037e:	6805      	ldr	r5, [r0, #0]
 8000380:	011b      	lsls	r3, r3, #4
 8000382:	2100      	movs	r1, #0
 8000384:	0030      	movs	r0, r6
 8000386:	b083      	sub	sp, #12
 8000388:	0014      	movs	r4, r2
 800038a:	18ef      	adds	r7, r5, r3
 800038c:	f004 ffd7 	bl	800533e <memset>
 8000390:	0028      	movs	r0, r5
 8000392:	e002      	b.n	800039a <EEPROM_ReadBytes+0x22>
 8000394:	3004      	adds	r0, #4
 8000396:	4287      	cmp	r7, r0
 8000398:	d002      	beq.n	80003a0 <EEPROM_ReadBytes+0x28>
 800039a:	6803      	ldr	r3, [r0, #0]
 800039c:	2b00      	cmp	r3, #0
 800039e:	d0f9      	beq.n	8000394 <EEPROM_ReadBytes+0x1c>
 80003a0:	4b0d      	ldr	r3, [pc, #52]	; (80003d8 <EEPROM_ReadBytes+0x60>)
 80003a2:	469c      	mov	ip, r3
 80003a4:	4465      	add	r5, ip
 80003a6:	42a8      	cmp	r0, r5
 80003a8:	d200      	bcs.n	80003ac <EEPROM_ReadBytes+0x34>
 80003aa:	3004      	adds	r0, #4
 80003ac:	2c00      	cmp	r4, #0
 80003ae:	d010      	beq.n	80003d2 <EEPROM_ReadBytes+0x5a>
 80003b0:	4287      	cmp	r7, r0
 80003b2:	d90e      	bls.n	80003d2 <EEPROM_ReadBytes+0x5a>
 80003b4:	6803      	ldr	r3, [r0, #0]
 80003b6:	ad01      	add	r5, sp, #4
 80003b8:	9301      	str	r3, [sp, #4]
 80003ba:	0033      	movs	r3, r6
 80003bc:	3604      	adds	r6, #4
 80003be:	782a      	ldrb	r2, [r5, #0]
 80003c0:	3c01      	subs	r4, #1
 80003c2:	701a      	strb	r2, [r3, #0]
 80003c4:	3301      	adds	r3, #1
 80003c6:	b2a4      	uxth	r4, r4
 80003c8:	3501      	adds	r5, #1
 80003ca:	429e      	cmp	r6, r3
 80003cc:	d0ed      	beq.n	80003aa <EEPROM_ReadBytes+0x32>
 80003ce:	2c00      	cmp	r4, #0
 80003d0:	d1f5      	bne.n	80003be <EEPROM_ReadBytes+0x46>
 80003d2:	b003      	add	sp, #12
 80003d4:	bdf0      	pop	{r4, r5, r6, r7, pc}
 80003d6:	46c0      	nop			; (mov r8, r8)
 80003d8:	000007fc 	.word	0x000007fc

080003dc <HAL_InitTick>:
 80003dc:	b510      	push	{r4, lr}
 80003de:	0004      	movs	r4, r0
 80003e0:	20fa      	movs	r0, #250	; 0xfa
 80003e2:	4b0e      	ldr	r3, [pc, #56]	; (800041c <HAL_InitTick+0x40>)
 80003e4:	0080      	lsls	r0, r0, #2
 80003e6:	7819      	ldrb	r1, [r3, #0]
 80003e8:	f7ff fea0 	bl	800012c <__udivsi3>
 80003ec:	4b0c      	ldr	r3, [pc, #48]	; (8000420 <HAL_InitTick+0x44>)
 80003ee:	0001      	movs	r1, r0
 80003f0:	6818      	ldr	r0, [r3, #0]
 80003f2:	f7ff fe9b 	bl	800012c <__udivsi3>
 80003f6:	f000 f889 	bl	800050c <HAL_SYSTICK_Config>
 80003fa:	2800      	cmp	r0, #0
 80003fc:	d10c      	bne.n	8000418 <HAL_InitTick+0x3c>
 80003fe:	3001      	adds	r0, #1
 8000400:	2c03      	cmp	r4, #3
 8000402:	d900      	bls.n	8000406 <HAL_InitTick+0x2a>
 8000404:	bd10      	pop	{r4, pc}
 8000406:	3802      	subs	r0, #2
 8000408:	2200      	movs	r2, #0
 800040a:	0021      	movs	r1, r4
 800040c:	f000 f840 	bl	8000490 <HAL_NVIC_SetPriority>
 8000410:	4b04      	ldr	r3, [pc, #16]	; (8000424 <HAL_InitTick+0x48>)
 8000412:	2000      	movs	r0, #0
 8000414:	601c      	str	r4, [r3, #0]
 8000416:	e7f5      	b.n	8000404 <HAL_InitTick+0x28>
 8000418:	2001      	movs	r0, #1
 800041a:	e7f3      	b.n	8000404 <HAL_InitTick+0x28>
 800041c:	20000008 	.word	0x20000008
 8000420:	200006a0 	.word	0x200006a0
 8000424:	2000000c 	.word	0x2000000c

08000428 <HAL_Init>:
 8000428:	2110      	movs	r1, #16
 800042a:	4a06      	ldr	r2, [pc, #24]	; (8000444 <HAL_Init+0x1c>)
 800042c:	b510      	push	{r4, lr}
 800042e:	6813      	ldr	r3, [r2, #0]
 8000430:	2000      	movs	r0, #0
 8000432:	430b      	orrs	r3, r1
 8000434:	6013      	str	r3, [r2, #0]
 8000436:	f7ff ffd1 	bl	80003dc <HAL_InitTick>
 800043a:	f004 fdf3 	bl	8005024 <HAL_MspInit>
 800043e:	2000      	movs	r0, #0
 8000440:	bd10      	pop	{r4, pc}
 8000442:	46c0      	nop			; (mov r8, r8)
 8000444:	40022000 	.word	0x40022000

08000448 <HAL_IncTick>:
 8000448:	4a03      	ldr	r2, [pc, #12]	; (8000458 <HAL_IncTick+0x10>)
 800044a:	4b04      	ldr	r3, [pc, #16]	; (800045c <HAL_IncTick+0x14>)
 800044c:	6811      	ldr	r1, [r2, #0]
 800044e:	781b      	ldrb	r3, [r3, #0]
 8000450:	185b      	adds	r3, r3, r1
 8000452:	6013      	str	r3, [r2, #0]
 8000454:	4770      	bx	lr
 8000456:	46c0      	nop			; (mov r8, r8)
 8000458:	20000e04 	.word	0x20000e04
 800045c:	20000008 	.word	0x20000008

08000460 <HAL_GetTick>:
 8000460:	4b01      	ldr	r3, [pc, #4]	; (8000468 <HAL_GetTick+0x8>)
 8000462:	6818      	ldr	r0, [r3, #0]
 8000464:	4770      	bx	lr
 8000466:	46c0      	nop			; (mov r8, r8)
 8000468:	20000e04 	.word	0x20000e04

0800046c <HAL_Delay>:
 800046c:	b570      	push	{r4, r5, r6, lr}
 800046e:	0004      	movs	r4, r0
 8000470:	f7ff fff6 	bl	8000460 <HAL_GetTick>
 8000474:	0005      	movs	r5, r0
 8000476:	1c63      	adds	r3, r4, #1
 8000478:	d002      	beq.n	8000480 <HAL_Delay+0x14>
 800047a:	4b04      	ldr	r3, [pc, #16]	; (800048c <HAL_Delay+0x20>)
 800047c:	781b      	ldrb	r3, [r3, #0]
 800047e:	18e4      	adds	r4, r4, r3
 8000480:	f7ff ffee 	bl	8000460 <HAL_GetTick>
 8000484:	1b40      	subs	r0, r0, r5
 8000486:	42a0      	cmp	r0, r4
 8000488:	d3fa      	bcc.n	8000480 <HAL_Delay+0x14>
 800048a:	bd70      	pop	{r4, r5, r6, pc}
 800048c:	20000008 	.word	0x20000008

08000490 <HAL_NVIC_SetPriority>:
 8000490:	b570      	push	{r4, r5, r6, lr}
 8000492:	2800      	cmp	r0, #0
 8000494:	db14      	blt.n	80004c0 <HAL_NVIC_SetPriority+0x30>
 8000496:	4b15      	ldr	r3, [pc, #84]	; (80004ec <HAL_NVIC_SetPriority+0x5c>)
 8000498:	2203      	movs	r2, #3
 800049a:	469c      	mov	ip, r3
 800049c:	23ff      	movs	r3, #255	; 0xff
 800049e:	0884      	lsrs	r4, r0, #2
 80004a0:	4010      	ands	r0, r2
 80004a2:	001a      	movs	r2, r3
 80004a4:	26c0      	movs	r6, #192	; 0xc0
 80004a6:	00c0      	lsls	r0, r0, #3
 80004a8:	0189      	lsls	r1, r1, #6
 80004aa:	4082      	lsls	r2, r0
 80004ac:	400b      	ands	r3, r1
 80004ae:	4083      	lsls	r3, r0
 80004b0:	00a4      	lsls	r4, r4, #2
 80004b2:	4464      	add	r4, ip
 80004b4:	00b6      	lsls	r6, r6, #2
 80004b6:	59a5      	ldr	r5, [r4, r6]
 80004b8:	4395      	bics	r5, r2
 80004ba:	432b      	orrs	r3, r5
 80004bc:	51a3      	str	r3, [r4, r6]
 80004be:	bd70      	pop	{r4, r5, r6, pc}
 80004c0:	4a0b      	ldr	r2, [pc, #44]	; (80004f0 <HAL_NVIC_SetPriority+0x60>)
 80004c2:	230f      	movs	r3, #15
 80004c4:	4694      	mov	ip, r2
 80004c6:	2203      	movs	r2, #3
 80004c8:	4003      	ands	r3, r0
 80004ca:	4010      	ands	r0, r2
 80004cc:	32fc      	adds	r2, #252	; 0xfc
 80004ce:	0015      	movs	r5, r2
 80004d0:	00c0      	lsls	r0, r0, #3
 80004d2:	0189      	lsls	r1, r1, #6
 80004d4:	4085      	lsls	r5, r0
 80004d6:	400a      	ands	r2, r1
 80004d8:	4082      	lsls	r2, r0
 80004da:	3b08      	subs	r3, #8
 80004dc:	089b      	lsrs	r3, r3, #2
 80004de:	009b      	lsls	r3, r3, #2
 80004e0:	4463      	add	r3, ip
 80004e2:	69dc      	ldr	r4, [r3, #28]
 80004e4:	43ac      	bics	r4, r5
 80004e6:	4322      	orrs	r2, r4
 80004e8:	61da      	str	r2, [r3, #28]
 80004ea:	e7e8      	b.n	80004be <HAL_NVIC_SetPriority+0x2e>
 80004ec:	e000e100 	.word	0xe000e100
 80004f0:	e000ed00 	.word	0xe000ed00

080004f4 <HAL_NVIC_EnableIRQ>:
 80004f4:	2800      	cmp	r0, #0
 80004f6:	db05      	blt.n	8000504 <HAL_NVIC_EnableIRQ+0x10>
 80004f8:	231f      	movs	r3, #31
 80004fa:	4018      	ands	r0, r3
 80004fc:	3b1e      	subs	r3, #30
 80004fe:	4083      	lsls	r3, r0
 8000500:	4a01      	ldr	r2, [pc, #4]	; (8000508 <HAL_NVIC_EnableIRQ+0x14>)
 8000502:	6013      	str	r3, [r2, #0]
 8000504:	4770      	bx	lr
 8000506:	46c0      	nop			; (mov r8, r8)
 8000508:	e000e100 	.word	0xe000e100

0800050c <HAL_SYSTICK_Config>:
 800050c:	2280      	movs	r2, #128	; 0x80
 800050e:	1e43      	subs	r3, r0, #1
 8000510:	0452      	lsls	r2, r2, #17
 8000512:	2001      	movs	r0, #1
 8000514:	4293      	cmp	r3, r2
 8000516:	d20e      	bcs.n	8000536 <HAL_SYSTICK_Config+0x2a>
 8000518:	21c0      	movs	r1, #192	; 0xc0
 800051a:	4a07      	ldr	r2, [pc, #28]	; (8000538 <HAL_SYSTICK_Config+0x2c>)
 800051c:	4807      	ldr	r0, [pc, #28]	; (800053c <HAL_SYSTICK_Config+0x30>)
 800051e:	6053      	str	r3, [r2, #4]
 8000520:	6a03      	ldr	r3, [r0, #32]
 8000522:	0609      	lsls	r1, r1, #24
 8000524:	021b      	lsls	r3, r3, #8
 8000526:	0a1b      	lsrs	r3, r3, #8
 8000528:	430b      	orrs	r3, r1
 800052a:	6203      	str	r3, [r0, #32]
 800052c:	2300      	movs	r3, #0
 800052e:	2000      	movs	r0, #0
 8000530:	6093      	str	r3, [r2, #8]
 8000532:	3307      	adds	r3, #7
 8000534:	6013      	str	r3, [r2, #0]
 8000536:	4770      	bx	lr
 8000538:	e000e010 	.word	0xe000e010
 800053c:	e000ed00 	.word	0xe000ed00

08000540 <HAL_DMA_Init>:
 8000540:	b570      	push	{r4, r5, r6, lr}
 8000542:	1e04      	subs	r4, r0, #0
 8000544:	d027      	beq.n	8000596 <HAL_DMA_Init+0x56>
 8000546:	2521      	movs	r5, #33	; 0x21
 8000548:	2302      	movs	r3, #2
 800054a:	5543      	strb	r3, [r0, r5]
 800054c:	6800      	ldr	r0, [r0, #0]
 800054e:	4a13      	ldr	r2, [pc, #76]	; (800059c <HAL_DMA_Init+0x5c>)
 8000550:	6803      	ldr	r3, [r0, #0]
 8000552:	68a1      	ldr	r1, [r4, #8]
 8000554:	401a      	ands	r2, r3
 8000556:	6863      	ldr	r3, [r4, #4]
 8000558:	430b      	orrs	r3, r1
 800055a:	68e1      	ldr	r1, [r4, #12]
 800055c:	430b      	orrs	r3, r1
 800055e:	6921      	ldr	r1, [r4, #16]
 8000560:	430b      	orrs	r3, r1
 8000562:	6961      	ldr	r1, [r4, #20]
 8000564:	430b      	orrs	r3, r1
 8000566:	69a1      	ldr	r1, [r4, #24]
 8000568:	430b      	orrs	r3, r1
 800056a:	69e1      	ldr	r1, [r4, #28]
 800056c:	430b      	orrs	r3, r1
 800056e:	4313      	orrs	r3, r2
 8000570:	6003      	str	r3, [r0, #0]
 8000572:	4b0b      	ldr	r3, [pc, #44]	; (80005a0 <HAL_DMA_Init+0x60>)
 8000574:	2114      	movs	r1, #20
 8000576:	469c      	mov	ip, r3
 8000578:	4460      	add	r0, ip
 800057a:	f7ff fdd7 	bl	800012c <__udivsi3>
 800057e:	4b09      	ldr	r3, [pc, #36]	; (80005a4 <HAL_DMA_Init+0x64>)
 8000580:	2201      	movs	r2, #1
 8000582:	63e3      	str	r3, [r4, #60]	; 0x3c
 8000584:	2300      	movs	r3, #0
 8000586:	0080      	lsls	r0, r0, #2
 8000588:	6420      	str	r0, [r4, #64]	; 0x40
 800058a:	2000      	movs	r0, #0
 800058c:	63a3      	str	r3, [r4, #56]	; 0x38
 800058e:	5562      	strb	r2, [r4, r5]
 8000590:	321f      	adds	r2, #31
 8000592:	54a3      	strb	r3, [r4, r2]
 8000594:	bd70      	pop	{r4, r5, r6, pc}
 8000596:	2001      	movs	r0, #1
 8000598:	e7fc      	b.n	8000594 <HAL_DMA_Init+0x54>
 800059a:	46c0      	nop			; (mov r8, r8)
 800059c:	ffffc00f 	.word	0xffffc00f
 80005a0:	bffdfff8 	.word	0xbffdfff8
 80005a4:	40020000 	.word	0x40020000

080005a8 <HAL_DMA_Start_IT>:
 80005a8:	b5f0      	push	{r4, r5, r6, r7, lr}
 80005aa:	2420      	movs	r4, #32
 80005ac:	5d05      	ldrb	r5, [r0, r4]
 80005ae:	2d01      	cmp	r5, #1
 80005b0:	d037      	beq.n	8000622 <HAL_DMA_Start_IT+0x7a>
 80005b2:	2501      	movs	r5, #1
 80005b4:	2721      	movs	r7, #33	; 0x21
 80005b6:	5505      	strb	r5, [r0, r4]
 80005b8:	5dc5      	ldrb	r5, [r0, r7]
 80005ba:	b2ee      	uxtb	r6, r5
 80005bc:	2d01      	cmp	r5, #1
 80005be:	d003      	beq.n	80005c8 <HAL_DMA_Start_IT+0x20>
 80005c0:	2300      	movs	r3, #0
 80005c2:	5503      	strb	r3, [r0, r4]
 80005c4:	2002      	movs	r0, #2
 80005c6:	bdf0      	pop	{r4, r5, r6, r7, pc}
 80005c8:	3c1e      	subs	r4, #30
 80005ca:	55c4      	strb	r4, [r0, r7]
 80005cc:	2400      	movs	r4, #0
 80005ce:	6384      	str	r4, [r0, #56]	; 0x38
 80005d0:	6804      	ldr	r4, [r0, #0]
 80005d2:	6c07      	ldr	r7, [r0, #64]	; 0x40
 80005d4:	6825      	ldr	r5, [r4, #0]
 80005d6:	43b5      	bics	r5, r6
 80005d8:	40be      	lsls	r6, r7
 80005da:	6025      	str	r5, [r4, #0]
 80005dc:	6bc5      	ldr	r5, [r0, #60]	; 0x3c
 80005de:	606e      	str	r6, [r5, #4]
 80005e0:	6063      	str	r3, [r4, #4]
 80005e2:	6843      	ldr	r3, [r0, #4]
 80005e4:	2b10      	cmp	r3, #16
 80005e6:	d00e      	beq.n	8000606 <HAL_DMA_Start_IT+0x5e>
 80005e8:	6ac3      	ldr	r3, [r0, #44]	; 0x2c
 80005ea:	60a1      	str	r1, [r4, #8]
 80005ec:	60e2      	str	r2, [r4, #12]
 80005ee:	2b00      	cmp	r3, #0
 80005f0:	d00e      	beq.n	8000610 <HAL_DMA_Start_IT+0x68>
 80005f2:	220e      	movs	r2, #14
 80005f4:	6823      	ldr	r3, [r4, #0]
 80005f6:	4313      	orrs	r3, r2
 80005f8:	6023      	str	r3, [r4, #0]
 80005fa:	2201      	movs	r2, #1
 80005fc:	6823      	ldr	r3, [r4, #0]
 80005fe:	2000      	movs	r0, #0
 8000600:	4313      	orrs	r3, r2
 8000602:	6023      	str	r3, [r4, #0]
 8000604:	e7df      	b.n	80005c6 <HAL_DMA_Start_IT+0x1e>
 8000606:	6ac3      	ldr	r3, [r0, #44]	; 0x2c
 8000608:	60a2      	str	r2, [r4, #8]
 800060a:	60e1      	str	r1, [r4, #12]
 800060c:	2b00      	cmp	r3, #0
 800060e:	d1f0      	bne.n	80005f2 <HAL_DMA_Start_IT+0x4a>
 8000610:	220a      	movs	r2, #10
 8000612:	6823      	ldr	r3, [r4, #0]
 8000614:	4313      	orrs	r3, r2
 8000616:	6023      	str	r3, [r4, #0]
 8000618:	6823      	ldr	r3, [r4, #0]
 800061a:	3a06      	subs	r2, #6
 800061c:	4393      	bics	r3, r2
 800061e:	6023      	str	r3, [r4, #0]
 8000620:	e7eb      	b.n	80005fa <HAL_DMA_Start_IT+0x52>
 8000622:	2002      	movs	r0, #2
 8000624:	e7cf      	b.n	80005c6 <HAL_DMA_Start_IT+0x1e>
 8000626:	46c0      	nop			; (mov r8, r8)

08000628 <HAL_DMA_Abort>:
 8000628:	2321      	movs	r3, #33	; 0x21
 800062a:	b530      	push	{r4, r5, lr}
 800062c:	5cc2      	ldrb	r2, [r0, r3]
 800062e:	2a02      	cmp	r2, #2
 8000630:	d006      	beq.n	8000640 <HAL_DMA_Abort+0x18>
 8000632:	2200      	movs	r2, #0
 8000634:	3b1d      	subs	r3, #29
 8000636:	6383      	str	r3, [r0, #56]	; 0x38
 8000638:	331c      	adds	r3, #28
 800063a:	54c2      	strb	r2, [r0, r3]
 800063c:	2001      	movs	r0, #1
 800063e:	bd30      	pop	{r4, r5, pc}
 8000640:	240e      	movs	r4, #14
 8000642:	6802      	ldr	r2, [r0, #0]
 8000644:	6c05      	ldr	r5, [r0, #64]	; 0x40
 8000646:	6811      	ldr	r1, [r2, #0]
 8000648:	43a1      	bics	r1, r4
 800064a:	6011      	str	r1, [r2, #0]
 800064c:	2101      	movs	r1, #1
 800064e:	6814      	ldr	r4, [r2, #0]
 8000650:	438c      	bics	r4, r1
 8000652:	6014      	str	r4, [r2, #0]
 8000654:	000c      	movs	r4, r1
 8000656:	40ac      	lsls	r4, r5
 8000658:	6bc2      	ldr	r2, [r0, #60]	; 0x3c
 800065a:	6054      	str	r4, [r2, #4]
 800065c:	54c1      	strb	r1, [r0, r3]
 800065e:	2200      	movs	r2, #0
 8000660:	2320      	movs	r3, #32
 8000662:	54c2      	strb	r2, [r0, r3]
 8000664:	2000      	movs	r0, #0
 8000666:	e7ea      	b.n	800063e <HAL_DMA_Abort+0x16>

08000668 <HAL_DMA_Abort_IT>:
 8000668:	2321      	movs	r3, #33	; 0x21
 800066a:	b570      	push	{r4, r5, r6, lr}
 800066c:	5cc2      	ldrb	r2, [r0, r3]
 800066e:	2a02      	cmp	r2, #2
 8000670:	d003      	beq.n	800067a <HAL_DMA_Abort_IT+0x12>
 8000672:	3b1d      	subs	r3, #29
 8000674:	6383      	str	r3, [r0, #56]	; 0x38
 8000676:	2001      	movs	r0, #1
 8000678:	bd70      	pop	{r4, r5, r6, pc}
 800067a:	240e      	movs	r4, #14
 800067c:	6802      	ldr	r2, [r0, #0]
 800067e:	6c05      	ldr	r5, [r0, #64]	; 0x40
 8000680:	6811      	ldr	r1, [r2, #0]
 8000682:	43a1      	bics	r1, r4
 8000684:	6011      	str	r1, [r2, #0]
 8000686:	2101      	movs	r1, #1
 8000688:	6814      	ldr	r4, [r2, #0]
 800068a:	438c      	bics	r4, r1
 800068c:	6014      	str	r4, [r2, #0]
 800068e:	000c      	movs	r4, r1
 8000690:	40ac      	lsls	r4, r5
 8000692:	6bc2      	ldr	r2, [r0, #60]	; 0x3c
 8000694:	6054      	str	r4, [r2, #4]
 8000696:	54c1      	strb	r1, [r0, r3]
 8000698:	2200      	movs	r2, #0
 800069a:	2320      	movs	r3, #32
 800069c:	54c2      	strb	r2, [r0, r3]
 800069e:	6b43      	ldr	r3, [r0, #52]	; 0x34
 80006a0:	2b00      	cmp	r3, #0
 80006a2:	d002      	beq.n	80006aa <HAL_DMA_Abort_IT+0x42>
 80006a4:	4798      	blx	r3
 80006a6:	2000      	movs	r0, #0
 80006a8:	e7e6      	b.n	8000678 <HAL_DMA_Abort_IT+0x10>
 80006aa:	2000      	movs	r0, #0
 80006ac:	e7e4      	b.n	8000678 <HAL_DMA_Abort_IT+0x10>
 80006ae:	46c0      	nop			; (mov r8, r8)

080006b0 <HAL_DMA_IRQHandler>:
 80006b0:	b5f8      	push	{r3, r4, r5, r6, r7, lr}
 80006b2:	2404      	movs	r4, #4
 80006b4:	0026      	movs	r6, r4
 80006b6:	6c03      	ldr	r3, [r0, #64]	; 0x40
 80006b8:	6bc5      	ldr	r5, [r0, #60]	; 0x3c
 80006ba:	409e      	lsls	r6, r3
 80006bc:	682a      	ldr	r2, [r5, #0]
 80006be:	6801      	ldr	r1, [r0, #0]
 80006c0:	680f      	ldr	r7, [r1, #0]
 80006c2:	4232      	tst	r2, r6
 80006c4:	d00d      	beq.n	80006e2 <HAL_DMA_IRQHandler+0x32>
 80006c6:	423c      	tst	r4, r7
 80006c8:	d00b      	beq.n	80006e2 <HAL_DMA_IRQHandler+0x32>
 80006ca:	680b      	ldr	r3, [r1, #0]
 80006cc:	069b      	lsls	r3, r3, #26
 80006ce:	d402      	bmi.n	80006d6 <HAL_DMA_IRQHandler+0x26>
 80006d0:	680b      	ldr	r3, [r1, #0]
 80006d2:	43a3      	bics	r3, r4
 80006d4:	600b      	str	r3, [r1, #0]
 80006d6:	6ac3      	ldr	r3, [r0, #44]	; 0x2c
 80006d8:	606e      	str	r6, [r5, #4]
 80006da:	2b00      	cmp	r3, #0
 80006dc:	d000      	beq.n	80006e0 <HAL_DMA_IRQHandler+0x30>
 80006de:	4798      	blx	r3
 80006e0:	bdf8      	pop	{r3, r4, r5, r6, r7, pc}
 80006e2:	2402      	movs	r4, #2
 80006e4:	0026      	movs	r6, r4
 80006e6:	409e      	lsls	r6, r3
 80006e8:	4232      	tst	r2, r6
 80006ea:	d014      	beq.n	8000716 <HAL_DMA_IRQHandler+0x66>
 80006ec:	423c      	tst	r4, r7
 80006ee:	d012      	beq.n	8000716 <HAL_DMA_IRQHandler+0x66>
 80006f0:	680b      	ldr	r3, [r1, #0]
 80006f2:	069b      	lsls	r3, r3, #26
 80006f4:	d406      	bmi.n	8000704 <HAL_DMA_IRQHandler+0x54>
 80006f6:	220a      	movs	r2, #10
 80006f8:	680b      	ldr	r3, [r1, #0]
 80006fa:	4393      	bics	r3, r2
 80006fc:	600b      	str	r3, [r1, #0]
 80006fe:	2321      	movs	r3, #33	; 0x21
 8000700:	3a09      	subs	r2, #9
 8000702:	54c2      	strb	r2, [r0, r3]
 8000704:	2320      	movs	r3, #32
 8000706:	2200      	movs	r2, #0
 8000708:	606e      	str	r6, [r5, #4]
 800070a:	54c2      	strb	r2, [r0, r3]
 800070c:	6a83      	ldr	r3, [r0, #40]	; 0x28
 800070e:	2b00      	cmp	r3, #0
 8000710:	d0e6      	beq.n	80006e0 <HAL_DMA_IRQHandler+0x30>
 8000712:	4798      	blx	r3
 8000714:	e7e4      	b.n	80006e0 <HAL_DMA_IRQHandler+0x30>
 8000716:	2408      	movs	r4, #8
 8000718:	0026      	movs	r6, r4
 800071a:	409e      	lsls	r6, r3
 800071c:	4232      	tst	r2, r6
 800071e:	d0df      	beq.n	80006e0 <HAL_DMA_IRQHandler+0x30>
 8000720:	423c      	tst	r4, r7
 8000722:	d0dd      	beq.n	80006e0 <HAL_DMA_IRQHandler+0x30>
 8000724:	680a      	ldr	r2, [r1, #0]
 8000726:	3406      	adds	r4, #6
 8000728:	43a2      	bics	r2, r4
 800072a:	600a      	str	r2, [r1, #0]
 800072c:	2201      	movs	r2, #1
 800072e:	0011      	movs	r1, r2
 8000730:	4099      	lsls	r1, r3
 8000732:	2321      	movs	r3, #33	; 0x21
 8000734:	6069      	str	r1, [r5, #4]
 8000736:	6382      	str	r2, [r0, #56]	; 0x38
 8000738:	54c2      	strb	r2, [r0, r3]
 800073a:	2200      	movs	r2, #0
 800073c:	3b01      	subs	r3, #1
 800073e:	54c2      	strb	r2, [r0, r3]
 8000740:	6b03      	ldr	r3, [r0, #48]	; 0x30
 8000742:	2b00      	cmp	r3, #0
 8000744:	d0cc      	beq.n	80006e0 <HAL_DMA_IRQHandler+0x30>
 8000746:	4798      	blx	r3
 8000748:	e7ca      	b.n	80006e0 <HAL_DMA_IRQHandler+0x30>
 800074a:	46c0      	nop			; (mov r8, r8)

0800074c <FLASH_SetErrorCode>:
 800074c:	2110      	movs	r1, #16
 800074e:	4b0d      	ldr	r3, [pc, #52]	; (8000784 <FLASH_SetErrorCode+0x38>)
 8000750:	b510      	push	{r4, lr}
 8000752:	68da      	ldr	r2, [r3, #12]
 8000754:	000b      	movs	r3, r1
 8000756:	4013      	ands	r3, r2
 8000758:	4211      	tst	r1, r2
 800075a:	d005      	beq.n	8000768 <FLASH_SetErrorCode+0x1c>
 800075c:	4a0a      	ldr	r2, [pc, #40]	; (8000788 <FLASH_SetErrorCode+0x3c>)
 800075e:	390e      	subs	r1, #14
 8000760:	69d3      	ldr	r3, [r2, #28]
 8000762:	430b      	orrs	r3, r1
 8000764:	61d3      	str	r3, [r2, #28]
 8000766:	2310      	movs	r3, #16
 8000768:	4a06      	ldr	r2, [pc, #24]	; (8000784 <FLASH_SetErrorCode+0x38>)
 800076a:	68d1      	ldr	r1, [r2, #12]
 800076c:	2204      	movs	r2, #4
 800076e:	420a      	tst	r2, r1
 8000770:	d005      	beq.n	800077e <FLASH_SetErrorCode+0x32>
 8000772:	2401      	movs	r4, #1
 8000774:	4804      	ldr	r0, [pc, #16]	; (8000788 <FLASH_SetErrorCode+0x3c>)
 8000776:	4313      	orrs	r3, r2
 8000778:	69c1      	ldr	r1, [r0, #28]
 800077a:	4321      	orrs	r1, r4
 800077c:	61c1      	str	r1, [r0, #28]
 800077e:	4a01      	ldr	r2, [pc, #4]	; (8000784 <FLASH_SetErrorCode+0x38>)
 8000780:	60d3      	str	r3, [r2, #12]
 8000782:	bd10      	pop	{r4, pc}
 8000784:	40022000 	.word	0x40022000
 8000788:	20000e08 	.word	0x20000e08

0800078c <HAL_FLASH_Unlock>:
 800078c:	4b06      	ldr	r3, [pc, #24]	; (80007a8 <HAL_FLASH_Unlock+0x1c>)
 800078e:	2000      	movs	r0, #0
 8000790:	691a      	ldr	r2, [r3, #16]
 8000792:	0612      	lsls	r2, r2, #24
 8000794:	d506      	bpl.n	80007a4 <HAL_FLASH_Unlock+0x18>
 8000796:	4a05      	ldr	r2, [pc, #20]	; (80007ac <HAL_FLASH_Unlock+0x20>)
 8000798:	605a      	str	r2, [r3, #4]
 800079a:	4a05      	ldr	r2, [pc, #20]	; (80007b0 <HAL_FLASH_Unlock+0x24>)
 800079c:	605a      	str	r2, [r3, #4]
 800079e:	6918      	ldr	r0, [r3, #16]
 80007a0:	0600      	lsls	r0, r0, #24
 80007a2:	0fc0      	lsrs	r0, r0, #31
 80007a4:	4770      	bx	lr
 80007a6:	46c0      	nop			; (mov r8, r8)
 80007a8:	40022000 	.word	0x40022000
 80007ac:	45670123 	.word	0x45670123
 80007b0:	cdef89ab 	.word	0xcdef89ab

080007b4 <HAL_FLASH_Lock>:
 80007b4:	2180      	movs	r1, #128	; 0x80
 80007b6:	4a03      	ldr	r2, [pc, #12]	; (80007c4 <HAL_FLASH_Lock+0x10>)
 80007b8:	2000      	movs	r0, #0
 80007ba:	6913      	ldr	r3, [r2, #16]
 80007bc:	430b      	orrs	r3, r1
 80007be:	6113      	str	r3, [r2, #16]
 80007c0:	4770      	bx	lr
 80007c2:	46c0      	nop			; (mov r8, r8)
 80007c4:	40022000 	.word	0x40022000

080007c8 <FLASH_WaitForLastOperation>:
 80007c8:	b5f8      	push	{r3, r4, r5, r6, r7, lr}
 80007ca:	0004      	movs	r4, r0
 80007cc:	f7ff fe48 	bl	8000460 <HAL_GetTick>
 80007d0:	2601      	movs	r6, #1
 80007d2:	0007      	movs	r7, r0
 80007d4:	4d12      	ldr	r5, [pc, #72]	; (8000820 <FLASH_WaitForLastOperation+0x58>)
 80007d6:	e001      	b.n	80007dc <FLASH_WaitForLastOperation+0x14>
 80007d8:	1c63      	adds	r3, r4, #1
 80007da:	d10f      	bne.n	80007fc <FLASH_WaitForLastOperation+0x34>
 80007dc:	68eb      	ldr	r3, [r5, #12]
 80007de:	421e      	tst	r6, r3
 80007e0:	d1fa      	bne.n	80007d8 <FLASH_WaitForLastOperation+0x10>
 80007e2:	2320      	movs	r3, #32
 80007e4:	68ea      	ldr	r2, [r5, #12]
 80007e6:	4213      	tst	r3, r2
 80007e8:	d111      	bne.n	800080e <FLASH_WaitForLastOperation+0x46>
 80007ea:	4b0d      	ldr	r3, [pc, #52]	; (8000820 <FLASH_WaitForLastOperation+0x58>)
 80007ec:	68da      	ldr	r2, [r3, #12]
 80007ee:	06d2      	lsls	r2, r2, #27
 80007f0:	d412      	bmi.n	8000818 <FLASH_WaitForLastOperation+0x50>
 80007f2:	68db      	ldr	r3, [r3, #12]
 80007f4:	2000      	movs	r0, #0
 80007f6:	075b      	lsls	r3, r3, #29
 80007f8:	d40e      	bmi.n	8000818 <FLASH_WaitForLastOperation+0x50>
 80007fa:	bdf8      	pop	{r3, r4, r5, r6, r7, pc}
 80007fc:	2c00      	cmp	r4, #0
 80007fe:	d004      	beq.n	800080a <FLASH_WaitForLastOperation+0x42>
 8000800:	f7ff fe2e 	bl	8000460 <HAL_GetTick>
 8000804:	1bc0      	subs	r0, r0, r7
 8000806:	42a0      	cmp	r0, r4
 8000808:	d9e8      	bls.n	80007dc <FLASH_WaitForLastOperation+0x14>
 800080a:	2003      	movs	r0, #3
 800080c:	e7f5      	b.n	80007fa <FLASH_WaitForLastOperation+0x32>
 800080e:	60eb      	str	r3, [r5, #12]
 8000810:	4b03      	ldr	r3, [pc, #12]	; (8000820 <FLASH_WaitForLastOperation+0x58>)
 8000812:	68da      	ldr	r2, [r3, #12]
 8000814:	06d2      	lsls	r2, r2, #27
 8000816:	d5ec      	bpl.n	80007f2 <FLASH_WaitForLastOperation+0x2a>
 8000818:	f7ff ff98 	bl	800074c <FLASH_SetErrorCode>
 800081c:	2001      	movs	r0, #1
 800081e:	e7ec      	b.n	80007fa <FLASH_WaitForLastOperation+0x32>
 8000820:	40022000 	.word	0x40022000

08000824 <HAL_FLASH_Program>:
 8000824:	b5f0      	push	{r4, r5, r6, r7, lr}
 8000826:	464e      	mov	r6, r9
 8000828:	4657      	mov	r7, sl
 800082a:	46de      	mov	lr, fp
 800082c:	4645      	mov	r5, r8
 800082e:	b5e0      	push	{r5, r6, r7, lr}
 8000830:	469a      	mov	sl, r3
 8000832:	b083      	sub	sp, #12
 8000834:	4b2a      	ldr	r3, [pc, #168]	; (80008e0 <HAL_FLASH_Program+0xbc>)
 8000836:	9201      	str	r2, [sp, #4]
 8000838:	4699      	mov	r9, r3
 800083a:	7e1b      	ldrb	r3, [r3, #24]
 800083c:	0004      	movs	r4, r0
 800083e:	000e      	movs	r6, r1
 8000840:	2b01      	cmp	r3, #1
 8000842:	d048      	beq.n	80008d6 <HAL_FLASH_Program+0xb2>
 8000844:	2501      	movs	r5, #1
 8000846:	464b      	mov	r3, r9
 8000848:	4826      	ldr	r0, [pc, #152]	; (80008e4 <HAL_FLASH_Program+0xc0>)
 800084a:	761d      	strb	r5, [r3, #24]
 800084c:	f7ff ffbc 	bl	80007c8 <FLASH_WaitForLastOperation>
 8000850:	2800      	cmp	r0, #0
 8000852:	d136      	bne.n	80008c2 <HAL_FLASH_Program+0x9e>
 8000854:	2c01      	cmp	r4, #1
 8000856:	d040      	beq.n	80008da <HAL_FLASH_Program+0xb6>
 8000858:	3c02      	subs	r4, #2
 800085a:	4260      	negs	r0, r4
 800085c:	4144      	adcs	r4, r0
 800085e:	2304      	movs	r3, #4
 8000860:	4264      	negs	r4, r4
 8000862:	43ac      	bics	r4, r5
 8000864:	46a0      	mov	r8, r4
 8000866:	469c      	mov	ip, r3
 8000868:	44e0      	add	r8, ip
 800086a:	2300      	movs	r3, #0
 800086c:	2500      	movs	r5, #0
 800086e:	469b      	mov	fp, r3
 8000870:	e018      	b.n	80008a4 <HAL_FLASH_Program+0x80>
 8000872:	4653      	mov	r3, sl
 8000874:	40d3      	lsrs	r3, r2
 8000876:	464a      	mov	r2, r9
 8000878:	4659      	mov	r1, fp
 800087a:	2701      	movs	r7, #1
 800087c:	4c1a      	ldr	r4, [pc, #104]	; (80008e8 <HAL_FLASH_Program+0xc4>)
 800087e:	61d1      	str	r1, [r2, #28]
 8000880:	6922      	ldr	r2, [r4, #16]
 8000882:	b29b      	uxth	r3, r3
 8000884:	433a      	orrs	r2, r7
 8000886:	6122      	str	r2, [r4, #16]
 8000888:	4816      	ldr	r0, [pc, #88]	; (80008e4 <HAL_FLASH_Program+0xc0>)
 800088a:	8033      	strh	r3, [r6, #0]
 800088c:	f7ff ff9c 	bl	80007c8 <FLASH_WaitForLastOperation>
 8000890:	6923      	ldr	r3, [r4, #16]
 8000892:	43bb      	bics	r3, r7
 8000894:	6123      	str	r3, [r4, #16]
 8000896:	2800      	cmp	r0, #0
 8000898:	d113      	bne.n	80008c2 <HAL_FLASH_Program+0x9e>
 800089a:	3501      	adds	r5, #1
 800089c:	b2eb      	uxtb	r3, r5
 800089e:	3602      	adds	r6, #2
 80008a0:	4598      	cmp	r8, r3
 80008a2:	d90e      	bls.n	80008c2 <HAL_FLASH_Program+0x9e>
 80008a4:	2220      	movs	r2, #32
 80008a6:	012b      	lsls	r3, r5, #4
 80008a8:	4252      	negs	r2, r2
 80008aa:	189a      	adds	r2, r3, r2
 80008ac:	d5e1      	bpl.n	8000872 <HAL_FLASH_Program+0x4e>
 80008ae:	2220      	movs	r2, #32
 80008b0:	4651      	mov	r1, sl
 80008b2:	1ad2      	subs	r2, r2, r3
 80008b4:	4091      	lsls	r1, r2
 80008b6:	000a      	movs	r2, r1
 80008b8:	9901      	ldr	r1, [sp, #4]
 80008ba:	40d9      	lsrs	r1, r3
 80008bc:	000b      	movs	r3, r1
 80008be:	4313      	orrs	r3, r2
 80008c0:	e7d9      	b.n	8000876 <HAL_FLASH_Program+0x52>
 80008c2:	2300      	movs	r3, #0
 80008c4:	464a      	mov	r2, r9
 80008c6:	7613      	strb	r3, [r2, #24]
 80008c8:	b003      	add	sp, #12
 80008ca:	bcf0      	pop	{r4, r5, r6, r7}
 80008cc:	46bb      	mov	fp, r7
 80008ce:	46b2      	mov	sl, r6
 80008d0:	46a9      	mov	r9, r5
 80008d2:	46a0      	mov	r8, r4
 80008d4:	bdf0      	pop	{r4, r5, r6, r7, pc}
 80008d6:	2002      	movs	r0, #2
 80008d8:	e7f6      	b.n	80008c8 <HAL_FLASH_Program+0xa4>
 80008da:	2301      	movs	r3, #1
 80008dc:	4698      	mov	r8, r3
 80008de:	e7c4      	b.n	800086a <HAL_FLASH_Program+0x46>
 80008e0:	20000e08 	.word	0x20000e08
 80008e4:	0000c350 	.word	0x0000c350
 80008e8:	40022000 	.word	0x40022000

080008ec <HAL_FLASHEx_Erase>:
 80008ec:	b5f0      	push	{r4, r5, r6, r7, lr}
 80008ee:	4646      	mov	r6, r8
 80008f0:	464f      	mov	r7, r9
 80008f2:	46d6      	mov	lr, sl
 80008f4:	b5c0      	push	{r6, r7, lr}
 80008f6:	4f30      	ldr	r7, [pc, #192]	; (80009b8 <HAL_FLASHEx_Erase+0xcc>)
 80008f8:	0006      	movs	r6, r0
 80008fa:	7e3b      	ldrb	r3, [r7, #24]
 80008fc:	4688      	mov	r8, r1
 80008fe:	2b01      	cmp	r3, #1
 8000900:	d057      	beq.n	80009b2 <HAL_FLASHEx_Erase+0xc6>
 8000902:	2301      	movs	r3, #1
 8000904:	763b      	strb	r3, [r7, #24]
 8000906:	6803      	ldr	r3, [r0, #0]
 8000908:	482c      	ldr	r0, [pc, #176]	; (80009bc <HAL_FLASHEx_Erase+0xd0>)
 800090a:	2b01      	cmp	r3, #1
 800090c:	d034      	beq.n	8000978 <HAL_FLASHEx_Erase+0x8c>
 800090e:	f7ff ff5b 	bl	80007c8 <FLASH_WaitForLastOperation>
 8000912:	2800      	cmp	r0, #0
 8000914:	d134      	bne.n	8000980 <HAL_FLASHEx_Erase+0x94>
 8000916:	2301      	movs	r3, #1
 8000918:	4642      	mov	r2, r8
 800091a:	425b      	negs	r3, r3
 800091c:	6013      	str	r3, [r2, #0]
 800091e:	68b3      	ldr	r3, [r6, #8]
 8000920:	6875      	ldr	r5, [r6, #4]
 8000922:	029b      	lsls	r3, r3, #10
 8000924:	195b      	adds	r3, r3, r5
 8000926:	429d      	cmp	r5, r3
 8000928:	d22a      	bcs.n	8000980 <HAL_FLASHEx_Erase+0x94>
 800092a:	2300      	movs	r3, #0
 800092c:	4c24      	ldr	r4, [pc, #144]	; (80009c0 <HAL_FLASHEx_Erase+0xd4>)
 800092e:	4699      	mov	r9, r3
 8000930:	e00a      	b.n	8000948 <HAL_FLASHEx_Erase+0x5c>
 8000932:	2380      	movs	r3, #128	; 0x80
 8000934:	00db      	lsls	r3, r3, #3
 8000936:	469c      	mov	ip, r3
 8000938:	6872      	ldr	r2, [r6, #4]
 800093a:	4465      	add	r5, ip
 800093c:	4694      	mov	ip, r2
 800093e:	68b3      	ldr	r3, [r6, #8]
 8000940:	029b      	lsls	r3, r3, #10
 8000942:	4463      	add	r3, ip
 8000944:	42ab      	cmp	r3, r5
 8000946:	d91c      	bls.n	8000982 <HAL_FLASHEx_Erase+0x96>
 8000948:	2202      	movs	r2, #2
 800094a:	464b      	mov	r3, r9
 800094c:	4692      	mov	sl, r2
 800094e:	61fb      	str	r3, [r7, #28]
 8000950:	6923      	ldr	r3, [r4, #16]
 8000952:	481a      	ldr	r0, [pc, #104]	; (80009bc <HAL_FLASHEx_Erase+0xd0>)
 8000954:	4313      	orrs	r3, r2
 8000956:	6123      	str	r3, [r4, #16]
 8000958:	6165      	str	r5, [r4, #20]
 800095a:	6923      	ldr	r3, [r4, #16]
 800095c:	323e      	adds	r2, #62	; 0x3e
 800095e:	4313      	orrs	r3, r2
 8000960:	6123      	str	r3, [r4, #16]
 8000962:	f7ff ff31 	bl	80007c8 <FLASH_WaitForLastOperation>
 8000966:	4652      	mov	r2, sl
 8000968:	6923      	ldr	r3, [r4, #16]
 800096a:	4393      	bics	r3, r2
 800096c:	6123      	str	r3, [r4, #16]
 800096e:	2800      	cmp	r0, #0
 8000970:	d0df      	beq.n	8000932 <HAL_FLASHEx_Erase+0x46>
 8000972:	4643      	mov	r3, r8
 8000974:	601d      	str	r5, [r3, #0]
 8000976:	e004      	b.n	8000982 <HAL_FLASHEx_Erase+0x96>
 8000978:	f7ff ff26 	bl	80007c8 <FLASH_WaitForLastOperation>
 800097c:	2800      	cmp	r0, #0
 800097e:	d007      	beq.n	8000990 <HAL_FLASHEx_Erase+0xa4>
 8000980:	2001      	movs	r0, #1
 8000982:	2300      	movs	r3, #0
 8000984:	763b      	strb	r3, [r7, #24]
 8000986:	bce0      	pop	{r5, r6, r7}
 8000988:	46ba      	mov	sl, r7
 800098a:	46b1      	mov	r9, r6
 800098c:	46a8      	mov	r8, r5
 800098e:	bdf0      	pop	{r4, r5, r6, r7, pc}
 8000990:	2504      	movs	r5, #4
 8000992:	2240      	movs	r2, #64	; 0x40
 8000994:	4c0a      	ldr	r4, [pc, #40]	; (80009c0 <HAL_FLASHEx_Erase+0xd4>)
 8000996:	61f8      	str	r0, [r7, #28]
 8000998:	6923      	ldr	r3, [r4, #16]
 800099a:	4808      	ldr	r0, [pc, #32]	; (80009bc <HAL_FLASHEx_Erase+0xd0>)
 800099c:	432b      	orrs	r3, r5
 800099e:	6123      	str	r3, [r4, #16]
 80009a0:	6923      	ldr	r3, [r4, #16]
 80009a2:	4313      	orrs	r3, r2
 80009a4:	6123      	str	r3, [r4, #16]
 80009a6:	f7ff ff0f 	bl	80007c8 <FLASH_WaitForLastOperation>
 80009aa:	6923      	ldr	r3, [r4, #16]
 80009ac:	43ab      	bics	r3, r5
 80009ae:	6123      	str	r3, [r4, #16]
 80009b0:	e7e7      	b.n	8000982 <HAL_FLASHEx_Erase+0x96>
 80009b2:	2002      	movs	r0, #2
 80009b4:	e7e7      	b.n	8000986 <HAL_FLASHEx_Erase+0x9a>
 80009b6:	46c0      	nop			; (mov r8, r8)
 80009b8:	20000e08 	.word	0x20000e08
 80009bc:	0000c350 	.word	0x0000c350
 80009c0:	40022000 	.word	0x40022000

080009c4 <HAL_GPIO_Init>:
 80009c4:	b5f0      	push	{r4, r5, r6, r7, lr}
 80009c6:	464e      	mov	r6, r9
 80009c8:	46de      	mov	lr, fp
 80009ca:	4657      	mov	r7, sl
 80009cc:	4645      	mov	r5, r8
 80009ce:	b5e0      	push	{r5, r6, r7, lr}
 80009d0:	680a      	ldr	r2, [r1, #0]
 80009d2:	4689      	mov	r9, r1
 80009d4:	2300      	movs	r3, #0
 80009d6:	b087      	sub	sp, #28
 80009d8:	2a00      	cmp	r2, #0
 80009da:	d075      	beq.n	8000ac8 <HAL_GPIO_Init+0x104>
 80009dc:	2101      	movs	r1, #1
 80009de:	4688      	mov	r8, r1
 80009e0:	496c      	ldr	r1, [pc, #432]	; (8000b94 <HAL_GPIO_Init+0x1d0>)
 80009e2:	468b      	mov	fp, r1
 80009e4:	4644      	mov	r4, r8
 80009e6:	0015      	movs	r5, r2
 80009e8:	409c      	lsls	r4, r3
 80009ea:	4025      	ands	r5, r4
 80009ec:	9501      	str	r5, [sp, #4]
 80009ee:	4222      	tst	r2, r4
 80009f0:	d066      	beq.n	8000ac0 <HAL_GPIO_Init+0xfc>
 80009f2:	464d      	mov	r5, r9
 80009f4:	2603      	movs	r6, #3
 80009f6:	686d      	ldr	r5, [r5, #4]
 80009f8:	402e      	ands	r6, r5
 80009fa:	46aa      	mov	sl, r5
 80009fc:	1e75      	subs	r5, r6, #1
 80009fe:	2d01      	cmp	r5, #1
 8000a00:	d969      	bls.n	8000ad6 <HAL_GPIO_Init+0x112>
 8000a02:	005f      	lsls	r7, r3, #1
 8000a04:	2e03      	cmp	r6, #3
 8000a06:	d000      	beq.n	8000a0a <HAL_GPIO_Init+0x46>
 8000a08:	e0a5      	b.n	8000b56 <HAL_GPIO_Init+0x192>
 8000a0a:	0034      	movs	r4, r6
 8000a0c:	40bc      	lsls	r4, r7
 8000a0e:	43e1      	mvns	r1, r4
 8000a10:	9102      	str	r1, [sp, #8]
 8000a12:	6806      	ldr	r6, [r0, #0]
 8000a14:	9d02      	ldr	r5, [sp, #8]
 8000a16:	4035      	ands	r5, r6
 8000a18:	4325      	orrs	r5, r4
 8000a1a:	6005      	str	r5, [r0, #0]
 8000a1c:	25c0      	movs	r5, #192	; 0xc0
 8000a1e:	4654      	mov	r4, sl
 8000a20:	02ad      	lsls	r5, r5, #10
 8000a22:	422c      	tst	r4, r5
 8000a24:	d04c      	beq.n	8000ac0 <HAL_GPIO_Init+0xfc>
 8000a26:	4659      	mov	r1, fp
 8000a28:	698c      	ldr	r4, [r1, #24]
 8000a2a:	4641      	mov	r1, r8
 8000a2c:	430c      	orrs	r4, r1
 8000a2e:	4659      	mov	r1, fp
 8000a30:	618c      	str	r4, [r1, #24]
 8000a32:	698c      	ldr	r4, [r1, #24]
 8000a34:	4641      	mov	r1, r8
 8000a36:	2603      	movs	r6, #3
 8000a38:	270f      	movs	r7, #15
 8000a3a:	400c      	ands	r4, r1
 8000a3c:	4956      	ldr	r1, [pc, #344]	; (8000b98 <HAL_GPIO_Init+0x1d4>)
 8000a3e:	401e      	ands	r6, r3
 8000a40:	468c      	mov	ip, r1
 8000a42:	00b6      	lsls	r6, r6, #2
 8000a44:	40b7      	lsls	r7, r6
 8000a46:	2190      	movs	r1, #144	; 0x90
 8000a48:	9405      	str	r4, [sp, #20]
 8000a4a:	9c05      	ldr	r4, [sp, #20]
 8000a4c:	089c      	lsrs	r4, r3, #2
 8000a4e:	00a4      	lsls	r4, r4, #2
 8000a50:	4464      	add	r4, ip
 8000a52:	68a5      	ldr	r5, [r4, #8]
 8000a54:	05c9      	lsls	r1, r1, #23
 8000a56:	43bd      	bics	r5, r7
 8000a58:	4288      	cmp	r0, r1
 8000a5a:	d00e      	beq.n	8000a7a <HAL_GPIO_Init+0xb6>
 8000a5c:	4f4f      	ldr	r7, [pc, #316]	; (8000b9c <HAL_GPIO_Init+0x1d8>)
 8000a5e:	42b8      	cmp	r0, r7
 8000a60:	d100      	bne.n	8000a64 <HAL_GPIO_Init+0xa0>
 8000a62:	e08e      	b.n	8000b82 <HAL_GPIO_Init+0x1be>
 8000a64:	4f4e      	ldr	r7, [pc, #312]	; (8000ba0 <HAL_GPIO_Init+0x1dc>)
 8000a66:	42b8      	cmp	r0, r7
 8000a68:	d100      	bne.n	8000a6c <HAL_GPIO_Init+0xa8>
 8000a6a:	e08e      	b.n	8000b8a <HAL_GPIO_Init+0x1c6>
 8000a6c:	4f4d      	ldr	r7, [pc, #308]	; (8000ba4 <HAL_GPIO_Init+0x1e0>)
 8000a6e:	42b8      	cmp	r0, r7
 8000a70:	d100      	bne.n	8000a74 <HAL_GPIO_Init+0xb0>
 8000a72:	e082      	b.n	8000b7a <HAL_GPIO_Init+0x1b6>
 8000a74:	2705      	movs	r7, #5
 8000a76:	40b7      	lsls	r7, r6
 8000a78:	433d      	orrs	r5, r7
 8000a7a:	494b      	ldr	r1, [pc, #300]	; (8000ba8 <HAL_GPIO_Init+0x1e4>)
 8000a7c:	60a5      	str	r5, [r4, #8]
 8000a7e:	688c      	ldr	r4, [r1, #8]
 8000a80:	9901      	ldr	r1, [sp, #4]
 8000a82:	2580      	movs	r5, #128	; 0x80
 8000a84:	43ce      	mvns	r6, r1
 8000a86:	4651      	mov	r1, sl
 8000a88:	036d      	lsls	r5, r5, #13
 8000a8a:	4229      	tst	r1, r5
 8000a8c:	d000      	beq.n	8000a90 <HAL_GPIO_Init+0xcc>
 8000a8e:	e071      	b.n	8000b74 <HAL_GPIO_Init+0x1b0>
 8000a90:	4034      	ands	r4, r6
 8000a92:	4945      	ldr	r1, [pc, #276]	; (8000ba8 <HAL_GPIO_Init+0x1e4>)
 8000a94:	608c      	str	r4, [r1, #8]
 8000a96:	68cc      	ldr	r4, [r1, #12]
 8000a98:	4651      	mov	r1, sl
 8000a9a:	0289      	lsls	r1, r1, #10
 8000a9c:	d467      	bmi.n	8000b6e <HAL_GPIO_Init+0x1aa>
 8000a9e:	4034      	ands	r4, r6
 8000aa0:	4941      	ldr	r1, [pc, #260]	; (8000ba8 <HAL_GPIO_Init+0x1e4>)
 8000aa2:	60cc      	str	r4, [r1, #12]
 8000aa4:	684d      	ldr	r5, [r1, #4]
 8000aa6:	4651      	mov	r1, sl
 8000aa8:	0389      	lsls	r1, r1, #14
 8000aaa:	d45d      	bmi.n	8000b68 <HAL_GPIO_Init+0x1a4>
 8000aac:	4035      	ands	r5, r6
 8000aae:	493e      	ldr	r1, [pc, #248]	; (8000ba8 <HAL_GPIO_Init+0x1e4>)
 8000ab0:	604d      	str	r5, [r1, #4]
 8000ab2:	680c      	ldr	r4, [r1, #0]
 8000ab4:	4651      	mov	r1, sl
 8000ab6:	03c9      	lsls	r1, r1, #15
 8000ab8:	d452      	bmi.n	8000b60 <HAL_GPIO_Init+0x19c>
 8000aba:	4034      	ands	r4, r6
 8000abc:	493a      	ldr	r1, [pc, #232]	; (8000ba8 <HAL_GPIO_Init+0x1e4>)
 8000abe:	600c      	str	r4, [r1, #0]
 8000ac0:	0014      	movs	r4, r2
 8000ac2:	3301      	adds	r3, #1
 8000ac4:	40dc      	lsrs	r4, r3
 8000ac6:	d18d      	bne.n	80009e4 <HAL_GPIO_Init+0x20>
 8000ac8:	b007      	add	sp, #28
 8000aca:	bcf0      	pop	{r4, r5, r6, r7}
 8000acc:	46bb      	mov	fp, r7
 8000ace:	46b2      	mov	sl, r6
 8000ad0:	46a9      	mov	r9, r5
 8000ad2:	46a0      	mov	r8, r4
 8000ad4:	bdf0      	pop	{r4, r5, r6, r7, pc}
 8000ad6:	6885      	ldr	r5, [r0, #8]
 8000ad8:	005f      	lsls	r7, r3, #1
 8000ada:	9503      	str	r5, [sp, #12]
 8000adc:	2503      	movs	r5, #3
 8000ade:	40bd      	lsls	r5, r7
 8000ae0:	46ac      	mov	ip, r5
 8000ae2:	43e9      	mvns	r1, r5
 8000ae4:	9102      	str	r1, [sp, #8]
 8000ae6:	4661      	mov	r1, ip
 8000ae8:	9d03      	ldr	r5, [sp, #12]
 8000aea:	438d      	bics	r5, r1
 8000aec:	4649      	mov	r1, r9
 8000aee:	9503      	str	r5, [sp, #12]
 8000af0:	68cd      	ldr	r5, [r1, #12]
 8000af2:	40bd      	lsls	r5, r7
 8000af4:	46ac      	mov	ip, r5
 8000af6:	4661      	mov	r1, ip
 8000af8:	9d03      	ldr	r5, [sp, #12]
 8000afa:	430d      	orrs	r5, r1
 8000afc:	6085      	str	r5, [r0, #8]
 8000afe:	6841      	ldr	r1, [r0, #4]
 8000b00:	000d      	movs	r5, r1
 8000b02:	4651      	mov	r1, sl
 8000b04:	43a5      	bics	r5, r4
 8000b06:	090c      	lsrs	r4, r1, #4
 8000b08:	4641      	mov	r1, r8
 8000b0a:	400c      	ands	r4, r1
 8000b0c:	409c      	lsls	r4, r3
 8000b0e:	432c      	orrs	r4, r5
 8000b10:	6044      	str	r4, [r0, #4]
 8000b12:	68c4      	ldr	r4, [r0, #12]
 8000b14:	9902      	ldr	r1, [sp, #8]
 8000b16:	400c      	ands	r4, r1
 8000b18:	46a4      	mov	ip, r4
 8000b1a:	464c      	mov	r4, r9
 8000b1c:	68a4      	ldr	r4, [r4, #8]
 8000b1e:	4665      	mov	r5, ip
 8000b20:	40bc      	lsls	r4, r7
 8000b22:	432c      	orrs	r4, r5
 8000b24:	60c4      	str	r4, [r0, #12]
 8000b26:	0034      	movs	r4, r6
 8000b28:	40bc      	lsls	r4, r7
 8000b2a:	2e02      	cmp	r6, #2
 8000b2c:	d000      	beq.n	8000b30 <HAL_GPIO_Init+0x16c>
 8000b2e:	e770      	b.n	8000a12 <HAL_GPIO_Init+0x4e>
 8000b30:	2707      	movs	r7, #7
 8000b32:	250f      	movs	r5, #15
 8000b34:	401f      	ands	r7, r3
 8000b36:	00bf      	lsls	r7, r7, #2
 8000b38:	40bd      	lsls	r5, r7
 8000b3a:	08de      	lsrs	r6, r3, #3
 8000b3c:	00b6      	lsls	r6, r6, #2
 8000b3e:	1986      	adds	r6, r0, r6
 8000b40:	6a31      	ldr	r1, [r6, #32]
 8000b42:	43a9      	bics	r1, r5
 8000b44:	468c      	mov	ip, r1
 8000b46:	4649      	mov	r1, r9
 8000b48:	6909      	ldr	r1, [r1, #16]
 8000b4a:	40b9      	lsls	r1, r7
 8000b4c:	000f      	movs	r7, r1
 8000b4e:	4661      	mov	r1, ip
 8000b50:	430f      	orrs	r7, r1
 8000b52:	6237      	str	r7, [r6, #32]
 8000b54:	e75d      	b.n	8000a12 <HAL_GPIO_Init+0x4e>
 8000b56:	2503      	movs	r5, #3
 8000b58:	40bd      	lsls	r5, r7
 8000b5a:	43e9      	mvns	r1, r5
 8000b5c:	9102      	str	r1, [sp, #8]
 8000b5e:	e7d8      	b.n	8000b12 <HAL_GPIO_Init+0x14e>
 8000b60:	9901      	ldr	r1, [sp, #4]
 8000b62:	4321      	orrs	r1, r4
 8000b64:	000c      	movs	r4, r1
 8000b66:	e7a9      	b.n	8000abc <HAL_GPIO_Init+0xf8>
 8000b68:	9901      	ldr	r1, [sp, #4]
 8000b6a:	430d      	orrs	r5, r1
 8000b6c:	e79f      	b.n	8000aae <HAL_GPIO_Init+0xea>
 8000b6e:	9901      	ldr	r1, [sp, #4]
 8000b70:	430c      	orrs	r4, r1
 8000b72:	e795      	b.n	8000aa0 <HAL_GPIO_Init+0xdc>
 8000b74:	9901      	ldr	r1, [sp, #4]
 8000b76:	430c      	orrs	r4, r1
 8000b78:	e78b      	b.n	8000a92 <HAL_GPIO_Init+0xce>
 8000b7a:	2103      	movs	r1, #3
 8000b7c:	40b1      	lsls	r1, r6
 8000b7e:	430d      	orrs	r5, r1
 8000b80:	e77b      	b.n	8000a7a <HAL_GPIO_Init+0xb6>
 8000b82:	4641      	mov	r1, r8
 8000b84:	40b1      	lsls	r1, r6
 8000b86:	430d      	orrs	r5, r1
 8000b88:	e777      	b.n	8000a7a <HAL_GPIO_Init+0xb6>
 8000b8a:	2702      	movs	r7, #2
 8000b8c:	40b7      	lsls	r7, r6
 8000b8e:	433d      	orrs	r5, r7
 8000b90:	e773      	b.n	8000a7a <HAL_GPIO_Init+0xb6>
 8000b92:	46c0      	nop			; (mov r8, r8)
 8000b94:	40021000 	.word	0x40021000
 8000b98:	40010000 	.word	0x40010000
 8000b9c:	48000400 	.word	0x48000400
 8000ba0:	48000800 	.word	0x48000800
 8000ba4:	48000c00 	.word	0x48000c00
 8000ba8:	40010400 	.word	0x40010400

08000bac <HAL_GPIO_ReadPin>:
 8000bac:	6900      	ldr	r0, [r0, #16]
 8000bae:	4008      	ands	r0, r1
 8000bb0:	1e41      	subs	r1, r0, #1
 8000bb2:	4188      	sbcs	r0, r1
 8000bb4:	b2c0      	uxtb	r0, r0
 8000bb6:	4770      	bx	lr

08000bb8 <HAL_GPIO_WritePin>:
 8000bb8:	2a00      	cmp	r2, #0
 8000bba:	d001      	beq.n	8000bc0 <HAL_GPIO_WritePin+0x8>
 8000bbc:	6181      	str	r1, [r0, #24]
 8000bbe:	4770      	bx	lr
 8000bc0:	6281      	str	r1, [r0, #40]	; 0x28
 8000bc2:	e7fc      	b.n	8000bbe <HAL_GPIO_WritePin+0x6>

08000bc4 <HAL_IWDG_Init>:
 8000bc4:	b570      	push	{r4, r5, r6, lr}
 8000bc6:	1e04      	subs	r4, r0, #0
 8000bc8:	d023      	beq.n	8000c12 <HAL_IWDG_Init+0x4e>
 8000bca:	6803      	ldr	r3, [r0, #0]
 8000bcc:	4a15      	ldr	r2, [pc, #84]	; (8000c24 <HAL_IWDG_Init+0x60>)
 8000bce:	601a      	str	r2, [r3, #0]
 8000bd0:	4a15      	ldr	r2, [pc, #84]	; (8000c28 <HAL_IWDG_Init+0x64>)
 8000bd2:	601a      	str	r2, [r3, #0]
 8000bd4:	6842      	ldr	r2, [r0, #4]
 8000bd6:	605a      	str	r2, [r3, #4]
 8000bd8:	6882      	ldr	r2, [r0, #8]
 8000bda:	609a      	str	r2, [r3, #8]
 8000bdc:	f7ff fc40 	bl	8000460 <HAL_GetTick>
 8000be0:	6823      	ldr	r3, [r4, #0]
 8000be2:	0006      	movs	r6, r0
 8000be4:	68da      	ldr	r2, [r3, #12]
 8000be6:	0752      	lsls	r2, r2, #29
 8000be8:	d00c      	beq.n	8000c04 <HAL_IWDG_Init+0x40>
 8000bea:	2507      	movs	r5, #7
 8000bec:	f7ff fc38 	bl	8000460 <HAL_GetTick>
 8000bf0:	6823      	ldr	r3, [r4, #0]
 8000bf2:	1b80      	subs	r0, r0, r6
 8000bf4:	2827      	cmp	r0, #39	; 0x27
 8000bf6:	d902      	bls.n	8000bfe <HAL_IWDG_Init+0x3a>
 8000bf8:	68da      	ldr	r2, [r3, #12]
 8000bfa:	4215      	tst	r5, r2
 8000bfc:	d10b      	bne.n	8000c16 <HAL_IWDG_Init+0x52>
 8000bfe:	68da      	ldr	r2, [r3, #12]
 8000c00:	4215      	tst	r5, r2
 8000c02:	d1f3      	bne.n	8000bec <HAL_IWDG_Init+0x28>
 8000c04:	6919      	ldr	r1, [r3, #16]
 8000c06:	68e2      	ldr	r2, [r4, #12]
 8000c08:	4291      	cmp	r1, r2
 8000c0a:	d006      	beq.n	8000c1a <HAL_IWDG_Init+0x56>
 8000c0c:	2000      	movs	r0, #0
 8000c0e:	611a      	str	r2, [r3, #16]
 8000c10:	bd70      	pop	{r4, r5, r6, pc}
 8000c12:	2001      	movs	r0, #1
 8000c14:	e7fc      	b.n	8000c10 <HAL_IWDG_Init+0x4c>
 8000c16:	2003      	movs	r0, #3
 8000c18:	e7fa      	b.n	8000c10 <HAL_IWDG_Init+0x4c>
 8000c1a:	4a04      	ldr	r2, [pc, #16]	; (8000c2c <HAL_IWDG_Init+0x68>)
 8000c1c:	2000      	movs	r0, #0
 8000c1e:	601a      	str	r2, [r3, #0]
 8000c20:	e7f6      	b.n	8000c10 <HAL_IWDG_Init+0x4c>
 8000c22:	46c0      	nop			; (mov r8, r8)
 8000c24:	0000cccc 	.word	0x0000cccc
 8000c28:	00005555 	.word	0x00005555
 8000c2c:	0000aaaa 	.word	0x0000aaaa

08000c30 <HAL_IWDG_Refresh>:
 8000c30:	6803      	ldr	r3, [r0, #0]
 8000c32:	4a02      	ldr	r2, [pc, #8]	; (8000c3c <HAL_IWDG_Refresh+0xc>)
 8000c34:	2000      	movs	r0, #0
 8000c36:	601a      	str	r2, [r3, #0]
 8000c38:	4770      	bx	lr
 8000c3a:	46c0      	nop			; (mov r8, r8)
 8000c3c:	0000aaaa 	.word	0x0000aaaa

08000c40 <HAL_RCC_OscConfig>:
 8000c40:	b5f0      	push	{r4, r5, r6, r7, lr}
 8000c42:	46ce      	mov	lr, r9
 8000c44:	4647      	mov	r7, r8
 8000c46:	b580      	push	{r7, lr}
 8000c48:	0004      	movs	r4, r0
 8000c4a:	b083      	sub	sp, #12
 8000c4c:	2800      	cmp	r0, #0
 8000c4e:	d100      	bne.n	8000c52 <HAL_RCC_OscConfig+0x12>
 8000c50:	e0ee      	b.n	8000e30 <HAL_RCC_OscConfig+0x1f0>
 8000c52:	6803      	ldr	r3, [r0, #0]
 8000c54:	07da      	lsls	r2, r3, #31
 8000c56:	d535      	bpl.n	8000cc4 <HAL_RCC_OscConfig+0x84>
 8000c58:	210c      	movs	r1, #12
 8000c5a:	48c3      	ldr	r0, [pc, #780]	; (8000f68 <HAL_RCC_OscConfig+0x328>)
 8000c5c:	6842      	ldr	r2, [r0, #4]
 8000c5e:	400a      	ands	r2, r1
 8000c60:	2a04      	cmp	r2, #4
 8000c62:	d100      	bne.n	8000c66 <HAL_RCC_OscConfig+0x26>
 8000c64:	e101      	b.n	8000e6a <HAL_RCC_OscConfig+0x22a>
 8000c66:	6842      	ldr	r2, [r0, #4]
 8000c68:	4011      	ands	r1, r2
 8000c6a:	2908      	cmp	r1, #8
 8000c6c:	d100      	bne.n	8000c70 <HAL_RCC_OscConfig+0x30>
 8000c6e:	e0f8      	b.n	8000e62 <HAL_RCC_OscConfig+0x222>
 8000c70:	6863      	ldr	r3, [r4, #4]
 8000c72:	2b01      	cmp	r3, #1
 8000c74:	d00f      	beq.n	8000c96 <HAL_RCC_OscConfig+0x56>
 8000c76:	2b00      	cmp	r3, #0
 8000c78:	d100      	bne.n	8000c7c <HAL_RCC_OscConfig+0x3c>
 8000c7a:	e11e      	b.n	8000eba <HAL_RCC_OscConfig+0x27a>
 8000c7c:	2b05      	cmp	r3, #5
 8000c7e:	d100      	bne.n	8000c82 <HAL_RCC_OscConfig+0x42>
 8000c80:	e1a7      	b.n	8000fd2 <HAL_RCC_OscConfig+0x392>
 8000c82:	4bb9      	ldr	r3, [pc, #740]	; (8000f68 <HAL_RCC_OscConfig+0x328>)
 8000c84:	49b9      	ldr	r1, [pc, #740]	; (8000f6c <HAL_RCC_OscConfig+0x32c>)
 8000c86:	681a      	ldr	r2, [r3, #0]
 8000c88:	400a      	ands	r2, r1
 8000c8a:	601a      	str	r2, [r3, #0]
 8000c8c:	681a      	ldr	r2, [r3, #0]
 8000c8e:	49b8      	ldr	r1, [pc, #736]	; (8000f70 <HAL_RCC_OscConfig+0x330>)
 8000c90:	400a      	ands	r2, r1
 8000c92:	601a      	str	r2, [r3, #0]
 8000c94:	e005      	b.n	8000ca2 <HAL_RCC_OscConfig+0x62>
 8000c96:	2380      	movs	r3, #128	; 0x80
 8000c98:	4ab3      	ldr	r2, [pc, #716]	; (8000f68 <HAL_RCC_OscConfig+0x328>)
 8000c9a:	025b      	lsls	r3, r3, #9
 8000c9c:	6811      	ldr	r1, [r2, #0]
 8000c9e:	430b      	orrs	r3, r1
 8000ca0:	6013      	str	r3, [r2, #0]
 8000ca2:	f7ff fbdd 	bl	8000460 <HAL_GetTick>
 8000ca6:	2680      	movs	r6, #128	; 0x80
 8000ca8:	0005      	movs	r5, r0
 8000caa:	4faf      	ldr	r7, [pc, #700]	; (8000f68 <HAL_RCC_OscConfig+0x328>)
 8000cac:	02b6      	lsls	r6, r6, #10
 8000cae:	e005      	b.n	8000cbc <HAL_RCC_OscConfig+0x7c>
 8000cb0:	f7ff fbd6 	bl	8000460 <HAL_GetTick>
 8000cb4:	1b40      	subs	r0, r0, r5
 8000cb6:	2864      	cmp	r0, #100	; 0x64
 8000cb8:	d900      	bls.n	8000cbc <HAL_RCC_OscConfig+0x7c>
 8000cba:	e0fc      	b.n	8000eb6 <HAL_RCC_OscConfig+0x276>
 8000cbc:	683b      	ldr	r3, [r7, #0]
 8000cbe:	4233      	tst	r3, r6
 8000cc0:	d0f6      	beq.n	8000cb0 <HAL_RCC_OscConfig+0x70>
 8000cc2:	6823      	ldr	r3, [r4, #0]
 8000cc4:	079a      	lsls	r2, r3, #30
 8000cc6:	d529      	bpl.n	8000d1c <HAL_RCC_OscConfig+0xdc>
 8000cc8:	220c      	movs	r2, #12
 8000cca:	49a7      	ldr	r1, [pc, #668]	; (8000f68 <HAL_RCC_OscConfig+0x328>)
 8000ccc:	6848      	ldr	r0, [r1, #4]
 8000cce:	4202      	tst	r2, r0
 8000cd0:	d100      	bne.n	8000cd4 <HAL_RCC_OscConfig+0x94>
 8000cd2:	e0a6      	b.n	8000e22 <HAL_RCC_OscConfig+0x1e2>
 8000cd4:	6848      	ldr	r0, [r1, #4]
 8000cd6:	4002      	ands	r2, r0
 8000cd8:	2a08      	cmp	r2, #8
 8000cda:	d100      	bne.n	8000cde <HAL_RCC_OscConfig+0x9e>
 8000cdc:	e09d      	b.n	8000e1a <HAL_RCC_OscConfig+0x1da>
 8000cde:	68e3      	ldr	r3, [r4, #12]
 8000ce0:	4da1      	ldr	r5, [pc, #644]	; (8000f68 <HAL_RCC_OscConfig+0x328>)
 8000ce2:	2b00      	cmp	r3, #0
 8000ce4:	d100      	bne.n	8000ce8 <HAL_RCC_OscConfig+0xa8>
 8000ce6:	e11f      	b.n	8000f28 <HAL_RCC_OscConfig+0x2e8>
 8000ce8:	2201      	movs	r2, #1
 8000cea:	682b      	ldr	r3, [r5, #0]
 8000cec:	2702      	movs	r7, #2
 8000cee:	4313      	orrs	r3, r2
 8000cf0:	602b      	str	r3, [r5, #0]
 8000cf2:	f7ff fbb5 	bl	8000460 <HAL_GetTick>
 8000cf6:	0006      	movs	r6, r0
 8000cf8:	e005      	b.n	8000d06 <HAL_RCC_OscConfig+0xc6>
 8000cfa:	f7ff fbb1 	bl	8000460 <HAL_GetTick>
 8000cfe:	1b80      	subs	r0, r0, r6
 8000d00:	2802      	cmp	r0, #2
 8000d02:	d900      	bls.n	8000d06 <HAL_RCC_OscConfig+0xc6>
 8000d04:	e0d7      	b.n	8000eb6 <HAL_RCC_OscConfig+0x276>
 8000d06:	682b      	ldr	r3, [r5, #0]
 8000d08:	421f      	tst	r7, r3
 8000d0a:	d0f6      	beq.n	8000cfa <HAL_RCC_OscConfig+0xba>
 8000d0c:	21f8      	movs	r1, #248	; 0xf8
 8000d0e:	682a      	ldr	r2, [r5, #0]
 8000d10:	6923      	ldr	r3, [r4, #16]
 8000d12:	438a      	bics	r2, r1
 8000d14:	00db      	lsls	r3, r3, #3
 8000d16:	4313      	orrs	r3, r2
 8000d18:	602b      	str	r3, [r5, #0]
 8000d1a:	6823      	ldr	r3, [r4, #0]
 8000d1c:	071a      	lsls	r2, r3, #28
 8000d1e:	d42d      	bmi.n	8000d7c <HAL_RCC_OscConfig+0x13c>
 8000d20:	075a      	lsls	r2, r3, #29
 8000d22:	d544      	bpl.n	8000dae <HAL_RCC_OscConfig+0x16e>
 8000d24:	2280      	movs	r2, #128	; 0x80
 8000d26:	2000      	movs	r0, #0
 8000d28:	4b8f      	ldr	r3, [pc, #572]	; (8000f68 <HAL_RCC_OscConfig+0x328>)
 8000d2a:	0552      	lsls	r2, r2, #21
 8000d2c:	69d9      	ldr	r1, [r3, #28]
 8000d2e:	4681      	mov	r9, r0
 8000d30:	4211      	tst	r1, r2
 8000d32:	d108      	bne.n	8000d46 <HAL_RCC_OscConfig+0x106>
 8000d34:	69d9      	ldr	r1, [r3, #28]
 8000d36:	4311      	orrs	r1, r2
 8000d38:	61d9      	str	r1, [r3, #28]
 8000d3a:	69db      	ldr	r3, [r3, #28]
 8000d3c:	401a      	ands	r2, r3
 8000d3e:	9201      	str	r2, [sp, #4]
 8000d40:	9b01      	ldr	r3, [sp, #4]
 8000d42:	2301      	movs	r3, #1
 8000d44:	4699      	mov	r9, r3
 8000d46:	2780      	movs	r7, #128	; 0x80
 8000d48:	4e8a      	ldr	r6, [pc, #552]	; (8000f74 <HAL_RCC_OscConfig+0x334>)
 8000d4a:	007f      	lsls	r7, r7, #1
 8000d4c:	6833      	ldr	r3, [r6, #0]
 8000d4e:	423b      	tst	r3, r7
 8000d50:	d100      	bne.n	8000d54 <HAL_RCC_OscConfig+0x114>
 8000d52:	e094      	b.n	8000e7e <HAL_RCC_OscConfig+0x23e>
 8000d54:	68a3      	ldr	r3, [r4, #8]
 8000d56:	2b01      	cmp	r3, #1
 8000d58:	d100      	bne.n	8000d5c <HAL_RCC_OscConfig+0x11c>
 8000d5a:	e0f8      	b.n	8000f4e <HAL_RCC_OscConfig+0x30e>
 8000d5c:	2b00      	cmp	r3, #0
 8000d5e:	d100      	bne.n	8000d62 <HAL_RCC_OscConfig+0x122>
 8000d60:	e0c4      	b.n	8000eec <HAL_RCC_OscConfig+0x2ac>
 8000d62:	2b05      	cmp	r3, #5
 8000d64:	d100      	bne.n	8000d68 <HAL_RCC_OscConfig+0x128>
 8000d66:	e140      	b.n	8000fea <HAL_RCC_OscConfig+0x3aa>
 8000d68:	2101      	movs	r1, #1
 8000d6a:	4b7f      	ldr	r3, [pc, #508]	; (8000f68 <HAL_RCC_OscConfig+0x328>)
 8000d6c:	6a1a      	ldr	r2, [r3, #32]
 8000d6e:	438a      	bics	r2, r1
 8000d70:	621a      	str	r2, [r3, #32]
 8000d72:	6a1a      	ldr	r2, [r3, #32]
 8000d74:	3103      	adds	r1, #3
 8000d76:	438a      	bics	r2, r1
 8000d78:	621a      	str	r2, [r3, #32]
 8000d7a:	e0ec      	b.n	8000f56 <HAL_RCC_OscConfig+0x316>
 8000d7c:	69e3      	ldr	r3, [r4, #28]
 8000d7e:	4d7a      	ldr	r5, [pc, #488]	; (8000f68 <HAL_RCC_OscConfig+0x328>)
 8000d80:	2b00      	cmp	r3, #0
 8000d82:	d05b      	beq.n	8000e3c <HAL_RCC_OscConfig+0x1fc>
 8000d84:	2201      	movs	r2, #1
 8000d86:	6a6b      	ldr	r3, [r5, #36]	; 0x24
 8000d88:	2702      	movs	r7, #2
 8000d8a:	4313      	orrs	r3, r2
 8000d8c:	626b      	str	r3, [r5, #36]	; 0x24
 8000d8e:	f7ff fb67 	bl	8000460 <HAL_GetTick>
 8000d92:	0006      	movs	r6, r0
 8000d94:	e005      	b.n	8000da2 <HAL_RCC_OscConfig+0x162>
 8000d96:	f7ff fb63 	bl	8000460 <HAL_GetTick>
 8000d9a:	1b80      	subs	r0, r0, r6
 8000d9c:	2802      	cmp	r0, #2
 8000d9e:	d900      	bls.n	8000da2 <HAL_RCC_OscConfig+0x162>
 8000da0:	e089      	b.n	8000eb6 <HAL_RCC_OscConfig+0x276>
 8000da2:	6a6b      	ldr	r3, [r5, #36]	; 0x24
 8000da4:	421f      	tst	r7, r3
 8000da6:	d0f6      	beq.n	8000d96 <HAL_RCC_OscConfig+0x156>
 8000da8:	6823      	ldr	r3, [r4, #0]
 8000daa:	075a      	lsls	r2, r3, #29
 8000dac:	d4ba      	bmi.n	8000d24 <HAL_RCC_OscConfig+0xe4>
 8000dae:	06db      	lsls	r3, r3, #27
 8000db0:	d512      	bpl.n	8000dd8 <HAL_RCC_OscConfig+0x198>
 8000db2:	6963      	ldr	r3, [r4, #20]
 8000db4:	2b01      	cmp	r3, #1
 8000db6:	d100      	bne.n	8000dba <HAL_RCC_OscConfig+0x17a>
 8000db8:	e13d      	b.n	8001036 <HAL_RCC_OscConfig+0x3f6>
 8000dba:	3305      	adds	r3, #5
 8000dbc:	d000      	beq.n	8000dc0 <HAL_RCC_OscConfig+0x180>
 8000dbe:	e0e9      	b.n	8000f94 <HAL_RCC_OscConfig+0x354>
 8000dc0:	2104      	movs	r1, #4
 8000dc2:	20f8      	movs	r0, #248	; 0xf8
 8000dc4:	4a68      	ldr	r2, [pc, #416]	; (8000f68 <HAL_RCC_OscConfig+0x328>)
 8000dc6:	6b53      	ldr	r3, [r2, #52]	; 0x34
 8000dc8:	438b      	bics	r3, r1
 8000dca:	6353      	str	r3, [r2, #52]	; 0x34
 8000dcc:	6b51      	ldr	r1, [r2, #52]	; 0x34
 8000dce:	69a3      	ldr	r3, [r4, #24]
 8000dd0:	4381      	bics	r1, r0
 8000dd2:	00db      	lsls	r3, r3, #3
 8000dd4:	430b      	orrs	r3, r1
 8000dd6:	6353      	str	r3, [r2, #52]	; 0x34
 8000dd8:	6a23      	ldr	r3, [r4, #32]
 8000dda:	2b00      	cmp	r3, #0
 8000ddc:	d01b      	beq.n	8000e16 <HAL_RCC_OscConfig+0x1d6>
 8000dde:	220c      	movs	r2, #12
 8000de0:	4e61      	ldr	r6, [pc, #388]	; (8000f68 <HAL_RCC_OscConfig+0x328>)
 8000de2:	6871      	ldr	r1, [r6, #4]
 8000de4:	400a      	ands	r2, r1
 8000de6:	2a08      	cmp	r2, #8
 8000de8:	d100      	bne.n	8000dec <HAL_RCC_OscConfig+0x1ac>
 8000dea:	e108      	b.n	8000ffe <HAL_RCC_OscConfig+0x3be>
 8000dec:	2b02      	cmp	r3, #2
 8000dee:	d100      	bne.n	8000df2 <HAL_RCC_OscConfig+0x1b2>
 8000df0:	e13f      	b.n	8001072 <HAL_RCC_OscConfig+0x432>
 8000df2:	6833      	ldr	r3, [r6, #0]
 8000df4:	4a60      	ldr	r2, [pc, #384]	; (8000f78 <HAL_RCC_OscConfig+0x338>)
 8000df6:	2580      	movs	r5, #128	; 0x80
 8000df8:	4013      	ands	r3, r2
 8000dfa:	6033      	str	r3, [r6, #0]
 8000dfc:	f7ff fb30 	bl	8000460 <HAL_GetTick>
 8000e00:	04ad      	lsls	r5, r5, #18
 8000e02:	0004      	movs	r4, r0
 8000e04:	e004      	b.n	8000e10 <HAL_RCC_OscConfig+0x1d0>
 8000e06:	f7ff fb2b 	bl	8000460 <HAL_GetTick>
 8000e0a:	1b00      	subs	r0, r0, r4
 8000e0c:	2802      	cmp	r0, #2
 8000e0e:	d852      	bhi.n	8000eb6 <HAL_RCC_OscConfig+0x276>
 8000e10:	6833      	ldr	r3, [r6, #0]
 8000e12:	422b      	tst	r3, r5
 8000e14:	d1f7      	bne.n	8000e06 <HAL_RCC_OscConfig+0x1c6>
 8000e16:	2000      	movs	r0, #0
 8000e18:	e00b      	b.n	8000e32 <HAL_RCC_OscConfig+0x1f2>
 8000e1a:	684a      	ldr	r2, [r1, #4]
 8000e1c:	03d2      	lsls	r2, r2, #15
 8000e1e:	d500      	bpl.n	8000e22 <HAL_RCC_OscConfig+0x1e2>
 8000e20:	e75d      	b.n	8000cde <HAL_RCC_OscConfig+0x9e>
 8000e22:	4a51      	ldr	r2, [pc, #324]	; (8000f68 <HAL_RCC_OscConfig+0x328>)
 8000e24:	6812      	ldr	r2, [r2, #0]
 8000e26:	0792      	lsls	r2, r2, #30
 8000e28:	d539      	bpl.n	8000e9e <HAL_RCC_OscConfig+0x25e>
 8000e2a:	68e2      	ldr	r2, [r4, #12]
 8000e2c:	2a01      	cmp	r2, #1
 8000e2e:	d036      	beq.n	8000e9e <HAL_RCC_OscConfig+0x25e>
 8000e30:	2001      	movs	r0, #1
 8000e32:	b003      	add	sp, #12
 8000e34:	bcc0      	pop	{r6, r7}
 8000e36:	46b9      	mov	r9, r7
 8000e38:	46b0      	mov	r8, r6
 8000e3a:	bdf0      	pop	{r4, r5, r6, r7, pc}
 8000e3c:	2201      	movs	r2, #1
 8000e3e:	6a6b      	ldr	r3, [r5, #36]	; 0x24
 8000e40:	2702      	movs	r7, #2
 8000e42:	4393      	bics	r3, r2
 8000e44:	626b      	str	r3, [r5, #36]	; 0x24
 8000e46:	f7ff fb0b 	bl	8000460 <HAL_GetTick>
 8000e4a:	0006      	movs	r6, r0
 8000e4c:	e004      	b.n	8000e58 <HAL_RCC_OscConfig+0x218>
 8000e4e:	f7ff fb07 	bl	8000460 <HAL_GetTick>
 8000e52:	1b80      	subs	r0, r0, r6
 8000e54:	2802      	cmp	r0, #2
 8000e56:	d82e      	bhi.n	8000eb6 <HAL_RCC_OscConfig+0x276>
 8000e58:	6a6b      	ldr	r3, [r5, #36]	; 0x24
 8000e5a:	421f      	tst	r7, r3
 8000e5c:	d1f7      	bne.n	8000e4e <HAL_RCC_OscConfig+0x20e>
 8000e5e:	6823      	ldr	r3, [r4, #0]
 8000e60:	e7a3      	b.n	8000daa <HAL_RCC_OscConfig+0x16a>
 8000e62:	6842      	ldr	r2, [r0, #4]
 8000e64:	03d2      	lsls	r2, r2, #15
 8000e66:	d400      	bmi.n	8000e6a <HAL_RCC_OscConfig+0x22a>
 8000e68:	e702      	b.n	8000c70 <HAL_RCC_OscConfig+0x30>
 8000e6a:	4a3f      	ldr	r2, [pc, #252]	; (8000f68 <HAL_RCC_OscConfig+0x328>)
 8000e6c:	6812      	ldr	r2, [r2, #0]
 8000e6e:	0392      	lsls	r2, r2, #14
 8000e70:	d400      	bmi.n	8000e74 <HAL_RCC_OscConfig+0x234>
 8000e72:	e727      	b.n	8000cc4 <HAL_RCC_OscConfig+0x84>
 8000e74:	6862      	ldr	r2, [r4, #4]
 8000e76:	2a00      	cmp	r2, #0
 8000e78:	d000      	beq.n	8000e7c <HAL_RCC_OscConfig+0x23c>
 8000e7a:	e723      	b.n	8000cc4 <HAL_RCC_OscConfig+0x84>
 8000e7c:	e7d8      	b.n	8000e30 <HAL_RCC_OscConfig+0x1f0>
 8000e7e:	6833      	ldr	r3, [r6, #0]
 8000e80:	433b      	orrs	r3, r7
 8000e82:	6033      	str	r3, [r6, #0]
 8000e84:	f7ff faec 	bl	8000460 <HAL_GetTick>
 8000e88:	0005      	movs	r5, r0
 8000e8a:	e004      	b.n	8000e96 <HAL_RCC_OscConfig+0x256>
 8000e8c:	f7ff fae8 	bl	8000460 <HAL_GetTick>
 8000e90:	1b40      	subs	r0, r0, r5
 8000e92:	2864      	cmp	r0, #100	; 0x64
 8000e94:	d80f      	bhi.n	8000eb6 <HAL_RCC_OscConfig+0x276>
 8000e96:	6833      	ldr	r3, [r6, #0]
 8000e98:	423b      	tst	r3, r7
 8000e9a:	d0f7      	beq.n	8000e8c <HAL_RCC_OscConfig+0x24c>
 8000e9c:	e75a      	b.n	8000d54 <HAL_RCC_OscConfig+0x114>
 8000e9e:	25f8      	movs	r5, #248	; 0xf8
 8000ea0:	4831      	ldr	r0, [pc, #196]	; (8000f68 <HAL_RCC_OscConfig+0x328>)
 8000ea2:	6922      	ldr	r2, [r4, #16]
 8000ea4:	6801      	ldr	r1, [r0, #0]
 8000ea6:	00d2      	lsls	r2, r2, #3
 8000ea8:	43a9      	bics	r1, r5
 8000eaa:	430a      	orrs	r2, r1
 8000eac:	6002      	str	r2, [r0, #0]
 8000eae:	071a      	lsls	r2, r3, #28
 8000eb0:	d400      	bmi.n	8000eb4 <HAL_RCC_OscConfig+0x274>
 8000eb2:	e735      	b.n	8000d20 <HAL_RCC_OscConfig+0xe0>
 8000eb4:	e762      	b.n	8000d7c <HAL_RCC_OscConfig+0x13c>
 8000eb6:	2003      	movs	r0, #3
 8000eb8:	e7bb      	b.n	8000e32 <HAL_RCC_OscConfig+0x1f2>
 8000eba:	4d2b      	ldr	r5, [pc, #172]	; (8000f68 <HAL_RCC_OscConfig+0x328>)
 8000ebc:	4a2b      	ldr	r2, [pc, #172]	; (8000f6c <HAL_RCC_OscConfig+0x32c>)
 8000ebe:	682b      	ldr	r3, [r5, #0]
 8000ec0:	2780      	movs	r7, #128	; 0x80
 8000ec2:	4013      	ands	r3, r2
 8000ec4:	602b      	str	r3, [r5, #0]
 8000ec6:	682b      	ldr	r3, [r5, #0]
 8000ec8:	4a29      	ldr	r2, [pc, #164]	; (8000f70 <HAL_RCC_OscConfig+0x330>)
 8000eca:	02bf      	lsls	r7, r7, #10
 8000ecc:	4013      	ands	r3, r2
 8000ece:	602b      	str	r3, [r5, #0]
 8000ed0:	f7ff fac6 	bl	8000460 <HAL_GetTick>
 8000ed4:	0006      	movs	r6, r0
 8000ed6:	e004      	b.n	8000ee2 <HAL_RCC_OscConfig+0x2a2>
 8000ed8:	f7ff fac2 	bl	8000460 <HAL_GetTick>
 8000edc:	1b80      	subs	r0, r0, r6
 8000ede:	2864      	cmp	r0, #100	; 0x64
 8000ee0:	d8e9      	bhi.n	8000eb6 <HAL_RCC_OscConfig+0x276>
 8000ee2:	682b      	ldr	r3, [r5, #0]
 8000ee4:	423b      	tst	r3, r7
 8000ee6:	d1f7      	bne.n	8000ed8 <HAL_RCC_OscConfig+0x298>
 8000ee8:	6823      	ldr	r3, [r4, #0]
 8000eea:	e6eb      	b.n	8000cc4 <HAL_RCC_OscConfig+0x84>
 8000eec:	2201      	movs	r2, #1
 8000eee:	4e1e      	ldr	r6, [pc, #120]	; (8000f68 <HAL_RCC_OscConfig+0x328>)
 8000ef0:	4d22      	ldr	r5, [pc, #136]	; (8000f7c <HAL_RCC_OscConfig+0x33c>)
 8000ef2:	6a33      	ldr	r3, [r6, #32]
 8000ef4:	4393      	bics	r3, r2
 8000ef6:	6233      	str	r3, [r6, #32]
 8000ef8:	6a33      	ldr	r3, [r6, #32]
 8000efa:	3203      	adds	r2, #3
 8000efc:	4393      	bics	r3, r2
 8000efe:	6233      	str	r3, [r6, #32]
 8000f00:	f7ff faae 	bl	8000460 <HAL_GetTick>
 8000f04:	2302      	movs	r3, #2
 8000f06:	0007      	movs	r7, r0
 8000f08:	4698      	mov	r8, r3
 8000f0a:	e004      	b.n	8000f16 <HAL_RCC_OscConfig+0x2d6>
 8000f0c:	f7ff faa8 	bl	8000460 <HAL_GetTick>
 8000f10:	1bc0      	subs	r0, r0, r7
 8000f12:	42a8      	cmp	r0, r5
 8000f14:	d8cf      	bhi.n	8000eb6 <HAL_RCC_OscConfig+0x276>
 8000f16:	4642      	mov	r2, r8
 8000f18:	6a33      	ldr	r3, [r6, #32]
 8000f1a:	421a      	tst	r2, r3
 8000f1c:	d1f6      	bne.n	8000f0c <HAL_RCC_OscConfig+0x2cc>
 8000f1e:	464b      	mov	r3, r9
 8000f20:	2b01      	cmp	r3, #1
 8000f22:	d04f      	beq.n	8000fc4 <HAL_RCC_OscConfig+0x384>
 8000f24:	6823      	ldr	r3, [r4, #0]
 8000f26:	e742      	b.n	8000dae <HAL_RCC_OscConfig+0x16e>
 8000f28:	2201      	movs	r2, #1
 8000f2a:	682b      	ldr	r3, [r5, #0]
 8000f2c:	2702      	movs	r7, #2
 8000f2e:	4393      	bics	r3, r2
 8000f30:	602b      	str	r3, [r5, #0]
 8000f32:	f7ff fa95 	bl	8000460 <HAL_GetTick>
 8000f36:	0006      	movs	r6, r0
 8000f38:	e004      	b.n	8000f44 <HAL_RCC_OscConfig+0x304>
 8000f3a:	f7ff fa91 	bl	8000460 <HAL_GetTick>
 8000f3e:	1b80      	subs	r0, r0, r6
 8000f40:	2802      	cmp	r0, #2
 8000f42:	d8b8      	bhi.n	8000eb6 <HAL_RCC_OscConfig+0x276>
 8000f44:	682b      	ldr	r3, [r5, #0]
 8000f46:	421f      	tst	r7, r3
 8000f48:	d1f7      	bne.n	8000f3a <HAL_RCC_OscConfig+0x2fa>
 8000f4a:	6823      	ldr	r3, [r4, #0]
 8000f4c:	e6e6      	b.n	8000d1c <HAL_RCC_OscConfig+0xdc>
 8000f4e:	4906      	ldr	r1, [pc, #24]	; (8000f68 <HAL_RCC_OscConfig+0x328>)
 8000f50:	6a0a      	ldr	r2, [r1, #32]
 8000f52:	4313      	orrs	r3, r2
 8000f54:	620b      	str	r3, [r1, #32]
 8000f56:	f7ff fa83 	bl	8000460 <HAL_GetTick>
 8000f5a:	4b03      	ldr	r3, [pc, #12]	; (8000f68 <HAL_RCC_OscConfig+0x328>)
 8000f5c:	0006      	movs	r6, r0
 8000f5e:	4698      	mov	r8, r3
 8000f60:	2702      	movs	r7, #2
 8000f62:	4d06      	ldr	r5, [pc, #24]	; (8000f7c <HAL_RCC_OscConfig+0x33c>)
 8000f64:	e011      	b.n	8000f8a <HAL_RCC_OscConfig+0x34a>
 8000f66:	46c0      	nop			; (mov r8, r8)
 8000f68:	40021000 	.word	0x40021000
 8000f6c:	fffeffff 	.word	0xfffeffff
 8000f70:	fffbffff 	.word	0xfffbffff
 8000f74:	40007000 	.word	0x40007000
 8000f78:	feffffff 	.word	0xfeffffff
 8000f7c:	00001388 	.word	0x00001388
 8000f80:	f7ff fa6e 	bl	8000460 <HAL_GetTick>
 8000f84:	1b80      	subs	r0, r0, r6
 8000f86:	42a8      	cmp	r0, r5
 8000f88:	d895      	bhi.n	8000eb6 <HAL_RCC_OscConfig+0x276>
 8000f8a:	4643      	mov	r3, r8
 8000f8c:	6a1b      	ldr	r3, [r3, #32]
 8000f8e:	421f      	tst	r7, r3
 8000f90:	d0f6      	beq.n	8000f80 <HAL_RCC_OscConfig+0x340>
 8000f92:	e7c4      	b.n	8000f1e <HAL_RCC_OscConfig+0x2de>
 8000f94:	2204      	movs	r2, #4
 8000f96:	4d53      	ldr	r5, [pc, #332]	; (80010e4 <HAL_RCC_OscConfig+0x4a4>)
 8000f98:	2702      	movs	r7, #2
 8000f9a:	6b6b      	ldr	r3, [r5, #52]	; 0x34
 8000f9c:	4313      	orrs	r3, r2
 8000f9e:	636b      	str	r3, [r5, #52]	; 0x34
 8000fa0:	6b6b      	ldr	r3, [r5, #52]	; 0x34
 8000fa2:	3a03      	subs	r2, #3
 8000fa4:	4393      	bics	r3, r2
 8000fa6:	636b      	str	r3, [r5, #52]	; 0x34
 8000fa8:	f7ff fa5a 	bl	8000460 <HAL_GetTick>
 8000fac:	0006      	movs	r6, r0
 8000fae:	e005      	b.n	8000fbc <HAL_RCC_OscConfig+0x37c>
 8000fb0:	f7ff fa56 	bl	8000460 <HAL_GetTick>
 8000fb4:	1b80      	subs	r0, r0, r6
 8000fb6:	2802      	cmp	r0, #2
 8000fb8:	d900      	bls.n	8000fbc <HAL_RCC_OscConfig+0x37c>
 8000fba:	e77c      	b.n	8000eb6 <HAL_RCC_OscConfig+0x276>
 8000fbc:	6b6b      	ldr	r3, [r5, #52]	; 0x34
 8000fbe:	421f      	tst	r7, r3
 8000fc0:	d1f6      	bne.n	8000fb0 <HAL_RCC_OscConfig+0x370>
 8000fc2:	e709      	b.n	8000dd8 <HAL_RCC_OscConfig+0x198>
 8000fc4:	4a47      	ldr	r2, [pc, #284]	; (80010e4 <HAL_RCC_OscConfig+0x4a4>)
 8000fc6:	4948      	ldr	r1, [pc, #288]	; (80010e8 <HAL_RCC_OscConfig+0x4a8>)
 8000fc8:	69d3      	ldr	r3, [r2, #28]
 8000fca:	400b      	ands	r3, r1
 8000fcc:	61d3      	str	r3, [r2, #28]
 8000fce:	6823      	ldr	r3, [r4, #0]
 8000fd0:	e6ed      	b.n	8000dae <HAL_RCC_OscConfig+0x16e>
 8000fd2:	2280      	movs	r2, #128	; 0x80
 8000fd4:	4b43      	ldr	r3, [pc, #268]	; (80010e4 <HAL_RCC_OscConfig+0x4a4>)
 8000fd6:	02d2      	lsls	r2, r2, #11
 8000fd8:	6819      	ldr	r1, [r3, #0]
 8000fda:	430a      	orrs	r2, r1
 8000fdc:	601a      	str	r2, [r3, #0]
 8000fde:	2280      	movs	r2, #128	; 0x80
 8000fe0:	6819      	ldr	r1, [r3, #0]
 8000fe2:	0252      	lsls	r2, r2, #9
 8000fe4:	430a      	orrs	r2, r1
 8000fe6:	601a      	str	r2, [r3, #0]
 8000fe8:	e65b      	b.n	8000ca2 <HAL_RCC_OscConfig+0x62>
 8000fea:	2104      	movs	r1, #4
 8000fec:	4b3d      	ldr	r3, [pc, #244]	; (80010e4 <HAL_RCC_OscConfig+0x4a4>)
 8000fee:	6a1a      	ldr	r2, [r3, #32]
 8000ff0:	430a      	orrs	r2, r1
 8000ff2:	621a      	str	r2, [r3, #32]
 8000ff4:	6a1a      	ldr	r2, [r3, #32]
 8000ff6:	3903      	subs	r1, #3
 8000ff8:	430a      	orrs	r2, r1
 8000ffa:	621a      	str	r2, [r3, #32]
 8000ffc:	e7ab      	b.n	8000f56 <HAL_RCC_OscConfig+0x316>
 8000ffe:	2b01      	cmp	r3, #1
 8001000:	d100      	bne.n	8001004 <HAL_RCC_OscConfig+0x3c4>
 8001002:	e715      	b.n	8000e30 <HAL_RCC_OscConfig+0x1f0>
 8001004:	2380      	movs	r3, #128	; 0x80
 8001006:	6872      	ldr	r2, [r6, #4]
 8001008:	6a65      	ldr	r5, [r4, #36]	; 0x24
 800100a:	025b      	lsls	r3, r3, #9
 800100c:	2001      	movs	r0, #1
 800100e:	6af1      	ldr	r1, [r6, #44]	; 0x2c
 8001010:	4013      	ands	r3, r2
 8001012:	42ab      	cmp	r3, r5
 8001014:	d000      	beq.n	8001018 <HAL_RCC_OscConfig+0x3d8>
 8001016:	e70c      	b.n	8000e32 <HAL_RCC_OscConfig+0x1f2>
 8001018:	230f      	movs	r3, #15
 800101a:	400b      	ands	r3, r1
 800101c:	6ae1      	ldr	r1, [r4, #44]	; 0x2c
 800101e:	428b      	cmp	r3, r1
 8001020:	d000      	beq.n	8001024 <HAL_RCC_OscConfig+0x3e4>
 8001022:	e706      	b.n	8000e32 <HAL_RCC_OscConfig+0x1f2>
 8001024:	20f0      	movs	r0, #240	; 0xf0
 8001026:	0380      	lsls	r0, r0, #14
 8001028:	4002      	ands	r2, r0
 800102a:	6aa0      	ldr	r0, [r4, #40]	; 0x28
 800102c:	1a10      	subs	r0, r2, r0
 800102e:	1e42      	subs	r2, r0, #1
 8001030:	4190      	sbcs	r0, r2
 8001032:	b2c0      	uxtb	r0, r0
 8001034:	e6fd      	b.n	8000e32 <HAL_RCC_OscConfig+0x1f2>
 8001036:	2104      	movs	r1, #4
 8001038:	4e2a      	ldr	r6, [pc, #168]	; (80010e4 <HAL_RCC_OscConfig+0x4a4>)
 800103a:	2702      	movs	r7, #2
 800103c:	6b72      	ldr	r2, [r6, #52]	; 0x34
 800103e:	430a      	orrs	r2, r1
 8001040:	6372      	str	r2, [r6, #52]	; 0x34
 8001042:	6b72      	ldr	r2, [r6, #52]	; 0x34
 8001044:	4313      	orrs	r3, r2
 8001046:	6373      	str	r3, [r6, #52]	; 0x34
 8001048:	f7ff fa0a 	bl	8000460 <HAL_GetTick>
 800104c:	0005      	movs	r5, r0
 800104e:	e005      	b.n	800105c <HAL_RCC_OscConfig+0x41c>
 8001050:	f7ff fa06 	bl	8000460 <HAL_GetTick>
 8001054:	1b40      	subs	r0, r0, r5
 8001056:	2802      	cmp	r0, #2
 8001058:	d900      	bls.n	800105c <HAL_RCC_OscConfig+0x41c>
 800105a:	e72c      	b.n	8000eb6 <HAL_RCC_OscConfig+0x276>
 800105c:	6b73      	ldr	r3, [r6, #52]	; 0x34
 800105e:	421f      	tst	r7, r3
 8001060:	d0f6      	beq.n	8001050 <HAL_RCC_OscConfig+0x410>
 8001062:	21f8      	movs	r1, #248	; 0xf8
 8001064:	6b72      	ldr	r2, [r6, #52]	; 0x34
 8001066:	69a3      	ldr	r3, [r4, #24]
 8001068:	438a      	bics	r2, r1
 800106a:	00db      	lsls	r3, r3, #3
 800106c:	4313      	orrs	r3, r2
 800106e:	6373      	str	r3, [r6, #52]	; 0x34
 8001070:	e6b2      	b.n	8000dd8 <HAL_RCC_OscConfig+0x198>
 8001072:	6833      	ldr	r3, [r6, #0]
 8001074:	4a1d      	ldr	r2, [pc, #116]	; (80010ec <HAL_RCC_OscConfig+0x4ac>)
 8001076:	2780      	movs	r7, #128	; 0x80
 8001078:	4013      	ands	r3, r2
 800107a:	6033      	str	r3, [r6, #0]
 800107c:	f7ff f9f0 	bl	8000460 <HAL_GetTick>
 8001080:	04bf      	lsls	r7, r7, #18
 8001082:	0005      	movs	r5, r0
 8001084:	e005      	b.n	8001092 <HAL_RCC_OscConfig+0x452>
 8001086:	f7ff f9eb 	bl	8000460 <HAL_GetTick>
 800108a:	1b40      	subs	r0, r0, r5
 800108c:	2802      	cmp	r0, #2
 800108e:	d900      	bls.n	8001092 <HAL_RCC_OscConfig+0x452>
 8001090:	e711      	b.n	8000eb6 <HAL_RCC_OscConfig+0x276>
 8001092:	6833      	ldr	r3, [r6, #0]
 8001094:	423b      	tst	r3, r7
 8001096:	d1f6      	bne.n	8001086 <HAL_RCC_OscConfig+0x446>
 8001098:	220f      	movs	r2, #15
 800109a:	6af3      	ldr	r3, [r6, #44]	; 0x2c
 800109c:	2580      	movs	r5, #128	; 0x80
 800109e:	4393      	bics	r3, r2
 80010a0:	6ae2      	ldr	r2, [r4, #44]	; 0x2c
 80010a2:	04ad      	lsls	r5, r5, #18
 80010a4:	4313      	orrs	r3, r2
 80010a6:	62f3      	str	r3, [r6, #44]	; 0x2c
 80010a8:	6a61      	ldr	r1, [r4, #36]	; 0x24
 80010aa:	6aa3      	ldr	r3, [r4, #40]	; 0x28
 80010ac:	6872      	ldr	r2, [r6, #4]
 80010ae:	430b      	orrs	r3, r1
 80010b0:	490f      	ldr	r1, [pc, #60]	; (80010f0 <HAL_RCC_OscConfig+0x4b0>)
 80010b2:	400a      	ands	r2, r1
 80010b4:	4313      	orrs	r3, r2
 80010b6:	6073      	str	r3, [r6, #4]
 80010b8:	2380      	movs	r3, #128	; 0x80
 80010ba:	6832      	ldr	r2, [r6, #0]
 80010bc:	045b      	lsls	r3, r3, #17
 80010be:	4313      	orrs	r3, r2
 80010c0:	6033      	str	r3, [r6, #0]
 80010c2:	f7ff f9cd 	bl	8000460 <HAL_GetTick>
 80010c6:	4e07      	ldr	r6, [pc, #28]	; (80010e4 <HAL_RCC_OscConfig+0x4a4>)
 80010c8:	0004      	movs	r4, r0
 80010ca:	e005      	b.n	80010d8 <HAL_RCC_OscConfig+0x498>
 80010cc:	f7ff f9c8 	bl	8000460 <HAL_GetTick>
 80010d0:	1b00      	subs	r0, r0, r4
 80010d2:	2802      	cmp	r0, #2
 80010d4:	d900      	bls.n	80010d8 <HAL_RCC_OscConfig+0x498>
 80010d6:	e6ee      	b.n	8000eb6 <HAL_RCC_OscConfig+0x276>
 80010d8:	6833      	ldr	r3, [r6, #0]
 80010da:	422b      	tst	r3, r5
 80010dc:	d0f6      	beq.n	80010cc <HAL_RCC_OscConfig+0x48c>
 80010de:	2000      	movs	r0, #0
 80010e0:	e6a7      	b.n	8000e32 <HAL_RCC_OscConfig+0x1f2>
 80010e2:	46c0      	nop			; (mov r8, r8)
 80010e4:	40021000 	.word	0x40021000
 80010e8:	efffffff 	.word	0xefffffff
 80010ec:	feffffff 	.word	0xfeffffff
 80010f0:	ffc2ffff 	.word	0xffc2ffff

080010f4 <HAL_RCC_ClockConfig>:
 80010f4:	b5f8      	push	{r3, r4, r5, r6, r7, lr}
 80010f6:	46ce      	mov	lr, r9
 80010f8:	4647      	mov	r7, r8
 80010fa:	0004      	movs	r4, r0
 80010fc:	000d      	movs	r5, r1
 80010fe:	b580      	push	{r7, lr}
 8001100:	2800      	cmp	r0, #0
 8001102:	d00d      	beq.n	8001120 <HAL_RCC_ClockConfig+0x2c>
 8001104:	2301      	movs	r3, #1
 8001106:	494a      	ldr	r1, [pc, #296]	; (8001230 <HAL_RCC_ClockConfig+0x13c>)
 8001108:	680a      	ldr	r2, [r1, #0]
 800110a:	401a      	ands	r2, r3
 800110c:	42aa      	cmp	r2, r5
 800110e:	d20c      	bcs.n	800112a <HAL_RCC_ClockConfig+0x36>
 8001110:	680a      	ldr	r2, [r1, #0]
 8001112:	439a      	bics	r2, r3
 8001114:	432a      	orrs	r2, r5
 8001116:	600a      	str	r2, [r1, #0]
 8001118:	680a      	ldr	r2, [r1, #0]
 800111a:	4013      	ands	r3, r2
 800111c:	42ab      	cmp	r3, r5
 800111e:	d004      	beq.n	800112a <HAL_RCC_ClockConfig+0x36>
 8001120:	2001      	movs	r0, #1
 8001122:	bcc0      	pop	{r6, r7}
 8001124:	46b9      	mov	r9, r7
 8001126:	46b0      	mov	r8, r6
 8001128:	bdf8      	pop	{r3, r4, r5, r6, r7, pc}
 800112a:	6823      	ldr	r3, [r4, #0]
 800112c:	079a      	lsls	r2, r3, #30
 800112e:	d50e      	bpl.n	800114e <HAL_RCC_ClockConfig+0x5a>
 8001130:	075a      	lsls	r2, r3, #29
 8001132:	d505      	bpl.n	8001140 <HAL_RCC_ClockConfig+0x4c>
 8001134:	22e0      	movs	r2, #224	; 0xe0
 8001136:	493f      	ldr	r1, [pc, #252]	; (8001234 <HAL_RCC_ClockConfig+0x140>)
 8001138:	00d2      	lsls	r2, r2, #3
 800113a:	6848      	ldr	r0, [r1, #4]
 800113c:	4302      	orrs	r2, r0
 800113e:	604a      	str	r2, [r1, #4]
 8001140:	20f0      	movs	r0, #240	; 0xf0
 8001142:	493c      	ldr	r1, [pc, #240]	; (8001234 <HAL_RCC_ClockConfig+0x140>)
 8001144:	684a      	ldr	r2, [r1, #4]
 8001146:	4382      	bics	r2, r0
 8001148:	68a0      	ldr	r0, [r4, #8]
 800114a:	4302      	orrs	r2, r0
 800114c:	604a      	str	r2, [r1, #4]
 800114e:	07db      	lsls	r3, r3, #31
 8001150:	d522      	bpl.n	8001198 <HAL_RCC_ClockConfig+0xa4>
 8001152:	4b38      	ldr	r3, [pc, #224]	; (8001234 <HAL_RCC_ClockConfig+0x140>)
 8001154:	6862      	ldr	r2, [r4, #4]
 8001156:	681b      	ldr	r3, [r3, #0]
 8001158:	2a01      	cmp	r2, #1
 800115a:	d05b      	beq.n	8001214 <HAL_RCC_ClockConfig+0x120>
 800115c:	2a02      	cmp	r2, #2
 800115e:	d056      	beq.n	800120e <HAL_RCC_ClockConfig+0x11a>
 8001160:	079b      	lsls	r3, r3, #30
 8001162:	d5dd      	bpl.n	8001120 <HAL_RCC_ClockConfig+0x2c>
 8001164:	2103      	movs	r1, #3
 8001166:	4e33      	ldr	r6, [pc, #204]	; (8001234 <HAL_RCC_ClockConfig+0x140>)
 8001168:	6873      	ldr	r3, [r6, #4]
 800116a:	438b      	bics	r3, r1
 800116c:	4313      	orrs	r3, r2
 800116e:	6073      	str	r3, [r6, #4]
 8001170:	f7ff f976 	bl	8000460 <HAL_GetTick>
 8001174:	230c      	movs	r3, #12
 8001176:	4698      	mov	r8, r3
 8001178:	4b2f      	ldr	r3, [pc, #188]	; (8001238 <HAL_RCC_ClockConfig+0x144>)
 800117a:	0007      	movs	r7, r0
 800117c:	4699      	mov	r9, r3
 800117e:	e004      	b.n	800118a <HAL_RCC_ClockConfig+0x96>
 8001180:	f7ff f96e 	bl	8000460 <HAL_GetTick>
 8001184:	1bc0      	subs	r0, r0, r7
 8001186:	4548      	cmp	r0, r9
 8001188:	d847      	bhi.n	800121a <HAL_RCC_ClockConfig+0x126>
 800118a:	4643      	mov	r3, r8
 800118c:	6872      	ldr	r2, [r6, #4]
 800118e:	401a      	ands	r2, r3
 8001190:	6863      	ldr	r3, [r4, #4]
 8001192:	009b      	lsls	r3, r3, #2
 8001194:	429a      	cmp	r2, r3
 8001196:	d1f3      	bne.n	8001180 <HAL_RCC_ClockConfig+0x8c>
 8001198:	2101      	movs	r1, #1
 800119a:	4a25      	ldr	r2, [pc, #148]	; (8001230 <HAL_RCC_ClockConfig+0x13c>)
 800119c:	6813      	ldr	r3, [r2, #0]
 800119e:	400b      	ands	r3, r1
 80011a0:	42ab      	cmp	r3, r5
 80011a2:	d905      	bls.n	80011b0 <HAL_RCC_ClockConfig+0xbc>
 80011a4:	6813      	ldr	r3, [r2, #0]
 80011a6:	438b      	bics	r3, r1
 80011a8:	6013      	str	r3, [r2, #0]
 80011aa:	6813      	ldr	r3, [r2, #0]
 80011ac:	4219      	tst	r1, r3
 80011ae:	d1b7      	bne.n	8001120 <HAL_RCC_ClockConfig+0x2c>
 80011b0:	6823      	ldr	r3, [r4, #0]
 80011b2:	075b      	lsls	r3, r3, #29
 80011b4:	d506      	bpl.n	80011c4 <HAL_RCC_ClockConfig+0xd0>
 80011b6:	4a1f      	ldr	r2, [pc, #124]	; (8001234 <HAL_RCC_ClockConfig+0x140>)
 80011b8:	4920      	ldr	r1, [pc, #128]	; (800123c <HAL_RCC_ClockConfig+0x148>)
 80011ba:	6853      	ldr	r3, [r2, #4]
 80011bc:	400b      	ands	r3, r1
 80011be:	68e1      	ldr	r1, [r4, #12]
 80011c0:	430b      	orrs	r3, r1
 80011c2:	6053      	str	r3, [r2, #4]
 80011c4:	230c      	movs	r3, #12
 80011c6:	491b      	ldr	r1, [pc, #108]	; (8001234 <HAL_RCC_ClockConfig+0x140>)
 80011c8:	684a      	ldr	r2, [r1, #4]
 80011ca:	4013      	ands	r3, r2
 80011cc:	2b08      	cmp	r3, #8
 80011ce:	d00e      	beq.n	80011ee <HAL_RCC_ClockConfig+0xfa>
 80011d0:	481b      	ldr	r0, [pc, #108]	; (8001240 <HAL_RCC_ClockConfig+0x14c>)
 80011d2:	4b18      	ldr	r3, [pc, #96]	; (8001234 <HAL_RCC_ClockConfig+0x140>)
 80011d4:	4a1b      	ldr	r2, [pc, #108]	; (8001244 <HAL_RCC_ClockConfig+0x150>)
 80011d6:	685b      	ldr	r3, [r3, #4]
 80011d8:	061b      	lsls	r3, r3, #24
 80011da:	0f1b      	lsrs	r3, r3, #28
 80011dc:	5cd3      	ldrb	r3, [r2, r3]
 80011de:	40d8      	lsrs	r0, r3
 80011e0:	4b19      	ldr	r3, [pc, #100]	; (8001248 <HAL_RCC_ClockConfig+0x154>)
 80011e2:	6018      	str	r0, [r3, #0]
 80011e4:	2000      	movs	r0, #0
 80011e6:	f7ff f8f9 	bl	80003dc <HAL_InitTick>
 80011ea:	2000      	movs	r0, #0
 80011ec:	e799      	b.n	8001122 <HAL_RCC_ClockConfig+0x2e>
 80011ee:	6ac9      	ldr	r1, [r1, #44]	; 0x2c
 80011f0:	3307      	adds	r3, #7
 80011f2:	0c90      	lsrs	r0, r2, #18
 80011f4:	4018      	ands	r0, r3
 80011f6:	4c15      	ldr	r4, [pc, #84]	; (800124c <HAL_RCC_ClockConfig+0x158>)
 80011f8:	400b      	ands	r3, r1
 80011fa:	4915      	ldr	r1, [pc, #84]	; (8001250 <HAL_RCC_ClockConfig+0x15c>)
 80011fc:	5c24      	ldrb	r4, [r4, r0]
 80011fe:	5cc9      	ldrb	r1, [r1, r3]
 8001200:	03d3      	lsls	r3, r2, #15
 8001202:	d50c      	bpl.n	800121e <HAL_RCC_ClockConfig+0x12a>
 8001204:	480e      	ldr	r0, [pc, #56]	; (8001240 <HAL_RCC_ClockConfig+0x14c>)
 8001206:	f7fe ff91 	bl	800012c <__udivsi3>
 800120a:	4360      	muls	r0, r4
 800120c:	e7e1      	b.n	80011d2 <HAL_RCC_ClockConfig+0xde>
 800120e:	019b      	lsls	r3, r3, #6
 8001210:	d4a8      	bmi.n	8001164 <HAL_RCC_ClockConfig+0x70>
 8001212:	e785      	b.n	8001120 <HAL_RCC_ClockConfig+0x2c>
 8001214:	039b      	lsls	r3, r3, #14
 8001216:	d4a5      	bmi.n	8001164 <HAL_RCC_ClockConfig+0x70>
 8001218:	e782      	b.n	8001120 <HAL_RCC_ClockConfig+0x2c>
 800121a:	2003      	movs	r0, #3
 800121c:	e781      	b.n	8001122 <HAL_RCC_ClockConfig+0x2e>
 800121e:	0163      	lsls	r3, r4, #5
 8001220:	1b1b      	subs	r3, r3, r4
 8001222:	0198      	lsls	r0, r3, #6
 8001224:	1ac0      	subs	r0, r0, r3
 8001226:	00c0      	lsls	r0, r0, #3
 8001228:	1900      	adds	r0, r0, r4
 800122a:	0200      	lsls	r0, r0, #8
 800122c:	e7d1      	b.n	80011d2 <HAL_RCC_ClockConfig+0xde>
 800122e:	46c0      	nop			; (mov r8, r8)
 8001230:	40022000 	.word	0x40022000
 8001234:	40021000 	.word	0x40021000
 8001238:	00001388 	.word	0x00001388
 800123c:	fffff8ff 	.word	0xfffff8ff
 8001240:	007a1200 	.word	0x007a1200
 8001244:	08005940 	.word	0x08005940
 8001248:	200006a0 	.word	0x200006a0
 800124c:	08005564 	.word	0x08005564
 8001250:	08005574 	.word	0x08005574

08001254 <HAL_RCC_GetSysClockFreq>:
 8001254:	230c      	movs	r3, #12
 8001256:	4910      	ldr	r1, [pc, #64]	; (8001298 <HAL_RCC_GetSysClockFreq+0x44>)
 8001258:	b510      	push	{r4, lr}
 800125a:	684a      	ldr	r2, [r1, #4]
 800125c:	4013      	ands	r3, r2
 800125e:	2b08      	cmp	r3, #8
 8001260:	d001      	beq.n	8001266 <HAL_RCC_GetSysClockFreq+0x12>
 8001262:	480e      	ldr	r0, [pc, #56]	; (800129c <HAL_RCC_GetSysClockFreq+0x48>)
 8001264:	bd10      	pop	{r4, pc}
 8001266:	6ac9      	ldr	r1, [r1, #44]	; 0x2c
 8001268:	3307      	adds	r3, #7
 800126a:	0c90      	lsrs	r0, r2, #18
 800126c:	4018      	ands	r0, r3
 800126e:	4c0c      	ldr	r4, [pc, #48]	; (80012a0 <HAL_RCC_GetSysClockFreq+0x4c>)
 8001270:	400b      	ands	r3, r1
 8001272:	490c      	ldr	r1, [pc, #48]	; (80012a4 <HAL_RCC_GetSysClockFreq+0x50>)
 8001274:	5c24      	ldrb	r4, [r4, r0]
 8001276:	5cc9      	ldrb	r1, [r1, r3]
 8001278:	03d3      	lsls	r3, r2, #15
 800127a:	d504      	bpl.n	8001286 <HAL_RCC_GetSysClockFreq+0x32>
 800127c:	4807      	ldr	r0, [pc, #28]	; (800129c <HAL_RCC_GetSysClockFreq+0x48>)
 800127e:	f7fe ff55 	bl	800012c <__udivsi3>
 8001282:	4360      	muls	r0, r4
 8001284:	e7ee      	b.n	8001264 <HAL_RCC_GetSysClockFreq+0x10>
 8001286:	0163      	lsls	r3, r4, #5
 8001288:	1b1b      	subs	r3, r3, r4
 800128a:	0198      	lsls	r0, r3, #6
 800128c:	1ac0      	subs	r0, r0, r3
 800128e:	00c0      	lsls	r0, r0, #3
 8001290:	1900      	adds	r0, r0, r4
 8001292:	0200      	lsls	r0, r0, #8
 8001294:	e7e6      	b.n	8001264 <HAL_RCC_GetSysClockFreq+0x10>
 8001296:	46c0      	nop			; (mov r8, r8)
 8001298:	40021000 	.word	0x40021000
 800129c:	007a1200 	.word	0x007a1200
 80012a0:	08005564 	.word	0x08005564
 80012a4:	08005574 	.word	0x08005574

080012a8 <HAL_RCC_GetPCLK1Freq>:
 80012a8:	4b04      	ldr	r3, [pc, #16]	; (80012bc <HAL_RCC_GetPCLK1Freq+0x14>)
 80012aa:	4a05      	ldr	r2, [pc, #20]	; (80012c0 <HAL_RCC_GetPCLK1Freq+0x18>)
 80012ac:	685b      	ldr	r3, [r3, #4]
 80012ae:	055b      	lsls	r3, r3, #21
 80012b0:	0f5b      	lsrs	r3, r3, #29
 80012b2:	5cd3      	ldrb	r3, [r2, r3]
 80012b4:	4a03      	ldr	r2, [pc, #12]	; (80012c4 <HAL_RCC_GetPCLK1Freq+0x1c>)
 80012b6:	6810      	ldr	r0, [r2, #0]
 80012b8:	40d8      	lsrs	r0, r3
 80012ba:	4770      	bx	lr
 80012bc:	40021000 	.word	0x40021000
 80012c0:	08005950 	.word	0x08005950
 80012c4:	200006a0 	.word	0x200006a0

080012c8 <SPI_WaitFlagStateUntilTimeout.constprop.0>:
 80012c8:	b5f0      	push	{r4, r5, r6, r7, lr}
 80012ca:	46c6      	mov	lr, r8
 80012cc:	b500      	push	{lr}
 80012ce:	000c      	movs	r4, r1
 80012d0:	0016      	movs	r6, r2
 80012d2:	b082      	sub	sp, #8
 80012d4:	0007      	movs	r7, r0
 80012d6:	f7ff f8c3 	bl	8000460 <HAL_GetTick>
 80012da:	1936      	adds	r6, r6, r4
 80012dc:	1a36      	subs	r6, r6, r0
 80012de:	f7ff f8bf 	bl	8000460 <HAL_GetTick>
 80012e2:	2580      	movs	r5, #128	; 0x80
 80012e4:	4680      	mov	r8, r0
 80012e6:	4b27      	ldr	r3, [pc, #156]	; (8001384 <SPI_WaitFlagStateUntilTimeout.constprop.0+0xbc>)
 80012e8:	681b      	ldr	r3, [r3, #0]
 80012ea:	015b      	lsls	r3, r3, #5
 80012ec:	0d1b      	lsrs	r3, r3, #20
 80012ee:	4373      	muls	r3, r6
 80012f0:	9301      	str	r3, [sp, #4]
 80012f2:	683a      	ldr	r2, [r7, #0]
 80012f4:	e001      	b.n	80012fa <SPI_WaitFlagStateUntilTimeout.constprop.0+0x32>
 80012f6:	1c63      	adds	r3, r4, #1
 80012f8:	d107      	bne.n	800130a <SPI_WaitFlagStateUntilTimeout.constprop.0+0x42>
 80012fa:	6893      	ldr	r3, [r2, #8]
 80012fc:	421d      	tst	r5, r3
 80012fe:	d1fa      	bne.n	80012f6 <SPI_WaitFlagStateUntilTimeout.constprop.0+0x2e>
 8001300:	2000      	movs	r0, #0
 8001302:	b002      	add	sp, #8
 8001304:	bc80      	pop	{r7}
 8001306:	46b8      	mov	r8, r7
 8001308:	bdf0      	pop	{r4, r5, r6, r7, pc}
 800130a:	f7ff f8a9 	bl	8000460 <HAL_GetTick>
 800130e:	4643      	mov	r3, r8
 8001310:	1ac0      	subs	r0, r0, r3
 8001312:	42b0      	cmp	r0, r6
 8001314:	d208      	bcs.n	8001328 <SPI_WaitFlagStateUntilTimeout.constprop.0+0x60>
 8001316:	9b01      	ldr	r3, [sp, #4]
 8001318:	1e5a      	subs	r2, r3, #1
 800131a:	4193      	sbcs	r3, r2
 800131c:	425b      	negs	r3, r3
 800131e:	401e      	ands	r6, r3
 8001320:	9b01      	ldr	r3, [sp, #4]
 8001322:	3b01      	subs	r3, #1
 8001324:	9301      	str	r3, [sp, #4]
 8001326:	e7e4      	b.n	80012f2 <SPI_WaitFlagStateUntilTimeout.constprop.0+0x2a>
 8001328:	21e0      	movs	r1, #224	; 0xe0
 800132a:	683b      	ldr	r3, [r7, #0]
 800132c:	685a      	ldr	r2, [r3, #4]
 800132e:	438a      	bics	r2, r1
 8001330:	605a      	str	r2, [r3, #4]
 8001332:	2282      	movs	r2, #130	; 0x82
 8001334:	6879      	ldr	r1, [r7, #4]
 8001336:	0052      	lsls	r2, r2, #1
 8001338:	4291      	cmp	r1, r2
 800133a:	d014      	beq.n	8001366 <SPI_WaitFlagStateUntilTimeout.constprop.0+0x9e>
 800133c:	2180      	movs	r1, #128	; 0x80
 800133e:	6aba      	ldr	r2, [r7, #40]	; 0x28
 8001340:	0189      	lsls	r1, r1, #6
 8001342:	428a      	cmp	r2, r1
 8001344:	d007      	beq.n	8001356 <SPI_WaitFlagStateUntilTimeout.constprop.0+0x8e>
 8001346:	235d      	movs	r3, #93	; 0x5d
 8001348:	2201      	movs	r2, #1
 800134a:	54fa      	strb	r2, [r7, r3]
 800134c:	2200      	movs	r2, #0
 800134e:	3b01      	subs	r3, #1
 8001350:	2003      	movs	r0, #3
 8001352:	54fa      	strb	r2, [r7, r3]
 8001354:	e7d5      	b.n	8001302 <SPI_WaitFlagStateUntilTimeout.constprop.0+0x3a>
 8001356:	6819      	ldr	r1, [r3, #0]
 8001358:	480b      	ldr	r0, [pc, #44]	; (8001388 <SPI_WaitFlagStateUntilTimeout.constprop.0+0xc0>)
 800135a:	4001      	ands	r1, r0
 800135c:	6019      	str	r1, [r3, #0]
 800135e:	6819      	ldr	r1, [r3, #0]
 8001360:	430a      	orrs	r2, r1
 8001362:	601a      	str	r2, [r3, #0]
 8001364:	e7ef      	b.n	8001346 <SPI_WaitFlagStateUntilTimeout.constprop.0+0x7e>
 8001366:	2180      	movs	r1, #128	; 0x80
 8001368:	68ba      	ldr	r2, [r7, #8]
 800136a:	0209      	lsls	r1, r1, #8
 800136c:	428a      	cmp	r2, r1
 800136e:	d003      	beq.n	8001378 <SPI_WaitFlagStateUntilTimeout.constprop.0+0xb0>
 8001370:	2180      	movs	r1, #128	; 0x80
 8001372:	00c9      	lsls	r1, r1, #3
 8001374:	428a      	cmp	r2, r1
 8001376:	d1e1      	bne.n	800133c <SPI_WaitFlagStateUntilTimeout.constprop.0+0x74>
 8001378:	2140      	movs	r1, #64	; 0x40
 800137a:	681a      	ldr	r2, [r3, #0]
 800137c:	438a      	bics	r2, r1
 800137e:	601a      	str	r2, [r3, #0]
 8001380:	e7dc      	b.n	800133c <SPI_WaitFlagStateUntilTimeout.constprop.0+0x74>
 8001382:	46c0      	nop			; (mov r8, r8)
 8001384:	200006a0 	.word	0x200006a0
 8001388:	ffffdfff 	.word	0xffffdfff

0800138c <SPI_WaitFifoStateUntilTimeout.constprop.0>:
 800138c:	b5f0      	push	{r4, r5, r6, r7, lr}
 800138e:	46de      	mov	lr, fp
 8001390:	4657      	mov	r7, sl
 8001392:	464e      	mov	r6, r9
 8001394:	4645      	mov	r5, r8
 8001396:	b5e0      	push	{r5, r6, r7, lr}
 8001398:	b083      	sub	sp, #12
 800139a:	001e      	movs	r6, r3
 800139c:	466b      	mov	r3, sp
 800139e:	1cdf      	adds	r7, r3, #3
 80013a0:	2300      	movs	r3, #0
 80013a2:	0015      	movs	r5, r2
 80013a4:	4681      	mov	r9, r0
 80013a6:	000c      	movs	r4, r1
 80013a8:	703b      	strb	r3, [r7, #0]
 80013aa:	f7ff f859 	bl	8000460 <HAL_GetTick>
 80013ae:	1976      	adds	r6, r6, r5
 80013b0:	1a33      	subs	r3, r6, r0
 80013b2:	4698      	mov	r8, r3
 80013b4:	f7ff f854 	bl	8000460 <HAL_GetTick>
 80013b8:	464b      	mov	r3, r9
 80013ba:	681b      	ldr	r3, [r3, #0]
 80013bc:	26c0      	movs	r6, #192	; 0xc0
 80013be:	469a      	mov	sl, r3
 80013c0:	4b35      	ldr	r3, [pc, #212]	; (8001498 <SPI_WaitFifoStateUntilTimeout.constprop.0+0x10c>)
 80013c2:	4683      	mov	fp, r0
 80013c4:	681a      	ldr	r2, [r3, #0]
 80013c6:	00f6      	lsls	r6, r6, #3
 80013c8:	0093      	lsls	r3, r2, #2
 80013ca:	189a      	adds	r2, r3, r2
 80013cc:	00d3      	lsls	r3, r2, #3
 80013ce:	1a9b      	subs	r3, r3, r2
 80013d0:	4642      	mov	r2, r8
 80013d2:	0d1b      	lsrs	r3, r3, #20
 80013d4:	4353      	muls	r3, r2
 80013d6:	4652      	mov	r2, sl
 80013d8:	9301      	str	r3, [sp, #4]
 80013da:	e001      	b.n	80013e0 <SPI_WaitFifoStateUntilTimeout.constprop.0+0x54>
 80013dc:	1c6b      	adds	r3, r5, #1
 80013de:	d10b      	bne.n	80013f8 <SPI_WaitFifoStateUntilTimeout.constprop.0+0x6c>
 80013e0:	6893      	ldr	r3, [r2, #8]
 80013e2:	4223      	tst	r3, r4
 80013e4:	d01d      	beq.n	8001422 <SPI_WaitFifoStateUntilTimeout.constprop.0+0x96>
 80013e6:	42b4      	cmp	r4, r6
 80013e8:	d1f8      	bne.n	80013dc <SPI_WaitFifoStateUntilTimeout.constprop.0+0x50>
 80013ea:	4653      	mov	r3, sl
 80013ec:	7b1b      	ldrb	r3, [r3, #12]
 80013ee:	b2db      	uxtb	r3, r3
 80013f0:	703b      	strb	r3, [r7, #0]
 80013f2:	783b      	ldrb	r3, [r7, #0]
 80013f4:	1c6b      	adds	r3, r5, #1
 80013f6:	d0f3      	beq.n	80013e0 <SPI_WaitFifoStateUntilTimeout.constprop.0+0x54>
 80013f8:	f7ff f832 	bl	8000460 <HAL_GetTick>
 80013fc:	465b      	mov	r3, fp
 80013fe:	1ac0      	subs	r0, r0, r3
 8001400:	4540      	cmp	r0, r8
 8001402:	d216      	bcs.n	8001432 <SPI_WaitFifoStateUntilTimeout.constprop.0+0xa6>
 8001404:	9b01      	ldr	r3, [sp, #4]
 8001406:	1e5a      	subs	r2, r3, #1
 8001408:	4193      	sbcs	r3, r2
 800140a:	4642      	mov	r2, r8
 800140c:	425b      	negs	r3, r3
 800140e:	401a      	ands	r2, r3
 8001410:	9b01      	ldr	r3, [sp, #4]
 8001412:	4690      	mov	r8, r2
 8001414:	3b01      	subs	r3, #1
 8001416:	9301      	str	r3, [sp, #4]
 8001418:	464b      	mov	r3, r9
 800141a:	681a      	ldr	r2, [r3, #0]
 800141c:	6893      	ldr	r3, [r2, #8]
 800141e:	4223      	tst	r3, r4
 8001420:	d1e1      	bne.n	80013e6 <SPI_WaitFifoStateUntilTimeout.constprop.0+0x5a>
 8001422:	2000      	movs	r0, #0
 8001424:	b003      	add	sp, #12
 8001426:	bcf0      	pop	{r4, r5, r6, r7}
 8001428:	46bb      	mov	fp, r7
 800142a:	46b2      	mov	sl, r6
 800142c:	46a9      	mov	r9, r5
 800142e:	46a0      	mov	r8, r4
 8001430:	bdf0      	pop	{r4, r5, r6, r7, pc}
 8001432:	464b      	mov	r3, r9
 8001434:	21e0      	movs	r1, #224	; 0xe0
 8001436:	681b      	ldr	r3, [r3, #0]
 8001438:	685a      	ldr	r2, [r3, #4]
 800143a:	438a      	bics	r2, r1
 800143c:	4649      	mov	r1, r9
 800143e:	605a      	str	r2, [r3, #4]
 8001440:	2282      	movs	r2, #130	; 0x82
 8001442:	6849      	ldr	r1, [r1, #4]
 8001444:	0052      	lsls	r2, r2, #1
 8001446:	4291      	cmp	r1, r2
 8001448:	d016      	beq.n	8001478 <SPI_WaitFifoStateUntilTimeout.constprop.0+0xec>
 800144a:	464a      	mov	r2, r9
 800144c:	2180      	movs	r1, #128	; 0x80
 800144e:	6a92      	ldr	r2, [r2, #40]	; 0x28
 8001450:	0189      	lsls	r1, r1, #6
 8001452:	428a      	cmp	r2, r1
 8001454:	d008      	beq.n	8001468 <SPI_WaitFifoStateUntilTimeout.constprop.0+0xdc>
 8001456:	235d      	movs	r3, #93	; 0x5d
 8001458:	2201      	movs	r2, #1
 800145a:	4649      	mov	r1, r9
 800145c:	54ca      	strb	r2, [r1, r3]
 800145e:	2200      	movs	r2, #0
 8001460:	3b01      	subs	r3, #1
 8001462:	2003      	movs	r0, #3
 8001464:	54ca      	strb	r2, [r1, r3]
 8001466:	e7dd      	b.n	8001424 <SPI_WaitFifoStateUntilTimeout.constprop.0+0x98>
 8001468:	6819      	ldr	r1, [r3, #0]
 800146a:	480c      	ldr	r0, [pc, #48]	; (800149c <SPI_WaitFifoStateUntilTimeout.constprop.0+0x110>)
 800146c:	4001      	ands	r1, r0
 800146e:	6019      	str	r1, [r3, #0]
 8001470:	6819      	ldr	r1, [r3, #0]
 8001472:	430a      	orrs	r2, r1
 8001474:	601a      	str	r2, [r3, #0]
 8001476:	e7ee      	b.n	8001456 <SPI_WaitFifoStateUntilTimeout.constprop.0+0xca>
 8001478:	464a      	mov	r2, r9
 800147a:	2180      	movs	r1, #128	; 0x80
 800147c:	6892      	ldr	r2, [r2, #8]
 800147e:	0209      	lsls	r1, r1, #8
 8001480:	428a      	cmp	r2, r1
 8001482:	d003      	beq.n	800148c <SPI_WaitFifoStateUntilTimeout.constprop.0+0x100>
 8001484:	2180      	movs	r1, #128	; 0x80
 8001486:	00c9      	lsls	r1, r1, #3
 8001488:	428a      	cmp	r2, r1
 800148a:	d1de      	bne.n	800144a <SPI_WaitFifoStateUntilTimeout.constprop.0+0xbe>
 800148c:	2140      	movs	r1, #64	; 0x40
 800148e:	681a      	ldr	r2, [r3, #0]
 8001490:	438a      	bics	r2, r1
 8001492:	601a      	str	r2, [r3, #0]
 8001494:	e7d9      	b.n	800144a <SPI_WaitFifoStateUntilTimeout.constprop.0+0xbe>
 8001496:	46c0      	nop			; (mov r8, r8)
 8001498:	200006a0 	.word	0x200006a0
 800149c:	ffffdfff 	.word	0xffffdfff

080014a0 <SPI_EndRxTransaction>:
 80014a0:	b5f8      	push	{r3, r4, r5, r6, r7, lr}
 80014a2:	2382      	movs	r3, #130	; 0x82
 80014a4:	0017      	movs	r7, r2
 80014a6:	6842      	ldr	r2, [r0, #4]
 80014a8:	0004      	movs	r4, r0
 80014aa:	000e      	movs	r6, r1
 80014ac:	005b      	lsls	r3, r3, #1
 80014ae:	429a      	cmp	r2, r3
 80014b0:	d00d      	beq.n	80014ce <SPI_EndRxTransaction+0x2e>
 80014b2:	003a      	movs	r2, r7
 80014b4:	0031      	movs	r1, r6
 80014b6:	0020      	movs	r0, r4
 80014b8:	f7ff ff06 	bl	80012c8 <SPI_WaitFlagStateUntilTimeout.constprop.0>
 80014bc:	1e05      	subs	r5, r0, #0
 80014be:	d11b      	bne.n	80014f8 <SPI_EndRxTransaction+0x58>
 80014c0:	2382      	movs	r3, #130	; 0x82
 80014c2:	6862      	ldr	r2, [r4, #4]
 80014c4:	005b      	lsls	r3, r3, #1
 80014c6:	429a      	cmp	r2, r3
 80014c8:	d01c      	beq.n	8001504 <SPI_EndRxTransaction+0x64>
 80014ca:	0028      	movs	r0, r5
 80014cc:	bdf8      	pop	{r3, r4, r5, r6, r7, pc}
 80014ce:	2280      	movs	r2, #128	; 0x80
 80014d0:	6883      	ldr	r3, [r0, #8]
 80014d2:	0212      	lsls	r2, r2, #8
 80014d4:	4293      	cmp	r3, r2
 80014d6:	d003      	beq.n	80014e0 <SPI_EndRxTransaction+0x40>
 80014d8:	2280      	movs	r2, #128	; 0x80
 80014da:	00d2      	lsls	r2, r2, #3
 80014dc:	4293      	cmp	r3, r2
 80014de:	d1e8      	bne.n	80014b2 <SPI_EndRxTransaction+0x12>
 80014e0:	2140      	movs	r1, #64	; 0x40
 80014e2:	6822      	ldr	r2, [r4, #0]
 80014e4:	0020      	movs	r0, r4
 80014e6:	6813      	ldr	r3, [r2, #0]
 80014e8:	438b      	bics	r3, r1
 80014ea:	6013      	str	r3, [r2, #0]
 80014ec:	0031      	movs	r1, r6
 80014ee:	003a      	movs	r2, r7
 80014f0:	f7ff feea 	bl	80012c8 <SPI_WaitFlagStateUntilTimeout.constprop.0>
 80014f4:	1e05      	subs	r5, r0, #0
 80014f6:	d0e3      	beq.n	80014c0 <SPI_EndRxTransaction+0x20>
 80014f8:	2220      	movs	r2, #32
 80014fa:	6e23      	ldr	r3, [r4, #96]	; 0x60
 80014fc:	2503      	movs	r5, #3
 80014fe:	4313      	orrs	r3, r2
 8001500:	6623      	str	r3, [r4, #96]	; 0x60
 8001502:	e7e2      	b.n	80014ca <SPI_EndRxTransaction+0x2a>
 8001504:	2280      	movs	r2, #128	; 0x80
 8001506:	68a3      	ldr	r3, [r4, #8]
 8001508:	0212      	lsls	r2, r2, #8
 800150a:	4293      	cmp	r3, r2
 800150c:	d003      	beq.n	8001516 <SPI_EndRxTransaction+0x76>
 800150e:	2280      	movs	r2, #128	; 0x80
 8001510:	00d2      	lsls	r2, r2, #3
 8001512:	4293      	cmp	r3, r2
 8001514:	d1d9      	bne.n	80014ca <SPI_EndRxTransaction+0x2a>
 8001516:	21c0      	movs	r1, #192	; 0xc0
 8001518:	003b      	movs	r3, r7
 800151a:	0032      	movs	r2, r6
 800151c:	0020      	movs	r0, r4
 800151e:	00c9      	lsls	r1, r1, #3
 8001520:	f7ff ff34 	bl	800138c <SPI_WaitFifoStateUntilTimeout.constprop.0>
 8001524:	2800      	cmp	r0, #0
 8001526:	d0d0      	beq.n	80014ca <SPI_EndRxTransaction+0x2a>
 8001528:	e7e6      	b.n	80014f8 <SPI_EndRxTransaction+0x58>
 800152a:	46c0      	nop			; (mov r8, r8)

0800152c <SPI_EndRxTxTransaction>:
 800152c:	b570      	push	{r4, r5, r6, lr}
 800152e:	0013      	movs	r3, r2
 8001530:	000d      	movs	r5, r1
 8001532:	0016      	movs	r6, r2
 8001534:	000a      	movs	r2, r1
 8001536:	21c0      	movs	r1, #192	; 0xc0
 8001538:	0149      	lsls	r1, r1, #5
 800153a:	0004      	movs	r4, r0
 800153c:	f7ff ff26 	bl	800138c <SPI_WaitFifoStateUntilTimeout.constprop.0>
 8001540:	2800      	cmp	r0, #0
 8001542:	d10f      	bne.n	8001564 <SPI_EndRxTxTransaction+0x38>
 8001544:	0032      	movs	r2, r6
 8001546:	0029      	movs	r1, r5
 8001548:	0020      	movs	r0, r4
 800154a:	f7ff febd 	bl	80012c8 <SPI_WaitFlagStateUntilTimeout.constprop.0>
 800154e:	2800      	cmp	r0, #0
 8001550:	d108      	bne.n	8001564 <SPI_EndRxTxTransaction+0x38>
 8001552:	21c0      	movs	r1, #192	; 0xc0
 8001554:	0033      	movs	r3, r6
 8001556:	002a      	movs	r2, r5
 8001558:	0020      	movs	r0, r4
 800155a:	00c9      	lsls	r1, r1, #3
 800155c:	f7ff ff16 	bl	800138c <SPI_WaitFifoStateUntilTimeout.constprop.0>
 8001560:	2800      	cmp	r0, #0
 8001562:	d004      	beq.n	800156e <SPI_EndRxTxTransaction+0x42>
 8001564:	2220      	movs	r2, #32
 8001566:	2003      	movs	r0, #3
 8001568:	6e23      	ldr	r3, [r4, #96]	; 0x60
 800156a:	4313      	orrs	r3, r2
 800156c:	6623      	str	r3, [r4, #96]	; 0x60
 800156e:	bd70      	pop	{r4, r5, r6, pc}

08001570 <HAL_SPI_Init>:
 8001570:	b5f0      	push	{r4, r5, r6, r7, lr}
 8001572:	46d6      	mov	lr, sl
 8001574:	464f      	mov	r7, r9
 8001576:	4646      	mov	r6, r8
 8001578:	0004      	movs	r4, r0
 800157a:	b5c0      	push	{r6, r7, lr}
 800157c:	2800      	cmp	r0, #0
 800157e:	d100      	bne.n	8001582 <HAL_SPI_Init+0x12>
 8001580:	e08e      	b.n	80016a0 <HAL_SPI_Init+0x130>
 8001582:	6a45      	ldr	r5, [r0, #36]	; 0x24
 8001584:	2d00      	cmp	r5, #0
 8001586:	d065      	beq.n	8001654 <HAL_SPI_Init+0xe4>
 8001588:	2300      	movs	r3, #0
 800158a:	6103      	str	r3, [r0, #16]
 800158c:	6143      	str	r3, [r0, #20]
 800158e:	2300      	movs	r3, #0
 8001590:	62a3      	str	r3, [r4, #40]	; 0x28
 8001592:	335d      	adds	r3, #93	; 0x5d
 8001594:	5ce3      	ldrb	r3, [r4, r3]
 8001596:	b2da      	uxtb	r2, r3
 8001598:	2b00      	cmp	r3, #0
 800159a:	d068      	beq.n	800166e <HAL_SPI_Init+0xfe>
 800159c:	235d      	movs	r3, #93	; 0x5d
 800159e:	2202      	movs	r2, #2
 80015a0:	2140      	movs	r1, #64	; 0x40
 80015a2:	54e2      	strb	r2, [r4, r3]
 80015a4:	6822      	ldr	r2, [r4, #0]
 80015a6:	68e0      	ldr	r0, [r4, #12]
 80015a8:	6813      	ldr	r3, [r2, #0]
 80015aa:	438b      	bics	r3, r1
 80015ac:	6013      	str	r3, [r2, #0]
 80015ae:	23e0      	movs	r3, #224	; 0xe0
 80015b0:	00db      	lsls	r3, r3, #3
 80015b2:	4298      	cmp	r0, r3
 80015b4:	d962      	bls.n	800167c <HAL_SPI_Init+0x10c>
 80015b6:	23f0      	movs	r3, #240	; 0xf0
 80015b8:	011b      	lsls	r3, r3, #4
 80015ba:	4298      	cmp	r0, r3
 80015bc:	d000      	beq.n	80015c0 <HAL_SPI_Init+0x50>
 80015be:	e071      	b.n	80016a4 <HAL_SPI_Init+0x134>
 80015c0:	2380      	movs	r3, #128	; 0x80
 80015c2:	6aa1      	ldr	r1, [r4, #40]	; 0x28
 80015c4:	019b      	lsls	r3, r3, #6
 80015c6:	4019      	ands	r1, r3
 80015c8:	2300      	movs	r3, #0
 80015ca:	468c      	mov	ip, r1
 80015cc:	469a      	mov	sl, r3
 80015ce:	2382      	movs	r3, #130	; 0x82
 80015d0:	6866      	ldr	r6, [r4, #4]
 80015d2:	005b      	lsls	r3, r3, #1
 80015d4:	4033      	ands	r3, r6
 80015d6:	2684      	movs	r6, #132	; 0x84
 80015d8:	68a7      	ldr	r7, [r4, #8]
 80015da:	0236      	lsls	r6, r6, #8
 80015dc:	403e      	ands	r6, r7
 80015de:	4333      	orrs	r3, r6
 80015e0:	2602      	movs	r6, #2
 80015e2:	6927      	ldr	r7, [r4, #16]
 80015e4:	69a1      	ldr	r1, [r4, #24]
 80015e6:	403e      	ands	r6, r7
 80015e8:	4333      	orrs	r3, r6
 80015ea:	2601      	movs	r6, #1
 80015ec:	6967      	ldr	r7, [r4, #20]
 80015ee:	46b1      	mov	r9, r6
 80015f0:	4037      	ands	r7, r6
 80015f2:	433b      	orrs	r3, r7
 80015f4:	2780      	movs	r7, #128	; 0x80
 80015f6:	00bf      	lsls	r7, r7, #2
 80015f8:	400f      	ands	r7, r1
 80015fa:	433b      	orrs	r3, r7
 80015fc:	2738      	movs	r7, #56	; 0x38
 80015fe:	69e6      	ldr	r6, [r4, #28]
 8001600:	0c09      	lsrs	r1, r1, #16
 8001602:	4037      	ands	r7, r6
 8001604:	2680      	movs	r6, #128	; 0x80
 8001606:	433b      	orrs	r3, r7
 8001608:	0037      	movs	r7, r6
 800160a:	6a26      	ldr	r6, [r4, #32]
 800160c:	4037      	ands	r7, r6
 800160e:	4666      	mov	r6, ip
 8001610:	433b      	orrs	r3, r7
 8001612:	4333      	orrs	r3, r6
 8001614:	6013      	str	r3, [r2, #0]
 8001616:	2308      	movs	r3, #8
 8001618:	6b66      	ldr	r6, [r4, #52]	; 0x34
 800161a:	4657      	mov	r7, sl
 800161c:	4033      	ands	r3, r6
 800161e:	26f0      	movs	r6, #240	; 0xf0
 8001620:	0136      	lsls	r6, r6, #4
 8001622:	4030      	ands	r0, r6
 8001624:	4318      	orrs	r0, r3
 8001626:	2304      	movs	r3, #4
 8001628:	4019      	ands	r1, r3
 800162a:	4301      	orrs	r1, r0
 800162c:	2010      	movs	r0, #16
 800162e:	4005      	ands	r5, r0
 8001630:	430d      	orrs	r5, r1
 8001632:	432f      	orrs	r7, r5
 8001634:	6057      	str	r7, [r2, #4]
 8001636:	69d3      	ldr	r3, [r2, #28]
 8001638:	491c      	ldr	r1, [pc, #112]	; (80016ac <HAL_SPI_Init+0x13c>)
 800163a:	2000      	movs	r0, #0
 800163c:	400b      	ands	r3, r1
 800163e:	61d3      	str	r3, [r2, #28]
 8001640:	2300      	movs	r3, #0
 8001642:	464a      	mov	r2, r9
 8001644:	6623      	str	r3, [r4, #96]	; 0x60
 8001646:	335d      	adds	r3, #93	; 0x5d
 8001648:	54e2      	strb	r2, [r4, r3]
 800164a:	bce0      	pop	{r5, r6, r7}
 800164c:	46ba      	mov	sl, r7
 800164e:	46b1      	mov	r9, r6
 8001650:	46a8      	mov	r8, r5
 8001652:	bdf0      	pop	{r4, r5, r6, r7, pc}
 8001654:	2382      	movs	r3, #130	; 0x82
 8001656:	6842      	ldr	r2, [r0, #4]
 8001658:	005b      	lsls	r3, r3, #1
 800165a:	429a      	cmp	r2, r3
 800165c:	d097      	beq.n	800158e <HAL_SPI_Init+0x1e>
 800165e:	2300      	movs	r3, #0
 8001660:	61c5      	str	r5, [r0, #28]
 8001662:	62a3      	str	r3, [r4, #40]	; 0x28
 8001664:	335d      	adds	r3, #93	; 0x5d
 8001666:	5ce3      	ldrb	r3, [r4, r3]
 8001668:	b2da      	uxtb	r2, r3
 800166a:	2b00      	cmp	r3, #0
 800166c:	d196      	bne.n	800159c <HAL_SPI_Init+0x2c>
 800166e:	335c      	adds	r3, #92	; 0x5c
 8001670:	0020      	movs	r0, r4
 8001672:	54e2      	strb	r2, [r4, r3]
 8001674:	f003 fcee 	bl	8005054 <HAL_SPI_MspInit>
 8001678:	6a65      	ldr	r5, [r4, #36]	; 0x24
 800167a:	e78f      	b.n	800159c <HAL_SPI_Init+0x2c>
 800167c:	4298      	cmp	r0, r3
 800167e:	d006      	beq.n	800168e <HAL_SPI_Init+0x11e>
 8001680:	2380      	movs	r3, #128	; 0x80
 8001682:	015b      	lsls	r3, r3, #5
 8001684:	469a      	mov	sl, r3
 8001686:	2300      	movs	r3, #0
 8001688:	469c      	mov	ip, r3
 800168a:	62a3      	str	r3, [r4, #40]	; 0x28
 800168c:	e79f      	b.n	80015ce <HAL_SPI_Init+0x5e>
 800168e:	2380      	movs	r3, #128	; 0x80
 8001690:	6aa1      	ldr	r1, [r4, #40]	; 0x28
 8001692:	019b      	lsls	r3, r3, #6
 8001694:	4019      	ands	r1, r3
 8001696:	2380      	movs	r3, #128	; 0x80
 8001698:	015b      	lsls	r3, r3, #5
 800169a:	468c      	mov	ip, r1
 800169c:	469a      	mov	sl, r3
 800169e:	e796      	b.n	80015ce <HAL_SPI_Init+0x5e>
 80016a0:	2001      	movs	r0, #1
 80016a2:	e7d2      	b.n	800164a <HAL_SPI_Init+0xda>
 80016a4:	2300      	movs	r3, #0
 80016a6:	469a      	mov	sl, r3
 80016a8:	e7ed      	b.n	8001686 <HAL_SPI_Init+0x116>
 80016aa:	46c0      	nop			; (mov r8, r8)
 80016ac:	fffff7ff 	.word	0xfffff7ff

080016b0 <HAL_SPI_Transmit>:
 80016b0:	b5f0      	push	{r4, r5, r6, r7, lr}
 80016b2:	46ce      	mov	lr, r9
 80016b4:	4647      	mov	r7, r8
 80016b6:	001d      	movs	r5, r3
 80016b8:	235c      	movs	r3, #92	; 0x5c
 80016ba:	b580      	push	{r7, lr}
 80016bc:	4691      	mov	r9, r2
 80016be:	5cc2      	ldrb	r2, [r0, r3]
 80016c0:	0004      	movs	r4, r0
 80016c2:	4688      	mov	r8, r1
 80016c4:	b083      	sub	sp, #12
 80016c6:	2a01      	cmp	r2, #1
 80016c8:	d064      	beq.n	8001794 <HAL_SPI_Transmit+0xe4>
 80016ca:	2201      	movs	r2, #1
 80016cc:	54c2      	strb	r2, [r0, r3]
 80016ce:	f7fe fec7 	bl	8000460 <HAL_GetTick>
 80016d2:	225d      	movs	r2, #93	; 0x5d
 80016d4:	5ca3      	ldrb	r3, [r4, r2]
 80016d6:	0006      	movs	r6, r0
 80016d8:	b2df      	uxtb	r7, r3
 80016da:	2b01      	cmp	r3, #1
 80016dc:	d009      	beq.n	80016f2 <HAL_SPI_Transmit+0x42>
 80016de:	2702      	movs	r7, #2
 80016e0:	235c      	movs	r3, #92	; 0x5c
 80016e2:	2200      	movs	r2, #0
 80016e4:	54e2      	strb	r2, [r4, r3]
 80016e6:	0038      	movs	r0, r7
 80016e8:	b003      	add	sp, #12
 80016ea:	bcc0      	pop	{r6, r7}
 80016ec:	46b9      	mov	r9, r7
 80016ee:	46b0      	mov	r8, r6
 80016f0:	bdf0      	pop	{r4, r5, r6, r7, pc}
 80016f2:	4643      	mov	r3, r8
 80016f4:	2b00      	cmp	r3, #0
 80016f6:	d0f3      	beq.n	80016e0 <HAL_SPI_Transmit+0x30>
 80016f8:	464b      	mov	r3, r9
 80016fa:	2b00      	cmp	r3, #0
 80016fc:	d0f0      	beq.n	80016e0 <HAL_SPI_Transmit+0x30>
 80016fe:	2303      	movs	r3, #3
 8001700:	54a3      	strb	r3, [r4, r2]
 8001702:	4642      	mov	r2, r8
 8001704:	2300      	movs	r3, #0
 8001706:	63a2      	str	r2, [r4, #56]	; 0x38
 8001708:	464a      	mov	r2, r9
 800170a:	6623      	str	r3, [r4, #96]	; 0x60
 800170c:	87a2      	strh	r2, [r4, #60]	; 0x3c
 800170e:	87e2      	strh	r2, [r4, #62]	; 0x3e
 8001710:	2244      	movs	r2, #68	; 0x44
 8001712:	6423      	str	r3, [r4, #64]	; 0x40
 8001714:	52a3      	strh	r3, [r4, r2]
 8001716:	3202      	adds	r2, #2
 8001718:	52a3      	strh	r3, [r4, r2]
 800171a:	6523      	str	r3, [r4, #80]	; 0x50
 800171c:	64e3      	str	r3, [r4, #76]	; 0x4c
 800171e:	2380      	movs	r3, #128	; 0x80
 8001720:	68a2      	ldr	r2, [r4, #8]
 8001722:	6820      	ldr	r0, [r4, #0]
 8001724:	021b      	lsls	r3, r3, #8
 8001726:	429a      	cmp	r2, r3
 8001728:	d05c      	beq.n	80017e4 <HAL_SPI_Transmit+0x134>
 800172a:	2340      	movs	r3, #64	; 0x40
 800172c:	6802      	ldr	r2, [r0, #0]
 800172e:	4213      	tst	r3, r2
 8001730:	d102      	bne.n	8001738 <HAL_SPI_Transmit+0x88>
 8001732:	6802      	ldr	r2, [r0, #0]
 8001734:	4313      	orrs	r3, r2
 8001736:	6003      	str	r3, [r0, #0]
 8001738:	23e0      	movs	r3, #224	; 0xe0
 800173a:	68e2      	ldr	r2, [r4, #12]
 800173c:	00db      	lsls	r3, r3, #3
 800173e:	429a      	cmp	r2, r3
 8001740:	d92a      	bls.n	8001798 <HAL_SPI_Transmit+0xe8>
 8001742:	6863      	ldr	r3, [r4, #4]
 8001744:	2b00      	cmp	r3, #0
 8001746:	d057      	beq.n	80017f8 <HAL_SPI_Transmit+0x148>
 8001748:	464b      	mov	r3, r9
 800174a:	2b01      	cmp	r3, #1
 800174c:	d054      	beq.n	80017f8 <HAL_SPI_Transmit+0x148>
 800174e:	2202      	movs	r2, #2
 8001750:	8fe3      	ldrh	r3, [r4, #62]	; 0x3e
 8001752:	4690      	mov	r8, r2
 8001754:	2b00      	cmp	r3, #0
 8001756:	d10d      	bne.n	8001774 <HAL_SPI_Transmit+0xc4>
 8001758:	e064      	b.n	8001824 <HAL_SPI_Transmit+0x174>
 800175a:	6ba3      	ldr	r3, [r4, #56]	; 0x38
 800175c:	881a      	ldrh	r2, [r3, #0]
 800175e:	3302      	adds	r3, #2
 8001760:	60c2      	str	r2, [r0, #12]
 8001762:	8fe2      	ldrh	r2, [r4, #62]	; 0x3e
 8001764:	63a3      	str	r3, [r4, #56]	; 0x38
 8001766:	3a01      	subs	r2, #1
 8001768:	b292      	uxth	r2, r2
 800176a:	87e2      	strh	r2, [r4, #62]	; 0x3e
 800176c:	8fe3      	ldrh	r3, [r4, #62]	; 0x3e
 800176e:	2b00      	cmp	r3, #0
 8001770:	d058      	beq.n	8001824 <HAL_SPI_Transmit+0x174>
 8001772:	6820      	ldr	r0, [r4, #0]
 8001774:	4642      	mov	r2, r8
 8001776:	6883      	ldr	r3, [r0, #8]
 8001778:	421a      	tst	r2, r3
 800177a:	d1ee      	bne.n	800175a <HAL_SPI_Transmit+0xaa>
 800177c:	f7fe fe70 	bl	8000460 <HAL_GetTick>
 8001780:	1b80      	subs	r0, r0, r6
 8001782:	42a8      	cmp	r0, r5
 8001784:	d3f2      	bcc.n	800176c <HAL_SPI_Transmit+0xbc>
 8001786:	1c6b      	adds	r3, r5, #1
 8001788:	d0f0      	beq.n	800176c <HAL_SPI_Transmit+0xbc>
 800178a:	235d      	movs	r3, #93	; 0x5d
 800178c:	2201      	movs	r2, #1
 800178e:	2703      	movs	r7, #3
 8001790:	54e2      	strb	r2, [r4, r3]
 8001792:	e7a5      	b.n	80016e0 <HAL_SPI_Transmit+0x30>
 8001794:	2702      	movs	r7, #2
 8001796:	e7a6      	b.n	80016e6 <HAL_SPI_Transmit+0x36>
 8001798:	6863      	ldr	r3, [r4, #4]
 800179a:	2b00      	cmp	r3, #0
 800179c:	d037      	beq.n	800180e <HAL_SPI_Transmit+0x15e>
 800179e:	464b      	mov	r3, r9
 80017a0:	2b01      	cmp	r3, #1
 80017a2:	d034      	beq.n	800180e <HAL_SPI_Transmit+0x15e>
 80017a4:	8fe3      	ldrh	r3, [r4, #62]	; 0x3e
 80017a6:	2b00      	cmp	r3, #0
 80017a8:	d03c      	beq.n	8001824 <HAL_SPI_Transmit+0x174>
 80017aa:	2302      	movs	r3, #2
 80017ac:	4698      	mov	r8, r3
 80017ae:	e00c      	b.n	80017ca <HAL_SPI_Transmit+0x11a>
 80017b0:	6ba2      	ldr	r2, [r4, #56]	; 0x38
 80017b2:	7812      	ldrb	r2, [r2, #0]
 80017b4:	731a      	strb	r2, [r3, #12]
 80017b6:	8fe2      	ldrh	r2, [r4, #62]	; 0x3e
 80017b8:	6ba3      	ldr	r3, [r4, #56]	; 0x38
 80017ba:	3a01      	subs	r2, #1
 80017bc:	3301      	adds	r3, #1
 80017be:	b292      	uxth	r2, r2
 80017c0:	63a3      	str	r3, [r4, #56]	; 0x38
 80017c2:	87e2      	strh	r2, [r4, #62]	; 0x3e
 80017c4:	8fe3      	ldrh	r3, [r4, #62]	; 0x3e
 80017c6:	2b00      	cmp	r3, #0
 80017c8:	d02c      	beq.n	8001824 <HAL_SPI_Transmit+0x174>
 80017ca:	4641      	mov	r1, r8
 80017cc:	6823      	ldr	r3, [r4, #0]
 80017ce:	689a      	ldr	r2, [r3, #8]
 80017d0:	4211      	tst	r1, r2
 80017d2:	d1ed      	bne.n	80017b0 <HAL_SPI_Transmit+0x100>
 80017d4:	f7fe fe44 	bl	8000460 <HAL_GetTick>
 80017d8:	1b80      	subs	r0, r0, r6
 80017da:	42a8      	cmp	r0, r5
 80017dc:	d3f2      	bcc.n	80017c4 <HAL_SPI_Transmit+0x114>
 80017de:	1c6b      	adds	r3, r5, #1
 80017e0:	d0f0      	beq.n	80017c4 <HAL_SPI_Transmit+0x114>
 80017e2:	e7d2      	b.n	800178a <HAL_SPI_Transmit+0xda>
 80017e4:	2240      	movs	r2, #64	; 0x40
 80017e6:	6803      	ldr	r3, [r0, #0]
 80017e8:	4393      	bics	r3, r2
 80017ea:	6003      	str	r3, [r0, #0]
 80017ec:	2380      	movs	r3, #128	; 0x80
 80017ee:	6802      	ldr	r2, [r0, #0]
 80017f0:	01db      	lsls	r3, r3, #7
 80017f2:	4313      	orrs	r3, r2
 80017f4:	6003      	str	r3, [r0, #0]
 80017f6:	e798      	b.n	800172a <HAL_SPI_Transmit+0x7a>
 80017f8:	4643      	mov	r3, r8
 80017fa:	881b      	ldrh	r3, [r3, #0]
 80017fc:	60c3      	str	r3, [r0, #12]
 80017fe:	4643      	mov	r3, r8
 8001800:	1c99      	adds	r1, r3, #2
 8001802:	8fe3      	ldrh	r3, [r4, #62]	; 0x3e
 8001804:	63a1      	str	r1, [r4, #56]	; 0x38
 8001806:	3b01      	subs	r3, #1
 8001808:	b29b      	uxth	r3, r3
 800180a:	87e3      	strh	r3, [r4, #62]	; 0x3e
 800180c:	e79f      	b.n	800174e <HAL_SPI_Transmit+0x9e>
 800180e:	4643      	mov	r3, r8
 8001810:	781b      	ldrb	r3, [r3, #0]
 8001812:	7303      	strb	r3, [r0, #12]
 8001814:	6ba3      	ldr	r3, [r4, #56]	; 0x38
 8001816:	3301      	adds	r3, #1
 8001818:	63a3      	str	r3, [r4, #56]	; 0x38
 800181a:	8fe3      	ldrh	r3, [r4, #62]	; 0x3e
 800181c:	3b01      	subs	r3, #1
 800181e:	b29b      	uxth	r3, r3
 8001820:	87e3      	strh	r3, [r4, #62]	; 0x3e
 8001822:	e7bf      	b.n	80017a4 <HAL_SPI_Transmit+0xf4>
 8001824:	0032      	movs	r2, r6
 8001826:	0029      	movs	r1, r5
 8001828:	0020      	movs	r0, r4
 800182a:	f7ff fe7f 	bl	800152c <SPI_EndRxTxTransaction>
 800182e:	2800      	cmp	r0, #0
 8001830:	d001      	beq.n	8001836 <HAL_SPI_Transmit+0x186>
 8001832:	2320      	movs	r3, #32
 8001834:	6623      	str	r3, [r4, #96]	; 0x60
 8001836:	68a3      	ldr	r3, [r4, #8]
 8001838:	2b00      	cmp	r3, #0
 800183a:	d106      	bne.n	800184a <HAL_SPI_Transmit+0x19a>
 800183c:	9301      	str	r3, [sp, #4]
 800183e:	6823      	ldr	r3, [r4, #0]
 8001840:	68da      	ldr	r2, [r3, #12]
 8001842:	9201      	str	r2, [sp, #4]
 8001844:	689b      	ldr	r3, [r3, #8]
 8001846:	9301      	str	r3, [sp, #4]
 8001848:	9b01      	ldr	r3, [sp, #4]
 800184a:	6e23      	ldr	r3, [r4, #96]	; 0x60
 800184c:	2b00      	cmp	r3, #0
 800184e:	d000      	beq.n	8001852 <HAL_SPI_Transmit+0x1a2>
 8001850:	e746      	b.n	80016e0 <HAL_SPI_Transmit+0x30>
 8001852:	2201      	movs	r2, #1
 8001854:	335d      	adds	r3, #93	; 0x5d
 8001856:	2700      	movs	r7, #0
 8001858:	54e2      	strb	r2, [r4, r3]
 800185a:	e741      	b.n	80016e0 <HAL_SPI_Transmit+0x30>

0800185c <HAL_SPI_TransmitReceive>:
 800185c:	b5f8      	push	{r3, r4, r5, r6, r7, lr}
 800185e:	4647      	mov	r7, r8
 8001860:	46ce      	mov	lr, r9
 8001862:	b580      	push	{r7, lr}
 8001864:	001f      	movs	r7, r3
 8001866:	235c      	movs	r3, #92	; 0x5c
 8001868:	4691      	mov	r9, r2
 800186a:	5cc2      	ldrb	r2, [r0, r3]
 800186c:	0004      	movs	r4, r0
 800186e:	4688      	mov	r8, r1
 8001870:	9d08      	ldr	r5, [sp, #32]
 8001872:	2a01      	cmp	r2, #1
 8001874:	d100      	bne.n	8001878 <HAL_SPI_TransmitReceive+0x1c>
 8001876:	e0a7      	b.n	80019c8 <HAL_SPI_TransmitReceive+0x16c>
 8001878:	2201      	movs	r2, #1
 800187a:	54c2      	strb	r2, [r0, r3]
 800187c:	f7fe fdf0 	bl	8000460 <HAL_GetTick>
 8001880:	235d      	movs	r3, #93	; 0x5d
 8001882:	5ce3      	ldrb	r3, [r4, r3]
 8001884:	0006      	movs	r6, r0
 8001886:	6862      	ldr	r2, [r4, #4]
 8001888:	b2d9      	uxtb	r1, r3
 800188a:	2b01      	cmp	r3, #1
 800188c:	d010      	beq.n	80018b0 <HAL_SPI_TransmitReceive+0x54>
 800188e:	2382      	movs	r3, #130	; 0x82
 8001890:	2002      	movs	r0, #2
 8001892:	005b      	lsls	r3, r3, #1
 8001894:	429a      	cmp	r2, r3
 8001896:	d006      	beq.n	80018a6 <HAL_SPI_TransmitReceive+0x4a>
 8001898:	235c      	movs	r3, #92	; 0x5c
 800189a:	2200      	movs	r2, #0
 800189c:	54e2      	strb	r2, [r4, r3]
 800189e:	bcc0      	pop	{r6, r7}
 80018a0:	46b9      	mov	r9, r7
 80018a2:	46b0      	mov	r8, r6
 80018a4:	bdf8      	pop	{r3, r4, r5, r6, r7, pc}
 80018a6:	68a3      	ldr	r3, [r4, #8]
 80018a8:	2b00      	cmp	r3, #0
 80018aa:	d1f5      	bne.n	8001898 <HAL_SPI_TransmitReceive+0x3c>
 80018ac:	2904      	cmp	r1, #4
 80018ae:	d1f3      	bne.n	8001898 <HAL_SPI_TransmitReceive+0x3c>
 80018b0:	4643      	mov	r3, r8
 80018b2:	2b00      	cmp	r3, #0
 80018b4:	d100      	bne.n	80018b8 <HAL_SPI_TransmitReceive+0x5c>
 80018b6:	e085      	b.n	80019c4 <HAL_SPI_TransmitReceive+0x168>
 80018b8:	464b      	mov	r3, r9
 80018ba:	2b00      	cmp	r3, #0
 80018bc:	d100      	bne.n	80018c0 <HAL_SPI_TransmitReceive+0x64>
 80018be:	e081      	b.n	80019c4 <HAL_SPI_TransmitReceive+0x168>
 80018c0:	2f00      	cmp	r7, #0
 80018c2:	d100      	bne.n	80018c6 <HAL_SPI_TransmitReceive+0x6a>
 80018c4:	e07e      	b.n	80019c4 <HAL_SPI_TransmitReceive+0x168>
 80018c6:	235d      	movs	r3, #93	; 0x5d
 80018c8:	5ce1      	ldrb	r1, [r4, r3]
 80018ca:	2904      	cmp	r1, #4
 80018cc:	d001      	beq.n	80018d2 <HAL_SPI_TransmitReceive+0x76>
 80018ce:	2105      	movs	r1, #5
 80018d0:	54e1      	strb	r1, [r4, r3]
 80018d2:	4649      	mov	r1, r9
 80018d4:	2300      	movs	r3, #0
 80018d6:	6421      	str	r1, [r4, #64]	; 0x40
 80018d8:	2146      	movs	r1, #70	; 0x46
 80018da:	6623      	str	r3, [r4, #96]	; 0x60
 80018dc:	5267      	strh	r7, [r4, r1]
 80018de:	3902      	subs	r1, #2
 80018e0:	5267      	strh	r7, [r4, r1]
 80018e2:	4641      	mov	r1, r8
 80018e4:	64e3      	str	r3, [r4, #76]	; 0x4c
 80018e6:	6523      	str	r3, [r4, #80]	; 0x50
 80018e8:	23e0      	movs	r3, #224	; 0xe0
 80018ea:	63a1      	str	r1, [r4, #56]	; 0x38
 80018ec:	68e1      	ldr	r1, [r4, #12]
 80018ee:	87e7      	strh	r7, [r4, #62]	; 0x3e
 80018f0:	87a7      	strh	r7, [r4, #60]	; 0x3c
 80018f2:	00db      	lsls	r3, r3, #3
 80018f4:	4299      	cmp	r1, r3
 80018f6:	d969      	bls.n	80019cc <HAL_SPI_TransmitReceive+0x170>
 80018f8:	6823      	ldr	r3, [r4, #0]
 80018fa:	4866      	ldr	r0, [pc, #408]	; (8001a94 <HAL_SPI_TransmitReceive+0x238>)
 80018fc:	6859      	ldr	r1, [r3, #4]
 80018fe:	4001      	ands	r1, r0
 8001900:	6059      	str	r1, [r3, #4]
 8001902:	2140      	movs	r1, #64	; 0x40
 8001904:	6818      	ldr	r0, [r3, #0]
 8001906:	4201      	tst	r1, r0
 8001908:	d102      	bne.n	8001910 <HAL_SPI_TransmitReceive+0xb4>
 800190a:	6818      	ldr	r0, [r3, #0]
 800190c:	4301      	orrs	r1, r0
 800190e:	6019      	str	r1, [r3, #0]
 8001910:	2a00      	cmp	r2, #0
 8001912:	d000      	beq.n	8001916 <HAL_SPI_TransmitReceive+0xba>
 8001914:	e0b5      	b.n	8001a82 <HAL_SPI_TransmitReceive+0x226>
 8001916:	4642      	mov	r2, r8
 8001918:	8812      	ldrh	r2, [r2, #0]
 800191a:	60da      	str	r2, [r3, #12]
 800191c:	4643      	mov	r3, r8
 800191e:	1c99      	adds	r1, r3, #2
 8001920:	8fe3      	ldrh	r3, [r4, #62]	; 0x3e
 8001922:	63a1      	str	r1, [r4, #56]	; 0x38
 8001924:	3b01      	subs	r3, #1
 8001926:	b29b      	uxth	r3, r3
 8001928:	87e3      	strh	r3, [r4, #62]	; 0x3e
 800192a:	2301      	movs	r3, #1
 800192c:	4699      	mov	r9, r3
 800192e:	3301      	adds	r3, #1
 8001930:	2746      	movs	r7, #70	; 0x46
 8001932:	4698      	mov	r8, r3
 8001934:	8fe3      	ldrh	r3, [r4, #62]	; 0x3e
 8001936:	2b00      	cmp	r3, #0
 8001938:	d102      	bne.n	8001940 <HAL_SPI_TransmitReceive+0xe4>
 800193a:	5be3      	ldrh	r3, [r4, r7]
 800193c:	2b00      	cmp	r3, #0
 800193e:	d034      	beq.n	80019aa <HAL_SPI_TransmitReceive+0x14e>
 8001940:	4641      	mov	r1, r8
 8001942:	6823      	ldr	r3, [r4, #0]
 8001944:	689a      	ldr	r2, [r3, #8]
 8001946:	4211      	tst	r1, r2
 8001948:	d010      	beq.n	800196c <HAL_SPI_TransmitReceive+0x110>
 800194a:	8fe2      	ldrh	r2, [r4, #62]	; 0x3e
 800194c:	2a00      	cmp	r2, #0
 800194e:	d00d      	beq.n	800196c <HAL_SPI_TransmitReceive+0x110>
 8001950:	464a      	mov	r2, r9
 8001952:	2a01      	cmp	r2, #1
 8001954:	d10a      	bne.n	800196c <HAL_SPI_TransmitReceive+0x110>
 8001956:	6ba2      	ldr	r2, [r4, #56]	; 0x38
 8001958:	8811      	ldrh	r1, [r2, #0]
 800195a:	3202      	adds	r2, #2
 800195c:	60d9      	str	r1, [r3, #12]
 800195e:	63a2      	str	r2, [r4, #56]	; 0x38
 8001960:	8fe2      	ldrh	r2, [r4, #62]	; 0x3e
 8001962:	3a01      	subs	r2, #1
 8001964:	b292      	uxth	r2, r2
 8001966:	87e2      	strh	r2, [r4, #62]	; 0x3e
 8001968:	2200      	movs	r2, #0
 800196a:	4691      	mov	r9, r2
 800196c:	2101      	movs	r1, #1
 800196e:	0008      	movs	r0, r1
 8001970:	689a      	ldr	r2, [r3, #8]
 8001972:	4010      	ands	r0, r2
 8001974:	4211      	tst	r1, r2
 8001976:	d00c      	beq.n	8001992 <HAL_SPI_TransmitReceive+0x136>
 8001978:	5be2      	ldrh	r2, [r4, r7]
 800197a:	2a00      	cmp	r2, #0
 800197c:	d009      	beq.n	8001992 <HAL_SPI_TransmitReceive+0x136>
 800197e:	4681      	mov	r9, r0
 8001980:	68da      	ldr	r2, [r3, #12]
 8001982:	6c23      	ldr	r3, [r4, #64]	; 0x40
 8001984:	801a      	strh	r2, [r3, #0]
 8001986:	3302      	adds	r3, #2
 8001988:	6423      	str	r3, [r4, #64]	; 0x40
 800198a:	5be3      	ldrh	r3, [r4, r7]
 800198c:	3b01      	subs	r3, #1
 800198e:	b29b      	uxth	r3, r3
 8001990:	53e3      	strh	r3, [r4, r7]
 8001992:	f7fe fd65 	bl	8000460 <HAL_GetTick>
 8001996:	1b80      	subs	r0, r0, r6
 8001998:	42a8      	cmp	r0, r5
 800199a:	d3cb      	bcc.n	8001934 <HAL_SPI_TransmitReceive+0xd8>
 800199c:	1c6b      	adds	r3, r5, #1
 800199e:	d0c9      	beq.n	8001934 <HAL_SPI_TransmitReceive+0xd8>
 80019a0:	235d      	movs	r3, #93	; 0x5d
 80019a2:	2201      	movs	r2, #1
 80019a4:	2003      	movs	r0, #3
 80019a6:	54e2      	strb	r2, [r4, r3]
 80019a8:	e776      	b.n	8001898 <HAL_SPI_TransmitReceive+0x3c>
 80019aa:	0032      	movs	r2, r6
 80019ac:	0029      	movs	r1, r5
 80019ae:	0020      	movs	r0, r4
 80019b0:	f7ff fdbc 	bl	800152c <SPI_EndRxTxTransaction>
 80019b4:	2800      	cmp	r0, #0
 80019b6:	d002      	beq.n	80019be <HAL_SPI_TransmitReceive+0x162>
 80019b8:	2320      	movs	r3, #32
 80019ba:	2001      	movs	r0, #1
 80019bc:	6623      	str	r3, [r4, #96]	; 0x60
 80019be:	6e23      	ldr	r3, [r4, #96]	; 0x60
 80019c0:	2b00      	cmp	r3, #0
 80019c2:	d062      	beq.n	8001a8a <HAL_SPI_TransmitReceive+0x22e>
 80019c4:	2001      	movs	r0, #1
 80019c6:	e767      	b.n	8001898 <HAL_SPI_TransmitReceive+0x3c>
 80019c8:	2002      	movs	r0, #2
 80019ca:	e768      	b.n	800189e <HAL_SPI_TransmitReceive+0x42>
 80019cc:	2180      	movs	r1, #128	; 0x80
 80019ce:	6823      	ldr	r3, [r4, #0]
 80019d0:	0149      	lsls	r1, r1, #5
 80019d2:	6858      	ldr	r0, [r3, #4]
 80019d4:	4301      	orrs	r1, r0
 80019d6:	6059      	str	r1, [r3, #4]
 80019d8:	2140      	movs	r1, #64	; 0x40
 80019da:	6818      	ldr	r0, [r3, #0]
 80019dc:	4201      	tst	r1, r0
 80019de:	d102      	bne.n	80019e6 <HAL_SPI_TransmitReceive+0x18a>
 80019e0:	6818      	ldr	r0, [r3, #0]
 80019e2:	4301      	orrs	r1, r0
 80019e4:	6019      	str	r1, [r3, #0]
 80019e6:	2a00      	cmp	r2, #0
 80019e8:	d148      	bne.n	8001a7c <HAL_SPI_TransmitReceive+0x220>
 80019ea:	4642      	mov	r2, r8
 80019ec:	7812      	ldrb	r2, [r2, #0]
 80019ee:	731a      	strb	r2, [r3, #12]
 80019f0:	6ba3      	ldr	r3, [r4, #56]	; 0x38
 80019f2:	3301      	adds	r3, #1
 80019f4:	63a3      	str	r3, [r4, #56]	; 0x38
 80019f6:	8fe3      	ldrh	r3, [r4, #62]	; 0x3e
 80019f8:	3b01      	subs	r3, #1
 80019fa:	b29b      	uxth	r3, r3
 80019fc:	87e3      	strh	r3, [r4, #62]	; 0x3e
 80019fe:	2301      	movs	r3, #1
 8001a00:	4699      	mov	r9, r3
 8001a02:	3301      	adds	r3, #1
 8001a04:	2746      	movs	r7, #70	; 0x46
 8001a06:	4698      	mov	r8, r3
 8001a08:	8fe3      	ldrh	r3, [r4, #62]	; 0x3e
 8001a0a:	2b00      	cmp	r3, #0
 8001a0c:	d102      	bne.n	8001a14 <HAL_SPI_TransmitReceive+0x1b8>
 8001a0e:	5be3      	ldrh	r3, [r4, r7]
 8001a10:	2b00      	cmp	r3, #0
 8001a12:	d0ca      	beq.n	80019aa <HAL_SPI_TransmitReceive+0x14e>
 8001a14:	4641      	mov	r1, r8
 8001a16:	6823      	ldr	r3, [r4, #0]
 8001a18:	689a      	ldr	r2, [r3, #8]
 8001a1a:	4211      	tst	r1, r2
 8001a1c:	d012      	beq.n	8001a44 <HAL_SPI_TransmitReceive+0x1e8>
 8001a1e:	8fe2      	ldrh	r2, [r4, #62]	; 0x3e
 8001a20:	2a00      	cmp	r2, #0
 8001a22:	d00f      	beq.n	8001a44 <HAL_SPI_TransmitReceive+0x1e8>
 8001a24:	464a      	mov	r2, r9
 8001a26:	2a01      	cmp	r2, #1
 8001a28:	d10c      	bne.n	8001a44 <HAL_SPI_TransmitReceive+0x1e8>
 8001a2a:	6ba2      	ldr	r2, [r4, #56]	; 0x38
 8001a2c:	7812      	ldrb	r2, [r2, #0]
 8001a2e:	731a      	strb	r2, [r3, #12]
 8001a30:	2200      	movs	r2, #0
 8001a32:	4691      	mov	r9, r2
 8001a34:	6ba3      	ldr	r3, [r4, #56]	; 0x38
 8001a36:	3301      	adds	r3, #1
 8001a38:	63a3      	str	r3, [r4, #56]	; 0x38
 8001a3a:	8fe3      	ldrh	r3, [r4, #62]	; 0x3e
 8001a3c:	3b01      	subs	r3, #1
 8001a3e:	b29b      	uxth	r3, r3
 8001a40:	87e3      	strh	r3, [r4, #62]	; 0x3e
 8001a42:	6823      	ldr	r3, [r4, #0]
 8001a44:	2101      	movs	r1, #1
 8001a46:	0008      	movs	r0, r1
 8001a48:	689a      	ldr	r2, [r3, #8]
 8001a4a:	4010      	ands	r0, r2
 8001a4c:	4211      	tst	r1, r2
 8001a4e:	d00d      	beq.n	8001a6c <HAL_SPI_TransmitReceive+0x210>
 8001a50:	5be2      	ldrh	r2, [r4, r7]
 8001a52:	2a00      	cmp	r2, #0
 8001a54:	d00a      	beq.n	8001a6c <HAL_SPI_TransmitReceive+0x210>
 8001a56:	4681      	mov	r9, r0
 8001a58:	7b1b      	ldrb	r3, [r3, #12]
 8001a5a:	6c22      	ldr	r2, [r4, #64]	; 0x40
 8001a5c:	7013      	strb	r3, [r2, #0]
 8001a5e:	6c23      	ldr	r3, [r4, #64]	; 0x40
 8001a60:	3301      	adds	r3, #1
 8001a62:	6423      	str	r3, [r4, #64]	; 0x40
 8001a64:	5be3      	ldrh	r3, [r4, r7]
 8001a66:	3b01      	subs	r3, #1
 8001a68:	b29b      	uxth	r3, r3
 8001a6a:	53e3      	strh	r3, [r4, r7]
 8001a6c:	f7fe fcf8 	bl	8000460 <HAL_GetTick>
 8001a70:	1b80      	subs	r0, r0, r6
 8001a72:	42a8      	cmp	r0, r5
 8001a74:	d3c8      	bcc.n	8001a08 <HAL_SPI_TransmitReceive+0x1ac>
 8001a76:	1c6b      	adds	r3, r5, #1
 8001a78:	d0c6      	beq.n	8001a08 <HAL_SPI_TransmitReceive+0x1ac>
 8001a7a:	e791      	b.n	80019a0 <HAL_SPI_TransmitReceive+0x144>
 8001a7c:	2f01      	cmp	r7, #1
 8001a7e:	d1be      	bne.n	80019fe <HAL_SPI_TransmitReceive+0x1a2>
 8001a80:	e7b3      	b.n	80019ea <HAL_SPI_TransmitReceive+0x18e>
 8001a82:	2f01      	cmp	r7, #1
 8001a84:	d000      	beq.n	8001a88 <HAL_SPI_TransmitReceive+0x22c>
 8001a86:	e750      	b.n	800192a <HAL_SPI_TransmitReceive+0xce>
 8001a88:	e745      	b.n	8001916 <HAL_SPI_TransmitReceive+0xba>
 8001a8a:	2201      	movs	r2, #1
 8001a8c:	335d      	adds	r3, #93	; 0x5d
 8001a8e:	54e2      	strb	r2, [r4, r3]
 8001a90:	e702      	b.n	8001898 <HAL_SPI_TransmitReceive+0x3c>
 8001a92:	46c0      	nop			; (mov r8, r8)
 8001a94:	ffffefff 	.word	0xffffefff

08001a98 <HAL_SPI_Receive>:
 8001a98:	b5f0      	push	{r4, r5, r6, r7, lr}
 8001a9a:	46ce      	mov	lr, r9
 8001a9c:	4647      	mov	r7, r8
 8001a9e:	0016      	movs	r6, r2
 8001aa0:	225d      	movs	r2, #93	; 0x5d
 8001aa2:	b580      	push	{r7, lr}
 8001aa4:	001d      	movs	r5, r3
 8001aa6:	5c83      	ldrb	r3, [r0, r2]
 8001aa8:	0004      	movs	r4, r0
 8001aaa:	4689      	mov	r9, r1
 8001aac:	b083      	sub	sp, #12
 8001aae:	b2df      	uxtb	r7, r3
 8001ab0:	2b01      	cmp	r3, #1
 8001ab2:	d16d      	bne.n	8001b90 <HAL_SPI_Receive+0xf8>
 8001ab4:	3304      	adds	r3, #4
 8001ab6:	6841      	ldr	r1, [r0, #4]
 8001ab8:	33ff      	adds	r3, #255	; 0xff
 8001aba:	4299      	cmp	r1, r3
 8001abc:	d100      	bne.n	8001ac0 <HAL_SPI_Receive+0x28>
 8001abe:	e071      	b.n	8001ba4 <HAL_SPI_Receive+0x10c>
 8001ac0:	235c      	movs	r3, #92	; 0x5c
 8001ac2:	5ce2      	ldrb	r2, [r4, r3]
 8001ac4:	2a01      	cmp	r2, #1
 8001ac6:	d100      	bne.n	8001aca <HAL_SPI_Receive+0x32>
 8001ac8:	e08b      	b.n	8001be2 <HAL_SPI_Receive+0x14a>
 8001aca:	2201      	movs	r2, #1
 8001acc:	54e2      	strb	r2, [r4, r3]
 8001ace:	f7fe fcc7 	bl	8000460 <HAL_GetTick>
 8001ad2:	464b      	mov	r3, r9
 8001ad4:	4680      	mov	r8, r0
 8001ad6:	2b00      	cmp	r3, #0
 8001ad8:	d05b      	beq.n	8001b92 <HAL_SPI_Receive+0xfa>
 8001ada:	2e00      	cmp	r6, #0
 8001adc:	d059      	beq.n	8001b92 <HAL_SPI_Receive+0xfa>
 8001ade:	235d      	movs	r3, #93	; 0x5d
 8001ae0:	2204      	movs	r2, #4
 8001ae2:	54e2      	strb	r2, [r4, r3]
 8001ae4:	464a      	mov	r2, r9
 8001ae6:	2300      	movs	r3, #0
 8001ae8:	6422      	str	r2, [r4, #64]	; 0x40
 8001aea:	2244      	movs	r2, #68	; 0x44
 8001aec:	6623      	str	r3, [r4, #96]	; 0x60
 8001aee:	52a6      	strh	r6, [r4, r2]
 8001af0:	3202      	adds	r2, #2
 8001af2:	52a6      	strh	r6, [r4, r2]
 8001af4:	22e0      	movs	r2, #224	; 0xe0
 8001af6:	63a3      	str	r3, [r4, #56]	; 0x38
 8001af8:	87a3      	strh	r3, [r4, #60]	; 0x3c
 8001afa:	87e3      	strh	r3, [r4, #62]	; 0x3e
 8001afc:	64e3      	str	r3, [r4, #76]	; 0x4c
 8001afe:	6523      	str	r3, [r4, #80]	; 0x50
 8001b00:	68e3      	ldr	r3, [r4, #12]
 8001b02:	00d2      	lsls	r2, r2, #3
 8001b04:	4293      	cmp	r3, r2
 8001b06:	d800      	bhi.n	8001b0a <HAL_SPI_Receive+0x72>
 8001b08:	e090      	b.n	8001c2c <HAL_SPI_Receive+0x194>
 8001b0a:	6822      	ldr	r2, [r4, #0]
 8001b0c:	484b      	ldr	r0, [pc, #300]	; (8001c3c <HAL_SPI_Receive+0x1a4>)
 8001b0e:	6851      	ldr	r1, [r2, #4]
 8001b10:	4001      	ands	r1, r0
 8001b12:	6051      	str	r1, [r2, #4]
 8001b14:	2180      	movs	r1, #128	; 0x80
 8001b16:	68a0      	ldr	r0, [r4, #8]
 8001b18:	0209      	lsls	r1, r1, #8
 8001b1a:	4288      	cmp	r0, r1
 8001b1c:	d107      	bne.n	8001b2e <HAL_SPI_Receive+0x96>
 8001b1e:	2040      	movs	r0, #64	; 0x40
 8001b20:	6811      	ldr	r1, [r2, #0]
 8001b22:	4381      	bics	r1, r0
 8001b24:	6011      	str	r1, [r2, #0]
 8001b26:	6811      	ldr	r1, [r2, #0]
 8001b28:	4845      	ldr	r0, [pc, #276]	; (8001c40 <HAL_SPI_Receive+0x1a8>)
 8001b2a:	4001      	ands	r1, r0
 8001b2c:	6011      	str	r1, [r2, #0]
 8001b2e:	2140      	movs	r1, #64	; 0x40
 8001b30:	6810      	ldr	r0, [r2, #0]
 8001b32:	4201      	tst	r1, r0
 8001b34:	d102      	bne.n	8001b3c <HAL_SPI_Receive+0xa4>
 8001b36:	6810      	ldr	r0, [r2, #0]
 8001b38:	4301      	orrs	r1, r0
 8001b3a:	6011      	str	r1, [r2, #0]
 8001b3c:	21e0      	movs	r1, #224	; 0xe0
 8001b3e:	00c9      	lsls	r1, r1, #3
 8001b40:	428b      	cmp	r3, r1
 8001b42:	d950      	bls.n	8001be6 <HAL_SPI_Receive+0x14e>
 8001b44:	2346      	movs	r3, #70	; 0x46
 8001b46:	2101      	movs	r1, #1
 8001b48:	5ae3      	ldrh	r3, [r4, r3]
 8001b4a:	4689      	mov	r9, r1
 8001b4c:	2646      	movs	r6, #70	; 0x46
 8001b4e:	2b00      	cmp	r3, #0
 8001b50:	d10d      	bne.n	8001b6e <HAL_SPI_Receive+0xd6>
 8001b52:	e035      	b.n	8001bc0 <HAL_SPI_Receive+0x128>
 8001b54:	68d2      	ldr	r2, [r2, #12]
 8001b56:	6c23      	ldr	r3, [r4, #64]	; 0x40
 8001b58:	801a      	strh	r2, [r3, #0]
 8001b5a:	3302      	adds	r3, #2
 8001b5c:	6423      	str	r3, [r4, #64]	; 0x40
 8001b5e:	5ba2      	ldrh	r2, [r4, r6]
 8001b60:	3a01      	subs	r2, #1
 8001b62:	b292      	uxth	r2, r2
 8001b64:	53a2      	strh	r2, [r4, r6]
 8001b66:	5ba3      	ldrh	r3, [r4, r6]
 8001b68:	2b00      	cmp	r3, #0
 8001b6a:	d029      	beq.n	8001bc0 <HAL_SPI_Receive+0x128>
 8001b6c:	6822      	ldr	r2, [r4, #0]
 8001b6e:	4649      	mov	r1, r9
 8001b70:	6893      	ldr	r3, [r2, #8]
 8001b72:	4219      	tst	r1, r3
 8001b74:	d1ee      	bne.n	8001b54 <HAL_SPI_Receive+0xbc>
 8001b76:	f7fe fc73 	bl	8000460 <HAL_GetTick>
 8001b7a:	4643      	mov	r3, r8
 8001b7c:	1ac0      	subs	r0, r0, r3
 8001b7e:	42a8      	cmp	r0, r5
 8001b80:	d3f1      	bcc.n	8001b66 <HAL_SPI_Receive+0xce>
 8001b82:	1c6b      	adds	r3, r5, #1
 8001b84:	d0ef      	beq.n	8001b66 <HAL_SPI_Receive+0xce>
 8001b86:	235d      	movs	r3, #93	; 0x5d
 8001b88:	464a      	mov	r2, r9
 8001b8a:	2703      	movs	r7, #3
 8001b8c:	54e2      	strb	r2, [r4, r3]
 8001b8e:	e000      	b.n	8001b92 <HAL_SPI_Receive+0xfa>
 8001b90:	2702      	movs	r7, #2
 8001b92:	235c      	movs	r3, #92	; 0x5c
 8001b94:	2200      	movs	r2, #0
 8001b96:	54e2      	strb	r2, [r4, r3]
 8001b98:	0038      	movs	r0, r7
 8001b9a:	b003      	add	sp, #12
 8001b9c:	bcc0      	pop	{r6, r7}
 8001b9e:	46b9      	mov	r9, r7
 8001ba0:	46b0      	mov	r8, r6
 8001ba2:	bdf0      	pop	{r4, r5, r6, r7, pc}
 8001ba4:	6883      	ldr	r3, [r0, #8]
 8001ba6:	2b00      	cmp	r3, #0
 8001ba8:	d000      	beq.n	8001bac <HAL_SPI_Receive+0x114>
 8001baa:	e789      	b.n	8001ac0 <HAL_SPI_Receive+0x28>
 8001bac:	3304      	adds	r3, #4
 8001bae:	5483      	strb	r3, [r0, r2]
 8001bb0:	4649      	mov	r1, r9
 8001bb2:	0033      	movs	r3, r6
 8001bb4:	464a      	mov	r2, r9
 8001bb6:	9500      	str	r5, [sp, #0]
 8001bb8:	f7ff fe50 	bl	800185c <HAL_SPI_TransmitReceive>
 8001bbc:	0007      	movs	r7, r0
 8001bbe:	e7eb      	b.n	8001b98 <HAL_SPI_Receive+0x100>
 8001bc0:	4642      	mov	r2, r8
 8001bc2:	0029      	movs	r1, r5
 8001bc4:	0020      	movs	r0, r4
 8001bc6:	f7ff fc6b 	bl	80014a0 <SPI_EndRxTransaction>
 8001bca:	2800      	cmp	r0, #0
 8001bcc:	d001      	beq.n	8001bd2 <HAL_SPI_Receive+0x13a>
 8001bce:	2320      	movs	r3, #32
 8001bd0:	6623      	str	r3, [r4, #96]	; 0x60
 8001bd2:	6e23      	ldr	r3, [r4, #96]	; 0x60
 8001bd4:	2b00      	cmp	r3, #0
 8001bd6:	d1dc      	bne.n	8001b92 <HAL_SPI_Receive+0xfa>
 8001bd8:	2201      	movs	r2, #1
 8001bda:	335d      	adds	r3, #93	; 0x5d
 8001bdc:	2700      	movs	r7, #0
 8001bde:	54e2      	strb	r2, [r4, r3]
 8001be0:	e7d7      	b.n	8001b92 <HAL_SPI_Receive+0xfa>
 8001be2:	2702      	movs	r7, #2
 8001be4:	e7d8      	b.n	8001b98 <HAL_SPI_Receive+0x100>
 8001be6:	2346      	movs	r3, #70	; 0x46
 8001be8:	5ae3      	ldrh	r3, [r4, r3]
 8001bea:	2b00      	cmp	r3, #0
 8001bec:	d0e8      	beq.n	8001bc0 <HAL_SPI_Receive+0x128>
 8001bee:	2301      	movs	r3, #1
 8001bf0:	2646      	movs	r6, #70	; 0x46
 8001bf2:	4699      	mov	r9, r3
 8001bf4:	e00d      	b.n	8001c12 <HAL_SPI_Receive+0x17a>
 8001bf6:	7b13      	ldrb	r3, [r2, #12]
 8001bf8:	6c22      	ldr	r2, [r4, #64]	; 0x40
 8001bfa:	7013      	strb	r3, [r2, #0]
 8001bfc:	6c23      	ldr	r3, [r4, #64]	; 0x40
 8001bfe:	3301      	adds	r3, #1
 8001c00:	6423      	str	r3, [r4, #64]	; 0x40
 8001c02:	5ba3      	ldrh	r3, [r4, r6]
 8001c04:	3b01      	subs	r3, #1
 8001c06:	b29b      	uxth	r3, r3
 8001c08:	53a3      	strh	r3, [r4, r6]
 8001c0a:	5ba3      	ldrh	r3, [r4, r6]
 8001c0c:	2b00      	cmp	r3, #0
 8001c0e:	d0d7      	beq.n	8001bc0 <HAL_SPI_Receive+0x128>
 8001c10:	6822      	ldr	r2, [r4, #0]
 8001c12:	4649      	mov	r1, r9
 8001c14:	6893      	ldr	r3, [r2, #8]
 8001c16:	4219      	tst	r1, r3
 8001c18:	d1ed      	bne.n	8001bf6 <HAL_SPI_Receive+0x15e>
 8001c1a:	f7fe fc21 	bl	8000460 <HAL_GetTick>
 8001c1e:	4643      	mov	r3, r8
 8001c20:	1ac0      	subs	r0, r0, r3
 8001c22:	42a8      	cmp	r0, r5
 8001c24:	d3f1      	bcc.n	8001c0a <HAL_SPI_Receive+0x172>
 8001c26:	1c6b      	adds	r3, r5, #1
 8001c28:	d0ef      	beq.n	8001c0a <HAL_SPI_Receive+0x172>
 8001c2a:	e7ac      	b.n	8001b86 <HAL_SPI_Receive+0xee>
 8001c2c:	2180      	movs	r1, #128	; 0x80
 8001c2e:	6822      	ldr	r2, [r4, #0]
 8001c30:	0149      	lsls	r1, r1, #5
 8001c32:	6850      	ldr	r0, [r2, #4]
 8001c34:	4301      	orrs	r1, r0
 8001c36:	6051      	str	r1, [r2, #4]
 8001c38:	e76c      	b.n	8001b14 <HAL_SPI_Receive+0x7c>
 8001c3a:	46c0      	nop			; (mov r8, r8)
 8001c3c:	ffffefff 	.word	0xffffefff
 8001c40:	ffffbfff 	.word	0xffffbfff

08001c44 <HAL_TIM_Base_Start_IT>:
 8001c44:	223d      	movs	r2, #61	; 0x3d
 8001c46:	5c81      	ldrb	r1, [r0, r2]
 8001c48:	0003      	movs	r3, r0
 8001c4a:	2001      	movs	r0, #1
 8001c4c:	2901      	cmp	r1, #1
 8001c4e:	d112      	bne.n	8001c76 <HAL_TIM_Base_Start_IT+0x32>
 8001c50:	3101      	adds	r1, #1
 8001c52:	5499      	strb	r1, [r3, r2]
 8001c54:	681b      	ldr	r3, [r3, #0]
 8001c56:	68da      	ldr	r2, [r3, #12]
 8001c58:	4302      	orrs	r2, r0
 8001c5a:	60da      	str	r2, [r3, #12]
 8001c5c:	4a0d      	ldr	r2, [pc, #52]	; (8001c94 <HAL_TIM_Base_Start_IT+0x50>)
 8001c5e:	4293      	cmp	r3, r2
 8001c60:	d00a      	beq.n	8001c78 <HAL_TIM_Base_Start_IT+0x34>
 8001c62:	4a0d      	ldr	r2, [pc, #52]	; (8001c98 <HAL_TIM_Base_Start_IT+0x54>)
 8001c64:	4293      	cmp	r3, r2
 8001c66:	d007      	beq.n	8001c78 <HAL_TIM_Base_Start_IT+0x34>
 8001c68:	4a0c      	ldr	r2, [pc, #48]	; (8001c9c <HAL_TIM_Base_Start_IT+0x58>)
 8001c6a:	4293      	cmp	r3, r2
 8001c6c:	d004      	beq.n	8001c78 <HAL_TIM_Base_Start_IT+0x34>
 8001c6e:	681a      	ldr	r2, [r3, #0]
 8001c70:	4310      	orrs	r0, r2
 8001c72:	6018      	str	r0, [r3, #0]
 8001c74:	2000      	movs	r0, #0
 8001c76:	4770      	bx	lr
 8001c78:	2207      	movs	r2, #7
 8001c7a:	6899      	ldr	r1, [r3, #8]
 8001c7c:	400a      	ands	r2, r1
 8001c7e:	2a06      	cmp	r2, #6
 8001c80:	d005      	beq.n	8001c8e <HAL_TIM_Base_Start_IT+0x4a>
 8001c82:	2101      	movs	r1, #1
 8001c84:	681a      	ldr	r2, [r3, #0]
 8001c86:	2000      	movs	r0, #0
 8001c88:	430a      	orrs	r2, r1
 8001c8a:	601a      	str	r2, [r3, #0]
 8001c8c:	e7f3      	b.n	8001c76 <HAL_TIM_Base_Start_IT+0x32>
 8001c8e:	2000      	movs	r0, #0
 8001c90:	e7f1      	b.n	8001c76 <HAL_TIM_Base_Start_IT+0x32>
 8001c92:	46c0      	nop			; (mov r8, r8)
 8001c94:	40012c00 	.word	0x40012c00
 8001c98:	40000400 	.word	0x40000400
 8001c9c:	40014000 	.word	0x40014000

08001ca0 <HAL_TIM_Base_Stop_IT>:
 8001ca0:	2101      	movs	r1, #1
 8001ca2:	6803      	ldr	r3, [r0, #0]
 8001ca4:	b510      	push	{r4, lr}
 8001ca6:	68da      	ldr	r2, [r3, #12]
 8001ca8:	438a      	bics	r2, r1
 8001caa:	60da      	str	r2, [r3, #12]
 8001cac:	6a1c      	ldr	r4, [r3, #32]
 8001cae:	4a07      	ldr	r2, [pc, #28]	; (8001ccc <HAL_TIM_Base_Stop_IT+0x2c>)
 8001cb0:	4214      	tst	r4, r2
 8001cb2:	d106      	bne.n	8001cc2 <HAL_TIM_Base_Stop_IT+0x22>
 8001cb4:	6a1c      	ldr	r4, [r3, #32]
 8001cb6:	4a06      	ldr	r2, [pc, #24]	; (8001cd0 <HAL_TIM_Base_Stop_IT+0x30>)
 8001cb8:	4214      	tst	r4, r2
 8001cba:	d102      	bne.n	8001cc2 <HAL_TIM_Base_Stop_IT+0x22>
 8001cbc:	681a      	ldr	r2, [r3, #0]
 8001cbe:	438a      	bics	r2, r1
 8001cc0:	601a      	str	r2, [r3, #0]
 8001cc2:	233d      	movs	r3, #61	; 0x3d
 8001cc4:	2201      	movs	r2, #1
 8001cc6:	54c2      	strb	r2, [r0, r3]
 8001cc8:	2000      	movs	r0, #0
 8001cca:	bd10      	pop	{r4, pc}
 8001ccc:	00001111 	.word	0x00001111
 8001cd0:	00000444 	.word	0x00000444

08001cd4 <HAL_TIM_OC_DelayElapsedCallback>:
 8001cd4:	4770      	bx	lr
 8001cd6:	46c0      	nop			; (mov r8, r8)

08001cd8 <HAL_TIM_IC_CaptureCallback>:
 8001cd8:	4770      	bx	lr
 8001cda:	46c0      	nop			; (mov r8, r8)

08001cdc <HAL_TIM_PWM_PulseFinishedCallback>:
 8001cdc:	4770      	bx	lr
 8001cde:	46c0      	nop			; (mov r8, r8)

08001ce0 <HAL_TIM_TriggerCallback>:
 8001ce0:	4770      	bx	lr
 8001ce2:	46c0      	nop			; (mov r8, r8)

08001ce4 <HAL_TIM_IRQHandler>:
 8001ce4:	2202      	movs	r2, #2
 8001ce6:	6803      	ldr	r3, [r0, #0]
 8001ce8:	b510      	push	{r4, lr}
 8001cea:	6919      	ldr	r1, [r3, #16]
 8001cec:	0004      	movs	r4, r0
 8001cee:	420a      	tst	r2, r1
 8001cf0:	d002      	beq.n	8001cf8 <HAL_TIM_IRQHandler+0x14>
 8001cf2:	68d9      	ldr	r1, [r3, #12]
 8001cf4:	420a      	tst	r2, r1
 8001cf6:	d165      	bne.n	8001dc4 <HAL_TIM_IRQHandler+0xe0>
 8001cf8:	2204      	movs	r2, #4
 8001cfa:	6919      	ldr	r1, [r3, #16]
 8001cfc:	420a      	tst	r2, r1
 8001cfe:	d002      	beq.n	8001d06 <HAL_TIM_IRQHandler+0x22>
 8001d00:	68d9      	ldr	r1, [r3, #12]
 8001d02:	420a      	tst	r2, r1
 8001d04:	d14b      	bne.n	8001d9e <HAL_TIM_IRQHandler+0xba>
 8001d06:	2208      	movs	r2, #8
 8001d08:	6919      	ldr	r1, [r3, #16]
 8001d0a:	420a      	tst	r2, r1
 8001d0c:	d002      	beq.n	8001d14 <HAL_TIM_IRQHandler+0x30>
 8001d0e:	68d9      	ldr	r1, [r3, #12]
 8001d10:	420a      	tst	r2, r1
 8001d12:	d133      	bne.n	8001d7c <HAL_TIM_IRQHandler+0x98>
 8001d14:	2210      	movs	r2, #16
 8001d16:	6919      	ldr	r1, [r3, #16]
 8001d18:	420a      	tst	r2, r1
 8001d1a:	d002      	beq.n	8001d22 <HAL_TIM_IRQHandler+0x3e>
 8001d1c:	68d9      	ldr	r1, [r3, #12]
 8001d1e:	420a      	tst	r2, r1
 8001d20:	d11c      	bne.n	8001d5c <HAL_TIM_IRQHandler+0x78>
 8001d22:	2201      	movs	r2, #1
 8001d24:	6919      	ldr	r1, [r3, #16]
 8001d26:	420a      	tst	r2, r1
 8001d28:	d002      	beq.n	8001d30 <HAL_TIM_IRQHandler+0x4c>
 8001d2a:	68d9      	ldr	r1, [r3, #12]
 8001d2c:	420a      	tst	r2, r1
 8001d2e:	d15c      	bne.n	8001dea <HAL_TIM_IRQHandler+0x106>
 8001d30:	2280      	movs	r2, #128	; 0x80
 8001d32:	6919      	ldr	r1, [r3, #16]
 8001d34:	420a      	tst	r2, r1
 8001d36:	d002      	beq.n	8001d3e <HAL_TIM_IRQHandler+0x5a>
 8001d38:	68d9      	ldr	r1, [r3, #12]
 8001d3a:	420a      	tst	r2, r1
 8001d3c:	d15c      	bne.n	8001df8 <HAL_TIM_IRQHandler+0x114>
 8001d3e:	2240      	movs	r2, #64	; 0x40
 8001d40:	6919      	ldr	r1, [r3, #16]
 8001d42:	420a      	tst	r2, r1
 8001d44:	d002      	beq.n	8001d4c <HAL_TIM_IRQHandler+0x68>
 8001d46:	68d9      	ldr	r1, [r3, #12]
 8001d48:	420a      	tst	r2, r1
 8001d4a:	d15d      	bne.n	8001e08 <HAL_TIM_IRQHandler+0x124>
 8001d4c:	2220      	movs	r2, #32
 8001d4e:	6919      	ldr	r1, [r3, #16]
 8001d50:	420a      	tst	r2, r1
 8001d52:	d002      	beq.n	8001d5a <HAL_TIM_IRQHandler+0x76>
 8001d54:	68d9      	ldr	r1, [r3, #12]
 8001d56:	420a      	tst	r2, r1
 8001d58:	d141      	bne.n	8001dde <HAL_TIM_IRQHandler+0xfa>
 8001d5a:	bd10      	pop	{r4, pc}
 8001d5c:	3a21      	subs	r2, #33	; 0x21
 8001d5e:	611a      	str	r2, [r3, #16]
 8001d60:	3219      	adds	r2, #25
 8001d62:	7722      	strb	r2, [r4, #28]
 8001d64:	69da      	ldr	r2, [r3, #28]
 8001d66:	23c0      	movs	r3, #192	; 0xc0
 8001d68:	009b      	lsls	r3, r3, #2
 8001d6a:	0020      	movs	r0, r4
 8001d6c:	421a      	tst	r2, r3
 8001d6e:	d05e      	beq.n	8001e2e <HAL_TIM_IRQHandler+0x14a>
 8001d70:	f7ff ffb2 	bl	8001cd8 <HAL_TIM_IC_CaptureCallback>
 8001d74:	2300      	movs	r3, #0
 8001d76:	7723      	strb	r3, [r4, #28]
 8001d78:	6823      	ldr	r3, [r4, #0]
 8001d7a:	e7d2      	b.n	8001d22 <HAL_TIM_IRQHandler+0x3e>
 8001d7c:	3a11      	subs	r2, #17
 8001d7e:	611a      	str	r2, [r3, #16]
 8001d80:	320d      	adds	r2, #13
 8001d82:	7722      	strb	r2, [r4, #28]
 8001d84:	69db      	ldr	r3, [r3, #28]
 8001d86:	0020      	movs	r0, r4
 8001d88:	079b      	lsls	r3, r3, #30
 8001d8a:	d14d      	bne.n	8001e28 <HAL_TIM_IRQHandler+0x144>
 8001d8c:	f7ff ffa2 	bl	8001cd4 <HAL_TIM_OC_DelayElapsedCallback>
 8001d90:	0020      	movs	r0, r4
 8001d92:	f7ff ffa3 	bl	8001cdc <HAL_TIM_PWM_PulseFinishedCallback>
 8001d96:	2300      	movs	r3, #0
 8001d98:	7723      	strb	r3, [r4, #28]
 8001d9a:	6823      	ldr	r3, [r4, #0]
 8001d9c:	e7ba      	b.n	8001d14 <HAL_TIM_IRQHandler+0x30>
 8001d9e:	3a09      	subs	r2, #9
 8001da0:	611a      	str	r2, [r3, #16]
 8001da2:	3207      	adds	r2, #7
 8001da4:	7722      	strb	r2, [r4, #28]
 8001da6:	699a      	ldr	r2, [r3, #24]
 8001da8:	23c0      	movs	r3, #192	; 0xc0
 8001daa:	009b      	lsls	r3, r3, #2
 8001dac:	0020      	movs	r0, r4
 8001dae:	421a      	tst	r2, r3
 8001db0:	d137      	bne.n	8001e22 <HAL_TIM_IRQHandler+0x13e>
 8001db2:	f7ff ff8f 	bl	8001cd4 <HAL_TIM_OC_DelayElapsedCallback>
 8001db6:	0020      	movs	r0, r4
 8001db8:	f7ff ff90 	bl	8001cdc <HAL_TIM_PWM_PulseFinishedCallback>
 8001dbc:	2300      	movs	r3, #0
 8001dbe:	7723      	strb	r3, [r4, #28]
 8001dc0:	6823      	ldr	r3, [r4, #0]
 8001dc2:	e7a0      	b.n	8001d06 <HAL_TIM_IRQHandler+0x22>
 8001dc4:	3a05      	subs	r2, #5
 8001dc6:	611a      	str	r2, [r3, #16]
 8001dc8:	3204      	adds	r2, #4
 8001dca:	7702      	strb	r2, [r0, #28]
 8001dcc:	699b      	ldr	r3, [r3, #24]
 8001dce:	079b      	lsls	r3, r3, #30
 8001dd0:	d021      	beq.n	8001e16 <HAL_TIM_IRQHandler+0x132>
 8001dd2:	f7ff ff81 	bl	8001cd8 <HAL_TIM_IC_CaptureCallback>
 8001dd6:	2300      	movs	r3, #0
 8001dd8:	7723      	strb	r3, [r4, #28]
 8001dda:	6823      	ldr	r3, [r4, #0]
 8001ddc:	e78c      	b.n	8001cf8 <HAL_TIM_IRQHandler+0x14>
 8001dde:	3a41      	subs	r2, #65	; 0x41
 8001de0:	0020      	movs	r0, r4
 8001de2:	611a      	str	r2, [r3, #16]
 8001de4:	f000 f8a0 	bl	8001f28 <HAL_TIMEx_CommutCallback>
 8001de8:	e7b7      	b.n	8001d5a <HAL_TIM_IRQHandler+0x76>
 8001dea:	3a03      	subs	r2, #3
 8001dec:	611a      	str	r2, [r3, #16]
 8001dee:	0020      	movs	r0, r4
 8001df0:	f003 f8a6 	bl	8004f40 <HAL_TIM_PeriodElapsedCallback>
 8001df4:	6823      	ldr	r3, [r4, #0]
 8001df6:	e79b      	b.n	8001d30 <HAL_TIM_IRQHandler+0x4c>
 8001df8:	3a02      	subs	r2, #2
 8001dfa:	3aff      	subs	r2, #255	; 0xff
 8001dfc:	611a      	str	r2, [r3, #16]
 8001dfe:	0020      	movs	r0, r4
 8001e00:	f000 f894 	bl	8001f2c <HAL_TIMEx_BreakCallback>
 8001e04:	6823      	ldr	r3, [r4, #0]
 8001e06:	e79a      	b.n	8001d3e <HAL_TIM_IRQHandler+0x5a>
 8001e08:	3a81      	subs	r2, #129	; 0x81
 8001e0a:	611a      	str	r2, [r3, #16]
 8001e0c:	0020      	movs	r0, r4
 8001e0e:	f7ff ff67 	bl	8001ce0 <HAL_TIM_TriggerCallback>
 8001e12:	6823      	ldr	r3, [r4, #0]
 8001e14:	e79a      	b.n	8001d4c <HAL_TIM_IRQHandler+0x68>
 8001e16:	f7ff ff5d 	bl	8001cd4 <HAL_TIM_OC_DelayElapsedCallback>
 8001e1a:	0020      	movs	r0, r4
 8001e1c:	f7ff ff5e 	bl	8001cdc <HAL_TIM_PWM_PulseFinishedCallback>
 8001e20:	e7d9      	b.n	8001dd6 <HAL_TIM_IRQHandler+0xf2>
 8001e22:	f7ff ff59 	bl	8001cd8 <HAL_TIM_IC_CaptureCallback>
 8001e26:	e7c9      	b.n	8001dbc <HAL_TIM_IRQHandler+0xd8>
 8001e28:	f7ff ff56 	bl	8001cd8 <HAL_TIM_IC_CaptureCallback>
 8001e2c:	e7b3      	b.n	8001d96 <HAL_TIM_IRQHandler+0xb2>
 8001e2e:	f7ff ff51 	bl	8001cd4 <HAL_TIM_OC_DelayElapsedCallback>
 8001e32:	0020      	movs	r0, r4
 8001e34:	f7ff ff52 	bl	8001cdc <HAL_TIM_PWM_PulseFinishedCallback>
 8001e38:	e79c      	b.n	8001d74 <HAL_TIM_IRQHandler+0x90>
 8001e3a:	46c0      	nop			; (mov r8, r8)

08001e3c <TIM_Base_SetConfig>:
 8001e3c:	4a1d      	ldr	r2, [pc, #116]	; (8001eb4 <TIM_Base_SetConfig+0x78>)
 8001e3e:	6803      	ldr	r3, [r0, #0]
 8001e40:	4290      	cmp	r0, r2
 8001e42:	d023      	beq.n	8001e8c <TIM_Base_SetConfig+0x50>
 8001e44:	4a1c      	ldr	r2, [pc, #112]	; (8001eb8 <TIM_Base_SetConfig+0x7c>)
 8001e46:	4290      	cmp	r0, r2
 8001e48:	d017      	beq.n	8001e7a <TIM_Base_SetConfig+0x3e>
 8001e4a:	4a1c      	ldr	r2, [pc, #112]	; (8001ebc <TIM_Base_SetConfig+0x80>)
 8001e4c:	4290      	cmp	r0, r2
 8001e4e:	d018      	beq.n	8001e82 <TIM_Base_SetConfig+0x46>
 8001e50:	4a1b      	ldr	r2, [pc, #108]	; (8001ec0 <TIM_Base_SetConfig+0x84>)
 8001e52:	4290      	cmp	r0, r2
 8001e54:	d01e      	beq.n	8001e94 <TIM_Base_SetConfig+0x58>
 8001e56:	4a1b      	ldr	r2, [pc, #108]	; (8001ec4 <TIM_Base_SetConfig+0x88>)
 8001e58:	4290      	cmp	r0, r2
 8001e5a:	d01b      	beq.n	8001e94 <TIM_Base_SetConfig+0x58>
 8001e5c:	4a1a      	ldr	r2, [pc, #104]	; (8001ec8 <TIM_Base_SetConfig+0x8c>)
 8001e5e:	4290      	cmp	r0, r2
 8001e60:	d018      	beq.n	8001e94 <TIM_Base_SetConfig+0x58>
 8001e62:	2280      	movs	r2, #128	; 0x80
 8001e64:	4393      	bics	r3, r2
 8001e66:	694a      	ldr	r2, [r1, #20]
 8001e68:	4313      	orrs	r3, r2
 8001e6a:	6003      	str	r3, [r0, #0]
 8001e6c:	688b      	ldr	r3, [r1, #8]
 8001e6e:	62c3      	str	r3, [r0, #44]	; 0x2c
 8001e70:	680b      	ldr	r3, [r1, #0]
 8001e72:	6283      	str	r3, [r0, #40]	; 0x28
 8001e74:	2301      	movs	r3, #1
 8001e76:	6143      	str	r3, [r0, #20]
 8001e78:	4770      	bx	lr
 8001e7a:	2270      	movs	r2, #112	; 0x70
 8001e7c:	4393      	bics	r3, r2
 8001e7e:	684a      	ldr	r2, [r1, #4]
 8001e80:	4313      	orrs	r3, r2
 8001e82:	4a12      	ldr	r2, [pc, #72]	; (8001ecc <TIM_Base_SetConfig+0x90>)
 8001e84:	4013      	ands	r3, r2
 8001e86:	68ca      	ldr	r2, [r1, #12]
 8001e88:	4313      	orrs	r3, r2
 8001e8a:	e7ea      	b.n	8001e62 <TIM_Base_SetConfig+0x26>
 8001e8c:	2270      	movs	r2, #112	; 0x70
 8001e8e:	4393      	bics	r3, r2
 8001e90:	684a      	ldr	r2, [r1, #4]
 8001e92:	4313      	orrs	r3, r2
 8001e94:	4a0d      	ldr	r2, [pc, #52]	; (8001ecc <TIM_Base_SetConfig+0x90>)
 8001e96:	4013      	ands	r3, r2
 8001e98:	68ca      	ldr	r2, [r1, #12]
 8001e9a:	4313      	orrs	r3, r2
 8001e9c:	2280      	movs	r2, #128	; 0x80
 8001e9e:	4393      	bics	r3, r2
 8001ea0:	694a      	ldr	r2, [r1, #20]
 8001ea2:	4313      	orrs	r3, r2
 8001ea4:	6003      	str	r3, [r0, #0]
 8001ea6:	688b      	ldr	r3, [r1, #8]
 8001ea8:	62c3      	str	r3, [r0, #44]	; 0x2c
 8001eaa:	680b      	ldr	r3, [r1, #0]
 8001eac:	6283      	str	r3, [r0, #40]	; 0x28
 8001eae:	690b      	ldr	r3, [r1, #16]
 8001eb0:	6303      	str	r3, [r0, #48]	; 0x30
 8001eb2:	e7df      	b.n	8001e74 <TIM_Base_SetConfig+0x38>
 8001eb4:	40012c00 	.word	0x40012c00
 8001eb8:	40000400 	.word	0x40000400
 8001ebc:	40002000 	.word	0x40002000
 8001ec0:	40014000 	.word	0x40014000
 8001ec4:	40014400 	.word	0x40014400
 8001ec8:	40014800 	.word	0x40014800
 8001ecc:	fffffcff 	.word	0xfffffcff

08001ed0 <HAL_TIM_Base_Init>:
 8001ed0:	b570      	push	{r4, r5, r6, lr}
 8001ed2:	1e04      	subs	r4, r0, #0
 8001ed4:	d026      	beq.n	8001f24 <HAL_TIM_Base_Init+0x54>
 8001ed6:	233d      	movs	r3, #61	; 0x3d
 8001ed8:	5cc3      	ldrb	r3, [r0, r3]
 8001eda:	b2da      	uxtb	r2, r3
 8001edc:	2b00      	cmp	r3, #0
 8001ede:	d01c      	beq.n	8001f1a <HAL_TIM_Base_Init+0x4a>
 8001ee0:	2302      	movs	r3, #2
 8001ee2:	253d      	movs	r5, #61	; 0x3d
 8001ee4:	0021      	movs	r1, r4
 8001ee6:	5563      	strb	r3, [r4, r5]
 8001ee8:	c901      	ldmia	r1!, {r0}
 8001eea:	f7ff ffa7 	bl	8001e3c <TIM_Base_SetConfig>
 8001eee:	2301      	movs	r3, #1
 8001ef0:	2246      	movs	r2, #70	; 0x46
 8001ef2:	2000      	movs	r0, #0
 8001ef4:	54a3      	strb	r3, [r4, r2]
 8001ef6:	3a08      	subs	r2, #8
 8001ef8:	54a3      	strb	r3, [r4, r2]
 8001efa:	3201      	adds	r2, #1
 8001efc:	54a3      	strb	r3, [r4, r2]
 8001efe:	3201      	adds	r2, #1
 8001f00:	54a3      	strb	r3, [r4, r2]
 8001f02:	3201      	adds	r2, #1
 8001f04:	54a3      	strb	r3, [r4, r2]
 8001f06:	3201      	adds	r2, #1
 8001f08:	54a3      	strb	r3, [r4, r2]
 8001f0a:	3201      	adds	r2, #1
 8001f0c:	54a3      	strb	r3, [r4, r2]
 8001f0e:	3201      	adds	r2, #1
 8001f10:	54a3      	strb	r3, [r4, r2]
 8001f12:	3201      	adds	r2, #1
 8001f14:	54a3      	strb	r3, [r4, r2]
 8001f16:	5563      	strb	r3, [r4, r5]
 8001f18:	bd70      	pop	{r4, r5, r6, pc}
 8001f1a:	333c      	adds	r3, #60	; 0x3c
 8001f1c:	54c2      	strb	r2, [r0, r3]
 8001f1e:	f003 f8cf 	bl	80050c0 <HAL_TIM_Base_MspInit>
 8001f22:	e7dd      	b.n	8001ee0 <HAL_TIM_Base_Init+0x10>
 8001f24:	2001      	movs	r0, #1
 8001f26:	e7f7      	b.n	8001f18 <HAL_TIM_Base_Init+0x48>

08001f28 <HAL_TIMEx_CommutCallback>:
 8001f28:	4770      	bx	lr
 8001f2a:	46c0      	nop			; (mov r8, r8)

08001f2c <HAL_TIMEx_BreakCallback>:
 8001f2c:	4770      	bx	lr
 8001f2e:	46c0      	nop			; (mov r8, r8)

08001f30 <UART_EndRxTransfer>:
 8001f30:	b530      	push	{r4, r5, lr}
 8001f32:	f3ef 8410 	mrs	r4, PRIMASK
 8001f36:	2201      	movs	r2, #1
 8001f38:	f382 8810 	msr	PRIMASK, r2
 8001f3c:	6801      	ldr	r1, [r0, #0]
 8001f3e:	4d12      	ldr	r5, [pc, #72]	; (8001f88 <UART_EndRxTransfer+0x58>)
 8001f40:	680b      	ldr	r3, [r1, #0]
 8001f42:	402b      	ands	r3, r5
 8001f44:	600b      	str	r3, [r1, #0]
 8001f46:	f384 8810 	msr	PRIMASK, r4
 8001f4a:	f3ef 8410 	mrs	r4, PRIMASK
 8001f4e:	f382 8810 	msr	PRIMASK, r2
 8001f52:	6801      	ldr	r1, [r0, #0]
 8001f54:	688b      	ldr	r3, [r1, #8]
 8001f56:	4393      	bics	r3, r2
 8001f58:	608b      	str	r3, [r1, #8]
 8001f5a:	f384 8810 	msr	PRIMASK, r4
 8001f5e:	6e03      	ldr	r3, [r0, #96]	; 0x60
 8001f60:	2b01      	cmp	r3, #1
 8001f62:	d10a      	bne.n	8001f7a <UART_EndRxTransfer+0x4a>
 8001f64:	f3ef 8110 	mrs	r1, PRIMASK
 8001f68:	f383 8810 	msr	PRIMASK, r3
 8001f6c:	2410      	movs	r4, #16
 8001f6e:	6802      	ldr	r2, [r0, #0]
 8001f70:	6813      	ldr	r3, [r2, #0]
 8001f72:	43a3      	bics	r3, r4
 8001f74:	6013      	str	r3, [r2, #0]
 8001f76:	f381 8810 	msr	PRIMASK, r1
 8001f7a:	2380      	movs	r3, #128	; 0x80
 8001f7c:	2220      	movs	r2, #32
 8001f7e:	50c2      	str	r2, [r0, r3]
 8001f80:	2300      	movs	r3, #0
 8001f82:	6603      	str	r3, [r0, #96]	; 0x60
 8001f84:	6683      	str	r3, [r0, #104]	; 0x68
 8001f86:	bd30      	pop	{r4, r5, pc}
 8001f88:	fffffedf 	.word	0xfffffedf

08001f8c <HAL_UART_TxCpltCallback>:
 8001f8c:	4770      	bx	lr
 8001f8e:	46c0      	nop			; (mov r8, r8)

08001f90 <HAL_UART_RxCpltCallback>:
 8001f90:	4770      	bx	lr
 8001f92:	46c0      	nop			; (mov r8, r8)

08001f94 <HAL_UART_RxHalfCpltCallback>:
 8001f94:	4770      	bx	lr
 8001f96:	46c0      	nop			; (mov r8, r8)

08001f98 <UART_DMAError>:
 8001f98:	2280      	movs	r2, #128	; 0x80
 8001f9a:	b570      	push	{r4, r5, r6, lr}
 8001f9c:	6a44      	ldr	r4, [r0, #36]	; 0x24
 8001f9e:	6823      	ldr	r3, [r4, #0]
 8001fa0:	6fe5      	ldr	r5, [r4, #124]	; 0x7c
 8001fa2:	58a0      	ldr	r0, [r4, r2]
 8001fa4:	6899      	ldr	r1, [r3, #8]
 8001fa6:	420a      	tst	r2, r1
 8001fa8:	d001      	beq.n	8001fae <UART_DMAError+0x16>
 8001faa:	2d21      	cmp	r5, #33	; 0x21
 8001fac:	d00d      	beq.n	8001fca <UART_DMAError+0x32>
 8001fae:	689b      	ldr	r3, [r3, #8]
 8001fb0:	065b      	lsls	r3, r3, #25
 8001fb2:	d501      	bpl.n	8001fb8 <UART_DMAError+0x20>
 8001fb4:	2822      	cmp	r0, #34	; 0x22
 8001fb6:	d01b      	beq.n	8001ff0 <UART_DMAError+0x58>
 8001fb8:	2284      	movs	r2, #132	; 0x84
 8001fba:	2110      	movs	r1, #16
 8001fbc:	58a3      	ldr	r3, [r4, r2]
 8001fbe:	0020      	movs	r0, r4
 8001fc0:	430b      	orrs	r3, r1
 8001fc2:	50a3      	str	r3, [r4, r2]
 8001fc4:	f002 f904 	bl	80041d0 <HAL_UART_ErrorCallback>
 8001fc8:	bd70      	pop	{r4, r5, r6, pc}
 8001fca:	2352      	movs	r3, #82	; 0x52
 8001fcc:	2200      	movs	r2, #0
 8001fce:	52e2      	strh	r2, [r4, r3]
 8001fd0:	f3ef 8110 	mrs	r1, PRIMASK
 8001fd4:	3b51      	subs	r3, #81	; 0x51
 8001fd6:	f383 8810 	msr	PRIMASK, r3
 8001fda:	6822      	ldr	r2, [r4, #0]
 8001fdc:	359f      	adds	r5, #159	; 0x9f
 8001fde:	6813      	ldr	r3, [r2, #0]
 8001fe0:	43ab      	bics	r3, r5
 8001fe2:	6013      	str	r3, [r2, #0]
 8001fe4:	f381 8810 	msr	PRIMASK, r1
 8001fe8:	2320      	movs	r3, #32
 8001fea:	67e3      	str	r3, [r4, #124]	; 0x7c
 8001fec:	6823      	ldr	r3, [r4, #0]
 8001fee:	e7de      	b.n	8001fae <UART_DMAError+0x16>
 8001ff0:	235a      	movs	r3, #90	; 0x5a
 8001ff2:	2200      	movs	r2, #0
 8001ff4:	0020      	movs	r0, r4
 8001ff6:	52e2      	strh	r2, [r4, r3]
 8001ff8:	f7ff ff9a 	bl	8001f30 <UART_EndRxTransfer>
 8001ffc:	e7dc      	b.n	8001fb8 <UART_DMAError+0x20>
 8001ffe:	46c0      	nop			; (mov r8, r8)

08002000 <UART_DMAAbortOnError>:
 8002000:	2300      	movs	r3, #0
 8002002:	225a      	movs	r2, #90	; 0x5a
 8002004:	b510      	push	{r4, lr}
 8002006:	6a40      	ldr	r0, [r0, #36]	; 0x24
 8002008:	5283      	strh	r3, [r0, r2]
 800200a:	3a08      	subs	r2, #8
 800200c:	5283      	strh	r3, [r0, r2]
 800200e:	f002 f8df 	bl	80041d0 <HAL_UART_ErrorCallback>
 8002012:	bd10      	pop	{r4, pc}

08002014 <HAL_UART_IRQHandler>:
 8002014:	b5f8      	push	{r3, r4, r5, r6, r7, lr}
 8002016:	46ce      	mov	lr, r9
 8002018:	4647      	mov	r7, r8
 800201a:	6802      	ldr	r2, [r0, #0]
 800201c:	0004      	movs	r4, r0
 800201e:	69d3      	ldr	r3, [r2, #28]
 8002020:	48ab      	ldr	r0, [pc, #684]	; (80022d0 <HAL_UART_IRQHandler+0x2bc>)
 8002022:	6811      	ldr	r1, [r2, #0]
 8002024:	b580      	push	{r7, lr}
 8002026:	6895      	ldr	r5, [r2, #8]
 8002028:	4203      	tst	r3, r0
 800202a:	d000      	beq.n	800202e <HAL_UART_IRQHandler+0x1a>
 800202c:	e077      	b.n	800211e <HAL_UART_IRQHandler+0x10a>
 800202e:	2020      	movs	r0, #32
 8002030:	4218      	tst	r0, r3
 8002032:	d002      	beq.n	800203a <HAL_UART_IRQHandler+0x26>
 8002034:	4208      	tst	r0, r1
 8002036:	d000      	beq.n	800203a <HAL_UART_IRQHandler+0x26>
 8002038:	e0e6      	b.n	8002208 <HAL_UART_IRQHandler+0x1f4>
 800203a:	6e20      	ldr	r0, [r4, #96]	; 0x60
 800203c:	2801      	cmp	r0, #1
 800203e:	d014      	beq.n	800206a <HAL_UART_IRQHandler+0x56>
 8002040:	2280      	movs	r2, #128	; 0x80
 8002042:	421a      	tst	r2, r3
 8002044:	d109      	bne.n	800205a <HAL_UART_IRQHandler+0x46>
 8002046:	2240      	movs	r2, #64	; 0x40
 8002048:	421a      	tst	r2, r3
 800204a:	d002      	beq.n	8002052 <HAL_UART_IRQHandler+0x3e>
 800204c:	420a      	tst	r2, r1
 800204e:	d000      	beq.n	8002052 <HAL_UART_IRQHandler+0x3e>
 8002050:	e0df      	b.n	8002212 <HAL_UART_IRQHandler+0x1fe>
 8002052:	bcc0      	pop	{r6, r7}
 8002054:	46b9      	mov	r9, r7
 8002056:	46b0      	mov	r8, r6
 8002058:	bdf8      	pop	{r3, r4, r5, r6, r7, pc}
 800205a:	420a      	tst	r2, r1
 800205c:	d0f3      	beq.n	8002046 <HAL_UART_IRQHandler+0x32>
 800205e:	6ee3      	ldr	r3, [r4, #108]	; 0x6c
 8002060:	2b00      	cmp	r3, #0
 8002062:	d0f6      	beq.n	8002052 <HAL_UART_IRQHandler+0x3e>
 8002064:	0020      	movs	r0, r4
 8002066:	4798      	blx	r3
 8002068:	e7f3      	b.n	8002052 <HAL_UART_IRQHandler+0x3e>
 800206a:	2510      	movs	r5, #16
 800206c:	421d      	tst	r5, r3
 800206e:	d0e7      	beq.n	8002040 <HAL_UART_IRQHandler+0x2c>
 8002070:	420d      	tst	r5, r1
 8002072:	d0e5      	beq.n	8002040 <HAL_UART_IRQHandler+0x2c>
 8002074:	2340      	movs	r3, #64	; 0x40
 8002076:	001e      	movs	r6, r3
 8002078:	6215      	str	r5, [r2, #32]
 800207a:	6892      	ldr	r2, [r2, #8]
 800207c:	4016      	ands	r6, r2
 800207e:	4213      	tst	r3, r2
 8002080:	d100      	bne.n	8002084 <HAL_UART_IRQHandler+0x70>
 8002082:	e0e4      	b.n	800224e <HAL_UART_IRQHandler+0x23a>
 8002084:	6f66      	ldr	r6, [r4, #116]	; 0x74
 8002086:	6832      	ldr	r2, [r6, #0]
 8002088:	6852      	ldr	r2, [r2, #4]
 800208a:	b292      	uxth	r2, r2
 800208c:	2a00      	cmp	r2, #0
 800208e:	d0e0      	beq.n	8002052 <HAL_UART_IRQHandler+0x3e>
 8002090:	2158      	movs	r1, #88	; 0x58
 8002092:	4688      	mov	r8, r1
 8002094:	5a61      	ldrh	r1, [r4, r1]
 8002096:	4291      	cmp	r1, r2
 8002098:	d9db      	bls.n	8002052 <HAL_UART_IRQHandler+0x3e>
 800209a:	275a      	movs	r7, #90	; 0x5a
 800209c:	53e2      	strh	r2, [r4, r7]
 800209e:	69b2      	ldr	r2, [r6, #24]
 80020a0:	2a20      	cmp	r2, #32
 80020a2:	d032      	beq.n	800210a <HAL_UART_IRQHandler+0xf6>
 80020a4:	f3ef 8610 	mrs	r6, PRIMASK
 80020a8:	f380 8810 	msr	PRIMASK, r0
 80020ac:	6821      	ldr	r1, [r4, #0]
 80020ae:	4f89      	ldr	r7, [pc, #548]	; (80022d4 <HAL_UART_IRQHandler+0x2c0>)
 80020b0:	680a      	ldr	r2, [r1, #0]
 80020b2:	403a      	ands	r2, r7
 80020b4:	600a      	str	r2, [r1, #0]
 80020b6:	f386 8810 	msr	PRIMASK, r6
 80020ba:	f3ef 8610 	mrs	r6, PRIMASK
 80020be:	f380 8810 	msr	PRIMASK, r0
 80020c2:	6821      	ldr	r1, [r4, #0]
 80020c4:	688a      	ldr	r2, [r1, #8]
 80020c6:	4382      	bics	r2, r0
 80020c8:	608a      	str	r2, [r1, #8]
 80020ca:	f386 8810 	msr	PRIMASK, r6
 80020ce:	f3ef 8610 	mrs	r6, PRIMASK
 80020d2:	f380 8810 	msr	PRIMASK, r0
 80020d6:	6821      	ldr	r1, [r4, #0]
 80020d8:	688a      	ldr	r2, [r1, #8]
 80020da:	439a      	bics	r2, r3
 80020dc:	608a      	str	r2, [r1, #8]
 80020de:	f386 8810 	msr	PRIMASK, r6
 80020e2:	2220      	movs	r2, #32
 80020e4:	3340      	adds	r3, #64	; 0x40
 80020e6:	50e2      	str	r2, [r4, r3]
 80020e8:	2300      	movs	r3, #0
 80020ea:	6623      	str	r3, [r4, #96]	; 0x60
 80020ec:	f3ef 8110 	mrs	r1, PRIMASK
 80020f0:	f380 8810 	msr	PRIMASK, r0
 80020f4:	6822      	ldr	r2, [r4, #0]
 80020f6:	6813      	ldr	r3, [r2, #0]
 80020f8:	43ab      	bics	r3, r5
 80020fa:	6013      	str	r3, [r2, #0]
 80020fc:	f381 8810 	msr	PRIMASK, r1
 8002100:	6f60      	ldr	r0, [r4, #116]	; 0x74
 8002102:	f7fe fa91 	bl	8000628 <HAL_DMA_Abort>
 8002106:	4643      	mov	r3, r8
 8002108:	5ae1      	ldrh	r1, [r4, r3]
 800210a:	2302      	movs	r3, #2
 800210c:	6663      	str	r3, [r4, #100]	; 0x64
 800210e:	3358      	adds	r3, #88	; 0x58
 8002110:	5ae3      	ldrh	r3, [r4, r3]
 8002112:	0020      	movs	r0, r4
 8002114:	1ac9      	subs	r1, r1, r3
 8002116:	b289      	uxth	r1, r1
 8002118:	f002 f82a 	bl	8004170 <HAL_UARTEx_RxEventCallback>
 800211c:	e799      	b.n	8002052 <HAL_UART_IRQHandler+0x3e>
 800211e:	2601      	movs	r6, #1
 8002120:	486d      	ldr	r0, [pc, #436]	; (80022d8 <HAL_UART_IRQHandler+0x2c4>)
 8002122:	4035      	ands	r5, r6
 8002124:	4008      	ands	r0, r1
 8002126:	4328      	orrs	r0, r5
 8002128:	d100      	bne.n	800212c <HAL_UART_IRQHandler+0x118>
 800212a:	e786      	b.n	800203a <HAL_UART_IRQHandler+0x26>
 800212c:	421e      	tst	r6, r3
 800212e:	d006      	beq.n	800213e <HAL_UART_IRQHandler+0x12a>
 8002130:	05c8      	lsls	r0, r1, #23
 8002132:	d504      	bpl.n	800213e <HAL_UART_IRQHandler+0x12a>
 8002134:	2784      	movs	r7, #132	; 0x84
 8002136:	6216      	str	r6, [r2, #32]
 8002138:	59e0      	ldr	r0, [r4, r7]
 800213a:	4306      	orrs	r6, r0
 800213c:	51e6      	str	r6, [r4, r7]
 800213e:	2002      	movs	r0, #2
 8002140:	4218      	tst	r0, r3
 8002142:	d055      	beq.n	80021f0 <HAL_UART_IRQHandler+0x1dc>
 8002144:	2d00      	cmp	r5, #0
 8002146:	d007      	beq.n	8002158 <HAL_UART_IRQHandler+0x144>
 8002148:	2784      	movs	r7, #132	; 0x84
 800214a:	2604      	movs	r6, #4
 800214c:	6210      	str	r0, [r2, #32]
 800214e:	59e0      	ldr	r0, [r4, r7]
 8002150:	4330      	orrs	r0, r6
 8002152:	51e0      	str	r0, [r4, r7]
 8002154:	421e      	tst	r6, r3
 8002156:	d14f      	bne.n	80021f8 <HAL_UART_IRQHandler+0x1e4>
 8002158:	2608      	movs	r6, #8
 800215a:	421e      	tst	r6, r3
 800215c:	d008      	beq.n	8002170 <HAL_UART_IRQHandler+0x15c>
 800215e:	2020      	movs	r0, #32
 8002160:	4008      	ands	r0, r1
 8002162:	4305      	orrs	r5, r0
 8002164:	d004      	beq.n	8002170 <HAL_UART_IRQHandler+0x15c>
 8002166:	2584      	movs	r5, #132	; 0x84
 8002168:	6216      	str	r6, [r2, #32]
 800216a:	5960      	ldr	r0, [r4, r5]
 800216c:	4306      	orrs	r6, r0
 800216e:	5166      	str	r6, [r4, r5]
 8002170:	2080      	movs	r0, #128	; 0x80
 8002172:	0100      	lsls	r0, r0, #4
 8002174:	4203      	tst	r3, r0
 8002176:	d007      	beq.n	8002188 <HAL_UART_IRQHandler+0x174>
 8002178:	014d      	lsls	r5, r1, #5
 800217a:	d505      	bpl.n	8002188 <HAL_UART_IRQHandler+0x174>
 800217c:	2584      	movs	r5, #132	; 0x84
 800217e:	2620      	movs	r6, #32
 8002180:	6210      	str	r0, [r2, #32]
 8002182:	5960      	ldr	r0, [r4, r5]
 8002184:	4330      	orrs	r0, r6
 8002186:	5160      	str	r0, [r4, r5]
 8002188:	2084      	movs	r0, #132	; 0x84
 800218a:	5820      	ldr	r0, [r4, r0]
 800218c:	2800      	cmp	r0, #0
 800218e:	d100      	bne.n	8002192 <HAL_UART_IRQHandler+0x17e>
 8002190:	e75f      	b.n	8002052 <HAL_UART_IRQHandler+0x3e>
 8002192:	2020      	movs	r0, #32
 8002194:	4218      	tst	r0, r3
 8002196:	d001      	beq.n	800219c <HAL_UART_IRQHandler+0x188>
 8002198:	4208      	tst	r0, r1
 800219a:	d151      	bne.n	8002240 <HAL_UART_IRQHandler+0x22c>
 800219c:	2684      	movs	r6, #132	; 0x84
 800219e:	2740      	movs	r7, #64	; 0x40
 80021a0:	2328      	movs	r3, #40	; 0x28
 80021a2:	59a1      	ldr	r1, [r4, r6]
 80021a4:	6895      	ldr	r5, [r2, #8]
 80021a6:	400b      	ands	r3, r1
 80021a8:	403d      	ands	r5, r7
 80021aa:	0020      	movs	r0, r4
 80021ac:	431d      	orrs	r5, r3
 80021ae:	d100      	bne.n	80021b2 <HAL_UART_IRQHandler+0x19e>
 80021b0:	e08a      	b.n	80022c8 <HAL_UART_IRQHandler+0x2b4>
 80021b2:	f7ff febd 	bl	8001f30 <UART_EndRxTransfer>
 80021b6:	6823      	ldr	r3, [r4, #0]
 80021b8:	689b      	ldr	r3, [r3, #8]
 80021ba:	421f      	tst	r7, r3
 80021bc:	d03c      	beq.n	8002238 <HAL_UART_IRQHandler+0x224>
 80021be:	f3ef 8110 	mrs	r1, PRIMASK
 80021c2:	2301      	movs	r3, #1
 80021c4:	f383 8810 	msr	PRIMASK, r3
 80021c8:	6822      	ldr	r2, [r4, #0]
 80021ca:	6893      	ldr	r3, [r2, #8]
 80021cc:	43bb      	bics	r3, r7
 80021ce:	6093      	str	r3, [r2, #8]
 80021d0:	f381 8810 	msr	PRIMASK, r1
 80021d4:	6f60      	ldr	r0, [r4, #116]	; 0x74
 80021d6:	2800      	cmp	r0, #0
 80021d8:	d02e      	beq.n	8002238 <HAL_UART_IRQHandler+0x224>
 80021da:	4b40      	ldr	r3, [pc, #256]	; (80022dc <HAL_UART_IRQHandler+0x2c8>)
 80021dc:	6343      	str	r3, [r0, #52]	; 0x34
 80021de:	f7fe fa43 	bl	8000668 <HAL_DMA_Abort_IT>
 80021e2:	2800      	cmp	r0, #0
 80021e4:	d100      	bne.n	80021e8 <HAL_UART_IRQHandler+0x1d4>
 80021e6:	e734      	b.n	8002052 <HAL_UART_IRQHandler+0x3e>
 80021e8:	6f60      	ldr	r0, [r4, #116]	; 0x74
 80021ea:	6b43      	ldr	r3, [r0, #52]	; 0x34
 80021ec:	4798      	blx	r3
 80021ee:	e730      	b.n	8002052 <HAL_UART_IRQHandler+0x3e>
 80021f0:	0758      	lsls	r0, r3, #29
 80021f2:	d5b1      	bpl.n	8002158 <HAL_UART_IRQHandler+0x144>
 80021f4:	2d00      	cmp	r5, #0
 80021f6:	d0af      	beq.n	8002158 <HAL_UART_IRQHandler+0x144>
 80021f8:	2004      	movs	r0, #4
 80021fa:	2684      	movs	r6, #132	; 0x84
 80021fc:	2702      	movs	r7, #2
 80021fe:	6210      	str	r0, [r2, #32]
 8002200:	59a0      	ldr	r0, [r4, r6]
 8002202:	4338      	orrs	r0, r7
 8002204:	51a0      	str	r0, [r4, r6]
 8002206:	e7a7      	b.n	8002158 <HAL_UART_IRQHandler+0x144>
 8002208:	6ea3      	ldr	r3, [r4, #104]	; 0x68
 800220a:	2b00      	cmp	r3, #0
 800220c:	d000      	beq.n	8002210 <HAL_UART_IRQHandler+0x1fc>
 800220e:	e729      	b.n	8002064 <HAL_UART_IRQHandler+0x50>
 8002210:	e71f      	b.n	8002052 <HAL_UART_IRQHandler+0x3e>
 8002212:	f3ef 8010 	mrs	r0, PRIMASK
 8002216:	2301      	movs	r3, #1
 8002218:	f383 8810 	msr	PRIMASK, r3
 800221c:	6821      	ldr	r1, [r4, #0]
 800221e:	680b      	ldr	r3, [r1, #0]
 8002220:	4393      	bics	r3, r2
 8002222:	600b      	str	r3, [r1, #0]
 8002224:	f380 8810 	msr	PRIMASK, r0
 8002228:	2320      	movs	r3, #32
 800222a:	67e3      	str	r3, [r4, #124]	; 0x7c
 800222c:	2300      	movs	r3, #0
 800222e:	0020      	movs	r0, r4
 8002230:	66e3      	str	r3, [r4, #108]	; 0x6c
 8002232:	f7ff feab 	bl	8001f8c <HAL_UART_TxCpltCallback>
 8002236:	e70c      	b.n	8002052 <HAL_UART_IRQHandler+0x3e>
 8002238:	0020      	movs	r0, r4
 800223a:	f001 ffc9 	bl	80041d0 <HAL_UART_ErrorCallback>
 800223e:	e708      	b.n	8002052 <HAL_UART_IRQHandler+0x3e>
 8002240:	6ea3      	ldr	r3, [r4, #104]	; 0x68
 8002242:	2b00      	cmp	r3, #0
 8002244:	d0aa      	beq.n	800219c <HAL_UART_IRQHandler+0x188>
 8002246:	0020      	movs	r0, r4
 8002248:	4798      	blx	r3
 800224a:	6822      	ldr	r2, [r4, #0]
 800224c:	e7a6      	b.n	800219c <HAL_UART_IRQHandler+0x188>
 800224e:	225a      	movs	r2, #90	; 0x5a
 8002250:	5aa3      	ldrh	r3, [r4, r2]
 8002252:	5aa2      	ldrh	r2, [r4, r2]
 8002254:	b29b      	uxth	r3, r3
 8002256:	2a00      	cmp	r2, #0
 8002258:	d100      	bne.n	800225c <HAL_UART_IRQHandler+0x248>
 800225a:	e6fa      	b.n	8002052 <HAL_UART_IRQHandler+0x3e>
 800225c:	2258      	movs	r2, #88	; 0x58
 800225e:	5aa1      	ldrh	r1, [r4, r2]
 8002260:	1ac9      	subs	r1, r1, r3
 8002262:	b289      	uxth	r1, r1
 8002264:	2900      	cmp	r1, #0
 8002266:	d100      	bne.n	800226a <HAL_UART_IRQHandler+0x256>
 8002268:	e6f3      	b.n	8002052 <HAL_UART_IRQHandler+0x3e>
 800226a:	f3ef 8710 	mrs	r7, PRIMASK
 800226e:	f380 8810 	msr	PRIMASK, r0
 8002272:	6823      	ldr	r3, [r4, #0]
 8002274:	4699      	mov	r9, r3
 8002276:	681b      	ldr	r3, [r3, #0]
 8002278:	4698      	mov	r8, r3
 800227a:	4642      	mov	r2, r8
 800227c:	4b18      	ldr	r3, [pc, #96]	; (80022e0 <HAL_UART_IRQHandler+0x2cc>)
 800227e:	401a      	ands	r2, r3
 8002280:	0013      	movs	r3, r2
 8002282:	464a      	mov	r2, r9
 8002284:	6013      	str	r3, [r2, #0]
 8002286:	f387 8810 	msr	PRIMASK, r7
 800228a:	f3ef 8710 	mrs	r7, PRIMASK
 800228e:	f380 8810 	msr	PRIMASK, r0
 8002292:	6822      	ldr	r2, [r4, #0]
 8002294:	6893      	ldr	r3, [r2, #8]
 8002296:	4383      	bics	r3, r0
 8002298:	6093      	str	r3, [r2, #8]
 800229a:	f387 8810 	msr	PRIMASK, r7
 800229e:	2380      	movs	r3, #128	; 0x80
 80022a0:	2220      	movs	r2, #32
 80022a2:	50e2      	str	r2, [r4, r3]
 80022a4:	6626      	str	r6, [r4, #96]	; 0x60
 80022a6:	66a6      	str	r6, [r4, #104]	; 0x68
 80022a8:	f3ef 8610 	mrs	r6, PRIMASK
 80022ac:	f380 8810 	msr	PRIMASK, r0
 80022b0:	6822      	ldr	r2, [r4, #0]
 80022b2:	6813      	ldr	r3, [r2, #0]
 80022b4:	43ab      	bics	r3, r5
 80022b6:	6013      	str	r3, [r2, #0]
 80022b8:	f386 8810 	msr	PRIMASK, r6
 80022bc:	2302      	movs	r3, #2
 80022be:	0020      	movs	r0, r4
 80022c0:	6663      	str	r3, [r4, #100]	; 0x64
 80022c2:	f001 ff55 	bl	8004170 <HAL_UARTEx_RxEventCallback>
 80022c6:	e6c4      	b.n	8002052 <HAL_UART_IRQHandler+0x3e>
 80022c8:	f001 ff82 	bl	80041d0 <HAL_UART_ErrorCallback>
 80022cc:	51a5      	str	r5, [r4, r6]
 80022ce:	e6c0      	b.n	8002052 <HAL_UART_IRQHandler+0x3e>
 80022d0:	0000080f 	.word	0x0000080f
 80022d4:	fffffeff 	.word	0xfffffeff
 80022d8:	04000120 	.word	0x04000120
 80022dc:	08002001 	.word	0x08002001
 80022e0:	fffffedf 	.word	0xfffffedf

080022e4 <UART_DMARxHalfCplt>:
 80022e4:	2301      	movs	r3, #1
 80022e6:	6a40      	ldr	r0, [r0, #36]	; 0x24
 80022e8:	b510      	push	{r4, lr}
 80022ea:	6643      	str	r3, [r0, #100]	; 0x64
 80022ec:	6e03      	ldr	r3, [r0, #96]	; 0x60
 80022ee:	2b01      	cmp	r3, #1
 80022f0:	d002      	beq.n	80022f8 <UART_DMARxHalfCplt+0x14>
 80022f2:	f7ff fe4f 	bl	8001f94 <HAL_UART_RxHalfCpltCallback>
 80022f6:	bd10      	pop	{r4, pc}
 80022f8:	3357      	adds	r3, #87	; 0x57
 80022fa:	5ac1      	ldrh	r1, [r0, r3]
 80022fc:	0849      	lsrs	r1, r1, #1
 80022fe:	f001 ff37 	bl	8004170 <HAL_UARTEx_RxEventCallback>
 8002302:	e7f8      	b.n	80022f6 <UART_DMARxHalfCplt+0x12>

08002304 <UART_DMAReceiveCplt>:
 8002304:	0003      	movs	r3, r0
 8002306:	699b      	ldr	r3, [r3, #24]
 8002308:	b570      	push	{r4, r5, r6, lr}
 800230a:	6a40      	ldr	r0, [r0, #36]	; 0x24
 800230c:	2b20      	cmp	r3, #32
 800230e:	d029      	beq.n	8002364 <UART_DMAReceiveCplt+0x60>
 8002310:	235a      	movs	r3, #90	; 0x5a
 8002312:	2200      	movs	r2, #0
 8002314:	52c2      	strh	r2, [r0, r3]
 8002316:	f3ef 8410 	mrs	r4, PRIMASK
 800231a:	3b59      	subs	r3, #89	; 0x59
 800231c:	f383 8810 	msr	PRIMASK, r3
 8002320:	6801      	ldr	r1, [r0, #0]
 8002322:	4d1f      	ldr	r5, [pc, #124]	; (80023a0 <UART_DMAReceiveCplt+0x9c>)
 8002324:	680a      	ldr	r2, [r1, #0]
 8002326:	402a      	ands	r2, r5
 8002328:	600a      	str	r2, [r1, #0]
 800232a:	f384 8810 	msr	PRIMASK, r4
 800232e:	f3ef 8410 	mrs	r4, PRIMASK
 8002332:	f383 8810 	msr	PRIMASK, r3
 8002336:	6801      	ldr	r1, [r0, #0]
 8002338:	688a      	ldr	r2, [r1, #8]
 800233a:	439a      	bics	r2, r3
 800233c:	608a      	str	r2, [r1, #8]
 800233e:	f384 8810 	msr	PRIMASK, r4
 8002342:	f3ef 8110 	mrs	r1, PRIMASK
 8002346:	f383 8810 	msr	PRIMASK, r3
 800234a:	2440      	movs	r4, #64	; 0x40
 800234c:	6802      	ldr	r2, [r0, #0]
 800234e:	6893      	ldr	r3, [r2, #8]
 8002350:	43a3      	bics	r3, r4
 8002352:	6093      	str	r3, [r2, #8]
 8002354:	f381 8810 	msr	PRIMASK, r1
 8002358:	2380      	movs	r3, #128	; 0x80
 800235a:	2220      	movs	r2, #32
 800235c:	50c2      	str	r2, [r0, r3]
 800235e:	6e03      	ldr	r3, [r0, #96]	; 0x60
 8002360:	2b01      	cmp	r3, #1
 8002362:	d007      	beq.n	8002374 <UART_DMAReceiveCplt+0x70>
 8002364:	2300      	movs	r3, #0
 8002366:	6643      	str	r3, [r0, #100]	; 0x64
 8002368:	6e03      	ldr	r3, [r0, #96]	; 0x60
 800236a:	2b01      	cmp	r3, #1
 800236c:	d012      	beq.n	8002394 <UART_DMAReceiveCplt+0x90>
 800236e:	f7ff fe0f 	bl	8001f90 <HAL_UART_RxCpltCallback>
 8002372:	bd70      	pop	{r4, r5, r6, pc}
 8002374:	f3ef 8110 	mrs	r1, PRIMASK
 8002378:	f383 8810 	msr	PRIMASK, r3
 800237c:	6802      	ldr	r2, [r0, #0]
 800237e:	3c30      	subs	r4, #48	; 0x30
 8002380:	6813      	ldr	r3, [r2, #0]
 8002382:	43a3      	bics	r3, r4
 8002384:	6013      	str	r3, [r2, #0]
 8002386:	f381 8810 	msr	PRIMASK, r1
 800238a:	2300      	movs	r3, #0
 800238c:	6643      	str	r3, [r0, #100]	; 0x64
 800238e:	6e03      	ldr	r3, [r0, #96]	; 0x60
 8002390:	2b01      	cmp	r3, #1
 8002392:	d1ec      	bne.n	800236e <UART_DMAReceiveCplt+0x6a>
 8002394:	3357      	adds	r3, #87	; 0x57
 8002396:	5ac1      	ldrh	r1, [r0, r3]
 8002398:	f001 feea 	bl	8004170 <HAL_UARTEx_RxEventCallback>
 800239c:	e7e9      	b.n	8002372 <UART_DMAReceiveCplt+0x6e>
 800239e:	46c0      	nop			; (mov r8, r8)
 80023a0:	fffffeff 	.word	0xfffffeff

080023a4 <UART_SetConfig>:
 80023a4:	b570      	push	{r4, r5, r6, lr}
 80023a6:	0004      	movs	r4, r0
 80023a8:	6802      	ldr	r2, [r0, #0]
 80023aa:	69c5      	ldr	r5, [r0, #28]
 80023ac:	6883      	ldr	r3, [r0, #8]
 80023ae:	6900      	ldr	r0, [r0, #16]
 80023b0:	6811      	ldr	r1, [r2, #0]
 80023b2:	4303      	orrs	r3, r0
 80023b4:	6960      	ldr	r0, [r4, #20]
 80023b6:	4303      	orrs	r3, r0
 80023b8:	483d      	ldr	r0, [pc, #244]	; (80024b0 <UART_SetConfig+0x10c>)
 80023ba:	432b      	orrs	r3, r5
 80023bc:	4001      	ands	r1, r0
 80023be:	430b      	orrs	r3, r1
 80023c0:	6013      	str	r3, [r2, #0]
 80023c2:	6853      	ldr	r3, [r2, #4]
 80023c4:	493b      	ldr	r1, [pc, #236]	; (80024b4 <UART_SetConfig+0x110>)
 80023c6:	6a20      	ldr	r0, [r4, #32]
 80023c8:	400b      	ands	r3, r1
 80023ca:	68e1      	ldr	r1, [r4, #12]
 80023cc:	430b      	orrs	r3, r1
 80023ce:	6053      	str	r3, [r2, #4]
 80023d0:	69a3      	ldr	r3, [r4, #24]
 80023d2:	6891      	ldr	r1, [r2, #8]
 80023d4:	4303      	orrs	r3, r0
 80023d6:	4838      	ldr	r0, [pc, #224]	; (80024b8 <UART_SetConfig+0x114>)
 80023d8:	4001      	ands	r1, r0
 80023da:	430b      	orrs	r3, r1
 80023dc:	6093      	str	r3, [r2, #8]
 80023de:	4b37      	ldr	r3, [pc, #220]	; (80024bc <UART_SetConfig+0x118>)
 80023e0:	429a      	cmp	r2, r3
 80023e2:	d007      	beq.n	80023f4 <UART_SetConfig+0x50>
 80023e4:	4b36      	ldr	r3, [pc, #216]	; (80024c0 <UART_SetConfig+0x11c>)
 80023e6:	429a      	cmp	r2, r3
 80023e8:	d00b      	beq.n	8002402 <UART_SetConfig+0x5e>
 80023ea:	2001      	movs	r0, #1
 80023ec:	2300      	movs	r3, #0
 80023ee:	66a3      	str	r3, [r4, #104]	; 0x68
 80023f0:	66e3      	str	r3, [r4, #108]	; 0x6c
 80023f2:	bd70      	pop	{r4, r5, r6, pc}
 80023f4:	4b33      	ldr	r3, [pc, #204]	; (80024c4 <UART_SetConfig+0x120>)
 80023f6:	6b1a      	ldr	r2, [r3, #48]	; 0x30
 80023f8:	2303      	movs	r3, #3
 80023fa:	4013      	ands	r3, r2
 80023fc:	3b01      	subs	r3, #1
 80023fe:	2b02      	cmp	r3, #2
 8002400:	d916      	bls.n	8002430 <UART_SetConfig+0x8c>
 8002402:	2380      	movs	r3, #128	; 0x80
 8002404:	021b      	lsls	r3, r3, #8
 8002406:	429d      	cmp	r5, r3
 8002408:	d02c      	beq.n	8002464 <UART_SetConfig+0xc0>
 800240a:	f7fe ff4d 	bl	80012a8 <HAL_RCC_GetPCLK1Freq>
 800240e:	2800      	cmp	r0, #0
 8002410:	d00c      	beq.n	800242c <UART_SetConfig+0x88>
 8002412:	6863      	ldr	r3, [r4, #4]
 8002414:	6861      	ldr	r1, [r4, #4]
 8002416:	085b      	lsrs	r3, r3, #1
 8002418:	1818      	adds	r0, r3, r0
 800241a:	f7fd fe87 	bl	800012c <__udivsi3>
 800241e:	0002      	movs	r2, r0
 8002420:	4b29      	ldr	r3, [pc, #164]	; (80024c8 <UART_SetConfig+0x124>)
 8002422:	3a10      	subs	r2, #16
 8002424:	429a      	cmp	r2, r3
 8002426:	d8e0      	bhi.n	80023ea <UART_SetConfig+0x46>
 8002428:	6823      	ldr	r3, [r4, #0]
 800242a:	60d8      	str	r0, [r3, #12]
 800242c:	2000      	movs	r0, #0
 800242e:	e7dd      	b.n	80023ec <UART_SetConfig+0x48>
 8002430:	2080      	movs	r0, #128	; 0x80
 8002432:	4a26      	ldr	r2, [pc, #152]	; (80024cc <UART_SetConfig+0x128>)
 8002434:	0200      	lsls	r0, r0, #8
 8002436:	5cd3      	ldrb	r3, [r2, r3]
 8002438:	4285      	cmp	r5, r0
 800243a:	d00e      	beq.n	800245a <UART_SetConfig+0xb6>
 800243c:	2b04      	cmp	r3, #4
 800243e:	d006      	beq.n	800244e <UART_SetConfig+0xaa>
 8002440:	d808      	bhi.n	8002454 <UART_SetConfig+0xb0>
 8002442:	2b00      	cmp	r3, #0
 8002444:	d0e1      	beq.n	800240a <UART_SetConfig+0x66>
 8002446:	2b02      	cmp	r3, #2
 8002448:	d1cf      	bne.n	80023ea <UART_SetConfig+0x46>
 800244a:	4821      	ldr	r0, [pc, #132]	; (80024d0 <UART_SetConfig+0x12c>)
 800244c:	e7e1      	b.n	8002412 <UART_SetConfig+0x6e>
 800244e:	f7fe ff01 	bl	8001254 <HAL_RCC_GetSysClockFreq>
 8002452:	e7dc      	b.n	800240e <UART_SetConfig+0x6a>
 8002454:	2b08      	cmp	r3, #8
 8002456:	d0dc      	beq.n	8002412 <UART_SetConfig+0x6e>
 8002458:	e7c7      	b.n	80023ea <UART_SetConfig+0x46>
 800245a:	2b04      	cmp	r3, #4
 800245c:	d024      	beq.n	80024a8 <UART_SetConfig+0x104>
 800245e:	d81e      	bhi.n	800249e <UART_SetConfig+0xfa>
 8002460:	2b00      	cmp	r3, #0
 8002462:	d118      	bne.n	8002496 <UART_SetConfig+0xf2>
 8002464:	f7fe ff20 	bl	80012a8 <HAL_RCC_GetPCLK1Freq>
 8002468:	2800      	cmp	r0, #0
 800246a:	d0df      	beq.n	800242c <UART_SetConfig+0x88>
 800246c:	0040      	lsls	r0, r0, #1
 800246e:	6863      	ldr	r3, [r4, #4]
 8002470:	6861      	ldr	r1, [r4, #4]
 8002472:	085b      	lsrs	r3, r3, #1
 8002474:	1818      	adds	r0, r3, r0
 8002476:	f7fd fe59 	bl	800012c <__udivsi3>
 800247a:	0002      	movs	r2, r0
 800247c:	4b12      	ldr	r3, [pc, #72]	; (80024c8 <UART_SetConfig+0x124>)
 800247e:	3a10      	subs	r2, #16
 8002480:	429a      	cmp	r2, r3
 8002482:	d8b2      	bhi.n	80023ea <UART_SetConfig+0x46>
 8002484:	4b13      	ldr	r3, [pc, #76]	; (80024d4 <UART_SetConfig+0x130>)
 8002486:	6822      	ldr	r2, [r4, #0]
 8002488:	4003      	ands	r3, r0
 800248a:	0700      	lsls	r0, r0, #28
 800248c:	0f40      	lsrs	r0, r0, #29
 800248e:	4318      	orrs	r0, r3
 8002490:	60d0      	str	r0, [r2, #12]
 8002492:	2000      	movs	r0, #0
 8002494:	e7aa      	b.n	80023ec <UART_SetConfig+0x48>
 8002496:	2b02      	cmp	r3, #2
 8002498:	d1a7      	bne.n	80023ea <UART_SetConfig+0x46>
 800249a:	480f      	ldr	r0, [pc, #60]	; (80024d8 <UART_SetConfig+0x134>)
 800249c:	e7e7      	b.n	800246e <UART_SetConfig+0xca>
 800249e:	2080      	movs	r0, #128	; 0x80
 80024a0:	0240      	lsls	r0, r0, #9
 80024a2:	2b08      	cmp	r3, #8
 80024a4:	d0e3      	beq.n	800246e <UART_SetConfig+0xca>
 80024a6:	e7a0      	b.n	80023ea <UART_SetConfig+0x46>
 80024a8:	f7fe fed4 	bl	8001254 <HAL_RCC_GetSysClockFreq>
 80024ac:	e7dc      	b.n	8002468 <UART_SetConfig+0xc4>
 80024ae:	46c0      	nop			; (mov r8, r8)
 80024b0:	ffff69f3 	.word	0xffff69f3
 80024b4:	ffffcfff 	.word	0xffffcfff
 80024b8:	fffff4ff 	.word	0xfffff4ff
 80024bc:	40013800 	.word	0x40013800
 80024c0:	40004400 	.word	0x40004400
 80024c4:	40021000 	.word	0x40021000
 80024c8:	0000ffef 	.word	0x0000ffef
 80024cc:	08005584 	.word	0x08005584
 80024d0:	007a1200 	.word	0x007a1200
 80024d4:	0000fff0 	.word	0x0000fff0
 80024d8:	00f42400 	.word	0x00f42400

080024dc <UART_AdvFeatureConfig>:
 80024dc:	6a43      	ldr	r3, [r0, #36]	; 0x24
 80024de:	b530      	push	{r4, r5, lr}
 80024e0:	07da      	lsls	r2, r3, #31
 80024e2:	d506      	bpl.n	80024f2 <UART_AdvFeatureConfig+0x16>
 80024e4:	6801      	ldr	r1, [r0, #0]
 80024e6:	4c28      	ldr	r4, [pc, #160]	; (8002588 <UART_AdvFeatureConfig+0xac>)
 80024e8:	684a      	ldr	r2, [r1, #4]
 80024ea:	4022      	ands	r2, r4
 80024ec:	6a84      	ldr	r4, [r0, #40]	; 0x28
 80024ee:	4322      	orrs	r2, r4
 80024f0:	604a      	str	r2, [r1, #4]
 80024f2:	079a      	lsls	r2, r3, #30
 80024f4:	d506      	bpl.n	8002504 <UART_AdvFeatureConfig+0x28>
 80024f6:	6801      	ldr	r1, [r0, #0]
 80024f8:	4c24      	ldr	r4, [pc, #144]	; (800258c <UART_AdvFeatureConfig+0xb0>)
 80024fa:	684a      	ldr	r2, [r1, #4]
 80024fc:	4022      	ands	r2, r4
 80024fe:	6ac4      	ldr	r4, [r0, #44]	; 0x2c
 8002500:	4322      	orrs	r2, r4
 8002502:	604a      	str	r2, [r1, #4]
 8002504:	075a      	lsls	r2, r3, #29
 8002506:	d506      	bpl.n	8002516 <UART_AdvFeatureConfig+0x3a>
 8002508:	6801      	ldr	r1, [r0, #0]
 800250a:	4c21      	ldr	r4, [pc, #132]	; (8002590 <UART_AdvFeatureConfig+0xb4>)
 800250c:	684a      	ldr	r2, [r1, #4]
 800250e:	4022      	ands	r2, r4
 8002510:	6b04      	ldr	r4, [r0, #48]	; 0x30
 8002512:	4322      	orrs	r2, r4
 8002514:	604a      	str	r2, [r1, #4]
 8002516:	071a      	lsls	r2, r3, #28
 8002518:	d506      	bpl.n	8002528 <UART_AdvFeatureConfig+0x4c>
 800251a:	6801      	ldr	r1, [r0, #0]
 800251c:	4c1d      	ldr	r4, [pc, #116]	; (8002594 <UART_AdvFeatureConfig+0xb8>)
 800251e:	684a      	ldr	r2, [r1, #4]
 8002520:	4022      	ands	r2, r4
 8002522:	6b44      	ldr	r4, [r0, #52]	; 0x34
 8002524:	4322      	orrs	r2, r4
 8002526:	604a      	str	r2, [r1, #4]
 8002528:	06da      	lsls	r2, r3, #27
 800252a:	d506      	bpl.n	800253a <UART_AdvFeatureConfig+0x5e>
 800252c:	6801      	ldr	r1, [r0, #0]
 800252e:	4c1a      	ldr	r4, [pc, #104]	; (8002598 <UART_AdvFeatureConfig+0xbc>)
 8002530:	688a      	ldr	r2, [r1, #8]
 8002532:	4022      	ands	r2, r4
 8002534:	6b84      	ldr	r4, [r0, #56]	; 0x38
 8002536:	4322      	orrs	r2, r4
 8002538:	608a      	str	r2, [r1, #8]
 800253a:	069a      	lsls	r2, r3, #26
 800253c:	d506      	bpl.n	800254c <UART_AdvFeatureConfig+0x70>
 800253e:	6801      	ldr	r1, [r0, #0]
 8002540:	4c16      	ldr	r4, [pc, #88]	; (800259c <UART_AdvFeatureConfig+0xc0>)
 8002542:	688a      	ldr	r2, [r1, #8]
 8002544:	4022      	ands	r2, r4
 8002546:	6bc4      	ldr	r4, [r0, #60]	; 0x3c
 8002548:	4322      	orrs	r2, r4
 800254a:	608a      	str	r2, [r1, #8]
 800254c:	065a      	lsls	r2, r3, #25
 800254e:	d50a      	bpl.n	8002566 <UART_AdvFeatureConfig+0x8a>
 8002550:	6801      	ldr	r1, [r0, #0]
 8002552:	4d13      	ldr	r5, [pc, #76]	; (80025a0 <UART_AdvFeatureConfig+0xc4>)
 8002554:	684a      	ldr	r2, [r1, #4]
 8002556:	6c04      	ldr	r4, [r0, #64]	; 0x40
 8002558:	402a      	ands	r2, r5
 800255a:	4322      	orrs	r2, r4
 800255c:	604a      	str	r2, [r1, #4]
 800255e:	2280      	movs	r2, #128	; 0x80
 8002560:	0352      	lsls	r2, r2, #13
 8002562:	4294      	cmp	r4, r2
 8002564:	d009      	beq.n	800257a <UART_AdvFeatureConfig+0x9e>
 8002566:	061b      	lsls	r3, r3, #24
 8002568:	d506      	bpl.n	8002578 <UART_AdvFeatureConfig+0x9c>
 800256a:	6802      	ldr	r2, [r0, #0]
 800256c:	490d      	ldr	r1, [pc, #52]	; (80025a4 <UART_AdvFeatureConfig+0xc8>)
 800256e:	6853      	ldr	r3, [r2, #4]
 8002570:	400b      	ands	r3, r1
 8002572:	6c81      	ldr	r1, [r0, #72]	; 0x48
 8002574:	430b      	orrs	r3, r1
 8002576:	6053      	str	r3, [r2, #4]
 8002578:	bd30      	pop	{r4, r5, pc}
 800257a:	684a      	ldr	r2, [r1, #4]
 800257c:	4c0a      	ldr	r4, [pc, #40]	; (80025a8 <UART_AdvFeatureConfig+0xcc>)
 800257e:	4022      	ands	r2, r4
 8002580:	6c44      	ldr	r4, [r0, #68]	; 0x44
 8002582:	4322      	orrs	r2, r4
 8002584:	604a      	str	r2, [r1, #4]
 8002586:	e7ee      	b.n	8002566 <UART_AdvFeatureConfig+0x8a>
 8002588:	fffdffff 	.word	0xfffdffff
 800258c:	fffeffff 	.word	0xfffeffff
 8002590:	fffbffff 	.word	0xfffbffff
 8002594:	ffff7fff 	.word	0xffff7fff
 8002598:	ffffefff 	.word	0xffffefff
 800259c:	ffffdfff 	.word	0xffffdfff
 80025a0:	ffefffff 	.word	0xffefffff
 80025a4:	fff7ffff 	.word	0xfff7ffff
 80025a8:	ff9fffff 	.word	0xff9fffff

080025ac <UART_WaitOnFlagUntilTimeout>:
 80025ac:	b5f0      	push	{r4, r5, r6, r7, lr}
 80025ae:	4645      	mov	r5, r8
 80025b0:	4698      	mov	r8, r3
 80025b2:	2304      	movs	r3, #4
 80025b4:	4657      	mov	r7, sl
 80025b6:	464e      	mov	r6, r9
 80025b8:	46de      	mov	lr, fp
 80025ba:	469a      	mov	sl, r3
 80025bc:	3304      	adds	r3, #4
 80025be:	4699      	mov	r9, r3
 80025c0:	2380      	movs	r3, #128	; 0x80
 80025c2:	b5e0      	push	{r5, r6, r7, lr}
 80025c4:	011b      	lsls	r3, r3, #4
 80025c6:	b083      	sub	sp, #12
 80025c8:	0015      	movs	r5, r2
 80025ca:	0007      	movs	r7, r0
 80025cc:	000c      	movs	r4, r1
 80025ce:	469b      	mov	fp, r3
 80025d0:	9e0c      	ldr	r6, [sp, #48]	; 0x30
 80025d2:	6802      	ldr	r2, [r0, #0]
 80025d4:	e001      	b.n	80025da <UART_WaitOnFlagUntilTimeout+0x2e>
 80025d6:	1c73      	adds	r3, r6, #1
 80025d8:	d10e      	bne.n	80025f8 <UART_WaitOnFlagUntilTimeout+0x4c>
 80025da:	69d3      	ldr	r3, [r2, #28]
 80025dc:	4023      	ands	r3, r4
 80025de:	1b1b      	subs	r3, r3, r4
 80025e0:	4259      	negs	r1, r3
 80025e2:	414b      	adcs	r3, r1
 80025e4:	42ab      	cmp	r3, r5
 80025e6:	d0f6      	beq.n	80025d6 <UART_WaitOnFlagUntilTimeout+0x2a>
 80025e8:	2000      	movs	r0, #0
 80025ea:	b003      	add	sp, #12
 80025ec:	bcf0      	pop	{r4, r5, r6, r7}
 80025ee:	46bb      	mov	fp, r7
 80025f0:	46b2      	mov	sl, r6
 80025f2:	46a9      	mov	r9, r5
 80025f4:	46a0      	mov	r8, r4
 80025f6:	bdf0      	pop	{r4, r5, r6, r7, pc}
 80025f8:	f7fd ff32 	bl	8000460 <HAL_GetTick>
 80025fc:	4643      	mov	r3, r8
 80025fe:	1ac0      	subs	r0, r0, r3
 8002600:	42b0      	cmp	r0, r6
 8002602:	d81d      	bhi.n	8002640 <UART_WaitOnFlagUntilTimeout+0x94>
 8002604:	2e00      	cmp	r6, #0
 8002606:	d01b      	beq.n	8002640 <UART_WaitOnFlagUntilTimeout+0x94>
 8002608:	4651      	mov	r1, sl
 800260a:	683a      	ldr	r2, [r7, #0]
 800260c:	6813      	ldr	r3, [r2, #0]
 800260e:	4219      	tst	r1, r3
 8002610:	d0e3      	beq.n	80025da <UART_WaitOnFlagUntilTimeout+0x2e>
 8002612:	4649      	mov	r1, r9
 8002614:	69d3      	ldr	r3, [r2, #28]
 8002616:	4019      	ands	r1, r3
 8002618:	9101      	str	r1, [sp, #4]
 800261a:	4649      	mov	r1, r9
 800261c:	4219      	tst	r1, r3
 800261e:	d111      	bne.n	8002644 <UART_WaitOnFlagUntilTimeout+0x98>
 8002620:	4659      	mov	r1, fp
 8002622:	69d3      	ldr	r3, [r2, #28]
 8002624:	420b      	tst	r3, r1
 8002626:	d0d8      	beq.n	80025da <UART_WaitOnFlagUntilTimeout+0x2e>
 8002628:	0038      	movs	r0, r7
 800262a:	6211      	str	r1, [r2, #32]
 800262c:	f7ff fc80 	bl	8001f30 <UART_EndRxTransfer>
 8002630:	2384      	movs	r3, #132	; 0x84
 8002632:	2220      	movs	r2, #32
 8002634:	50fa      	str	r2, [r7, r3]
 8002636:	9a01      	ldr	r2, [sp, #4]
 8002638:	3b0c      	subs	r3, #12
 800263a:	2003      	movs	r0, #3
 800263c:	54fa      	strb	r2, [r7, r3]
 800263e:	e7d4      	b.n	80025ea <UART_WaitOnFlagUntilTimeout+0x3e>
 8002640:	2003      	movs	r0, #3
 8002642:	e7d2      	b.n	80025ea <UART_WaitOnFlagUntilTimeout+0x3e>
 8002644:	0038      	movs	r0, r7
 8002646:	6211      	str	r1, [r2, #32]
 8002648:	f7ff fc72 	bl	8001f30 <UART_EndRxTransfer>
 800264c:	2384      	movs	r3, #132	; 0x84
 800264e:	464a      	mov	r2, r9
 8002650:	50fa      	str	r2, [r7, r3]
 8002652:	2200      	movs	r2, #0
 8002654:	3b0c      	subs	r3, #12
 8002656:	2001      	movs	r0, #1
 8002658:	54fa      	strb	r2, [r7, r3]
 800265a:	e7c6      	b.n	80025ea <UART_WaitOnFlagUntilTimeout+0x3e>

0800265c <UART_CheckIdleState>:
 800265c:	b570      	push	{r4, r5, r6, lr}
 800265e:	2384      	movs	r3, #132	; 0x84
 8002660:	2600      	movs	r6, #0
 8002662:	0004      	movs	r4, r0
 8002664:	50c6      	str	r6, [r0, r3]
 8002666:	b082      	sub	sp, #8
 8002668:	f7fd fefa 	bl	8000460 <HAL_GetTick>
 800266c:	6823      	ldr	r3, [r4, #0]
 800266e:	0005      	movs	r5, r0
 8002670:	681a      	ldr	r2, [r3, #0]
 8002672:	0712      	lsls	r2, r2, #28
 8002674:	d40e      	bmi.n	8002694 <UART_CheckIdleState+0x38>
 8002676:	681b      	ldr	r3, [r3, #0]
 8002678:	075b      	lsls	r3, r3, #29
 800267a:	d41a      	bmi.n	80026b2 <UART_CheckIdleState+0x56>
 800267c:	2320      	movs	r3, #32
 800267e:	2280      	movs	r2, #128	; 0x80
 8002680:	67e3      	str	r3, [r4, #124]	; 0x7c
 8002682:	50a3      	str	r3, [r4, r2]
 8002684:	2300      	movs	r3, #0
 8002686:	2000      	movs	r0, #0
 8002688:	3a08      	subs	r2, #8
 800268a:	6623      	str	r3, [r4, #96]	; 0x60
 800268c:	6663      	str	r3, [r4, #100]	; 0x64
 800268e:	54a3      	strb	r3, [r4, r2]
 8002690:	b002      	add	sp, #8
 8002692:	bd70      	pop	{r4, r5, r6, pc}
 8002694:	2180      	movs	r1, #128	; 0x80
 8002696:	4b24      	ldr	r3, [pc, #144]	; (8002728 <UART_CheckIdleState+0xcc>)
 8002698:	2200      	movs	r2, #0
 800269a:	9300      	str	r3, [sp, #0]
 800269c:	0389      	lsls	r1, r1, #14
 800269e:	0003      	movs	r3, r0
 80026a0:	0020      	movs	r0, r4
 80026a2:	f7ff ff83 	bl	80025ac <UART_WaitOnFlagUntilTimeout>
 80026a6:	2800      	cmp	r0, #0
 80026a8:	d12c      	bne.n	8002704 <UART_CheckIdleState+0xa8>
 80026aa:	6823      	ldr	r3, [r4, #0]
 80026ac:	681b      	ldr	r3, [r3, #0]
 80026ae:	075b      	lsls	r3, r3, #29
 80026b0:	d5e4      	bpl.n	800267c <UART_CheckIdleState+0x20>
 80026b2:	2180      	movs	r1, #128	; 0x80
 80026b4:	4b1c      	ldr	r3, [pc, #112]	; (8002728 <UART_CheckIdleState+0xcc>)
 80026b6:	2200      	movs	r2, #0
 80026b8:	9300      	str	r3, [sp, #0]
 80026ba:	0020      	movs	r0, r4
 80026bc:	002b      	movs	r3, r5
 80026be:	03c9      	lsls	r1, r1, #15
 80026c0:	f7ff ff74 	bl	80025ac <UART_WaitOnFlagUntilTimeout>
 80026c4:	2800      	cmp	r0, #0
 80026c6:	d0d9      	beq.n	800267c <UART_CheckIdleState+0x20>
 80026c8:	f3ef 8010 	mrs	r0, PRIMASK
 80026cc:	2201      	movs	r2, #1
 80026ce:	f382 8810 	msr	PRIMASK, r2
 80026d2:	6821      	ldr	r1, [r4, #0]
 80026d4:	4d15      	ldr	r5, [pc, #84]	; (800272c <UART_CheckIdleState+0xd0>)
 80026d6:	680b      	ldr	r3, [r1, #0]
 80026d8:	402b      	ands	r3, r5
 80026da:	600b      	str	r3, [r1, #0]
 80026dc:	f380 8810 	msr	PRIMASK, r0
 80026e0:	f3ef 8010 	mrs	r0, PRIMASK
 80026e4:	f382 8810 	msr	PRIMASK, r2
 80026e8:	6821      	ldr	r1, [r4, #0]
 80026ea:	688b      	ldr	r3, [r1, #8]
 80026ec:	4393      	bics	r3, r2
 80026ee:	608b      	str	r3, [r1, #8]
 80026f0:	f380 8810 	msr	PRIMASK, r0
 80026f4:	2380      	movs	r3, #128	; 0x80
 80026f6:	321f      	adds	r2, #31
 80026f8:	50e2      	str	r2, [r4, r3]
 80026fa:	2200      	movs	r2, #0
 80026fc:	3b08      	subs	r3, #8
 80026fe:	2003      	movs	r0, #3
 8002700:	54e2      	strb	r2, [r4, r3]
 8002702:	e7c5      	b.n	8002690 <UART_CheckIdleState+0x34>
 8002704:	f3ef 8110 	mrs	r1, PRIMASK
 8002708:	2301      	movs	r3, #1
 800270a:	f383 8810 	msr	PRIMASK, r3
 800270e:	2080      	movs	r0, #128	; 0x80
 8002710:	6822      	ldr	r2, [r4, #0]
 8002712:	6813      	ldr	r3, [r2, #0]
 8002714:	4383      	bics	r3, r0
 8002716:	6013      	str	r3, [r2, #0]
 8002718:	f381 8810 	msr	PRIMASK, r1
 800271c:	2320      	movs	r3, #32
 800271e:	67e3      	str	r3, [r4, #124]	; 0x7c
 8002720:	3358      	adds	r3, #88	; 0x58
 8002722:	54e6      	strb	r6, [r4, r3]
 8002724:	387d      	subs	r0, #125	; 0x7d
 8002726:	e7b3      	b.n	8002690 <UART_CheckIdleState+0x34>
 8002728:	01ffffff 	.word	0x01ffffff
 800272c:	fffffedf 	.word	0xfffffedf

08002730 <HAL_UART_Init>:
 8002730:	b510      	push	{r4, lr}
 8002732:	1e04      	subs	r4, r0, #0
 8002734:	d026      	beq.n	8002784 <HAL_UART_Init+0x54>
 8002736:	6fc3      	ldr	r3, [r0, #124]	; 0x7c
 8002738:	2b00      	cmp	r3, #0
 800273a:	d025      	beq.n	8002788 <HAL_UART_Init+0x58>
 800273c:	2324      	movs	r3, #36	; 0x24
 800273e:	2101      	movs	r1, #1
 8002740:	6822      	ldr	r2, [r4, #0]
 8002742:	67e3      	str	r3, [r4, #124]	; 0x7c
 8002744:	6813      	ldr	r3, [r2, #0]
 8002746:	0020      	movs	r0, r4
 8002748:	438b      	bics	r3, r1
 800274a:	6013      	str	r3, [r2, #0]
 800274c:	f7ff fe2a 	bl	80023a4 <UART_SetConfig>
 8002750:	2801      	cmp	r0, #1
 8002752:	d017      	beq.n	8002784 <HAL_UART_Init+0x54>
 8002754:	6a63      	ldr	r3, [r4, #36]	; 0x24
 8002756:	2b00      	cmp	r3, #0
 8002758:	d110      	bne.n	800277c <HAL_UART_Init+0x4c>
 800275a:	6823      	ldr	r3, [r4, #0]
 800275c:	490d      	ldr	r1, [pc, #52]	; (8002794 <HAL_UART_Init+0x64>)
 800275e:	685a      	ldr	r2, [r3, #4]
 8002760:	0020      	movs	r0, r4
 8002762:	400a      	ands	r2, r1
 8002764:	2108      	movs	r1, #8
 8002766:	605a      	str	r2, [r3, #4]
 8002768:	689a      	ldr	r2, [r3, #8]
 800276a:	438a      	bics	r2, r1
 800276c:	609a      	str	r2, [r3, #8]
 800276e:	681a      	ldr	r2, [r3, #0]
 8002770:	3907      	subs	r1, #7
 8002772:	430a      	orrs	r2, r1
 8002774:	601a      	str	r2, [r3, #0]
 8002776:	f7ff ff71 	bl	800265c <UART_CheckIdleState>
 800277a:	bd10      	pop	{r4, pc}
 800277c:	0020      	movs	r0, r4
 800277e:	f7ff fead 	bl	80024dc <UART_AdvFeatureConfig>
 8002782:	e7ea      	b.n	800275a <HAL_UART_Init+0x2a>
 8002784:	2001      	movs	r0, #1
 8002786:	e7f8      	b.n	800277a <HAL_UART_Init+0x4a>
 8002788:	2278      	movs	r2, #120	; 0x78
 800278a:	5483      	strb	r3, [r0, r2]
 800278c:	f002 fcb6 	bl	80050fc <HAL_UART_MspInit>
 8002790:	e7d4      	b.n	800273c <HAL_UART_Init+0xc>
 8002792:	46c0      	nop			; (mov r8, r8)
 8002794:	fffff7ff 	.word	0xfffff7ff

08002798 <UART_Start_Receive_DMA>:
 8002798:	b5f8      	push	{r3, r4, r5, r6, r7, lr}
 800279a:	0013      	movs	r3, r2
 800279c:	2258      	movs	r2, #88	; 0x58
 800279e:	6541      	str	r1, [r0, #84]	; 0x54
 80027a0:	000d      	movs	r5, r1
 80027a2:	5283      	strh	r3, [r0, r2]
 80027a4:	2784      	movs	r7, #132	; 0x84
 80027a6:	2200      	movs	r2, #0
 80027a8:	2680      	movs	r6, #128	; 0x80
 80027aa:	2122      	movs	r1, #34	; 0x22
 80027ac:	51c2      	str	r2, [r0, r7]
 80027ae:	0004      	movs	r4, r0
 80027b0:	5181      	str	r1, [r0, r6]
 80027b2:	6f40      	ldr	r0, [r0, #116]	; 0x74
 80027b4:	2800      	cmp	r0, #0
 80027b6:	d00d      	beq.n	80027d4 <UART_Start_Receive_DMA+0x3c>
 80027b8:	491d      	ldr	r1, [pc, #116]	; (8002830 <UART_Start_Receive_DMA+0x98>)
 80027ba:	6342      	str	r2, [r0, #52]	; 0x34
 80027bc:	6281      	str	r1, [r0, #40]	; 0x28
 80027be:	491d      	ldr	r1, [pc, #116]	; (8002834 <UART_Start_Receive_DMA+0x9c>)
 80027c0:	002a      	movs	r2, r5
 80027c2:	62c1      	str	r1, [r0, #44]	; 0x2c
 80027c4:	491c      	ldr	r1, [pc, #112]	; (8002838 <UART_Start_Receive_DMA+0xa0>)
 80027c6:	6301      	str	r1, [r0, #48]	; 0x30
 80027c8:	6821      	ldr	r1, [r4, #0]
 80027ca:	3124      	adds	r1, #36	; 0x24
 80027cc:	f7fd feec 	bl	80005a8 <HAL_DMA_Start_IT>
 80027d0:	2800      	cmp	r0, #0
 80027d2:	d127      	bne.n	8002824 <UART_Start_Receive_DMA+0x8c>
 80027d4:	6923      	ldr	r3, [r4, #16]
 80027d6:	2b00      	cmp	r3, #0
 80027d8:	d117      	bne.n	800280a <UART_Start_Receive_DMA+0x72>
 80027da:	f3ef 8010 	mrs	r0, PRIMASK
 80027de:	2301      	movs	r3, #1
 80027e0:	f383 8810 	msr	PRIMASK, r3
 80027e4:	6821      	ldr	r1, [r4, #0]
 80027e6:	688a      	ldr	r2, [r1, #8]
 80027e8:	431a      	orrs	r2, r3
 80027ea:	608a      	str	r2, [r1, #8]
 80027ec:	f380 8810 	msr	PRIMASK, r0
 80027f0:	f3ef 8110 	mrs	r1, PRIMASK
 80027f4:	f383 8810 	msr	PRIMASK, r3
 80027f8:	2040      	movs	r0, #64	; 0x40
 80027fa:	6822      	ldr	r2, [r4, #0]
 80027fc:	6893      	ldr	r3, [r2, #8]
 80027fe:	4303      	orrs	r3, r0
 8002800:	6093      	str	r3, [r2, #8]
 8002802:	f381 8810 	msr	PRIMASK, r1
 8002806:	2000      	movs	r0, #0
 8002808:	bdf8      	pop	{r3, r4, r5, r6, r7, pc}
 800280a:	f3ef 8110 	mrs	r1, PRIMASK
 800280e:	2301      	movs	r3, #1
 8002810:	f383 8810 	msr	PRIMASK, r3
 8002814:	6822      	ldr	r2, [r4, #0]
 8002816:	33ff      	adds	r3, #255	; 0xff
 8002818:	6810      	ldr	r0, [r2, #0]
 800281a:	4303      	orrs	r3, r0
 800281c:	6013      	str	r3, [r2, #0]
 800281e:	f381 8810 	msr	PRIMASK, r1
 8002822:	e7da      	b.n	80027da <UART_Start_Receive_DMA+0x42>
 8002824:	2310      	movs	r3, #16
 8002826:	51e3      	str	r3, [r4, r7]
 8002828:	3310      	adds	r3, #16
 800282a:	2001      	movs	r0, #1
 800282c:	51a3      	str	r3, [r4, r6]
 800282e:	e7eb      	b.n	8002808 <UART_Start_Receive_DMA+0x70>
 8002830:	08002305 	.word	0x08002305
 8002834:	080022e5 	.word	0x080022e5
 8002838:	08001f99 	.word	0x08001f99

0800283c <HAL_UARTEx_ReceiveToIdle_DMA>:
 800283c:	2380      	movs	r3, #128	; 0x80
 800283e:	58c3      	ldr	r3, [r0, r3]
 8002840:	b570      	push	{r4, r5, r6, lr}
 8002842:	0004      	movs	r4, r0
 8002844:	2b20      	cmp	r3, #32
 8002846:	d129      	bne.n	800289c <HAL_UARTEx_ReceiveToIdle_DMA+0x60>
 8002848:	2900      	cmp	r1, #0
 800284a:	d00b      	beq.n	8002864 <HAL_UARTEx_ReceiveToIdle_DMA+0x28>
 800284c:	2a00      	cmp	r2, #0
 800284e:	d009      	beq.n	8002864 <HAL_UARTEx_ReceiveToIdle_DMA+0x28>
 8002850:	2380      	movs	r3, #128	; 0x80
 8002852:	6880      	ldr	r0, [r0, #8]
 8002854:	015b      	lsls	r3, r3, #5
 8002856:	4298      	cmp	r0, r3
 8002858:	d106      	bne.n	8002868 <HAL_UARTEx_ReceiveToIdle_DMA+0x2c>
 800285a:	6923      	ldr	r3, [r4, #16]
 800285c:	2b00      	cmp	r3, #0
 800285e:	d103      	bne.n	8002868 <HAL_UARTEx_ReceiveToIdle_DMA+0x2c>
 8002860:	07cb      	lsls	r3, r1, #31
 8002862:	d501      	bpl.n	8002868 <HAL_UARTEx_ReceiveToIdle_DMA+0x2c>
 8002864:	2001      	movs	r0, #1
 8002866:	bd70      	pop	{r4, r5, r6, pc}
 8002868:	2301      	movs	r3, #1
 800286a:	6623      	str	r3, [r4, #96]	; 0x60
 800286c:	2300      	movs	r3, #0
 800286e:	0020      	movs	r0, r4
 8002870:	6663      	str	r3, [r4, #100]	; 0x64
 8002872:	f7ff ff91 	bl	8002798 <UART_Start_Receive_DMA>
 8002876:	2800      	cmp	r0, #0
 8002878:	d1f5      	bne.n	8002866 <HAL_UARTEx_ReceiveToIdle_DMA+0x2a>
 800287a:	6e23      	ldr	r3, [r4, #96]	; 0x60
 800287c:	2b01      	cmp	r3, #1
 800287e:	d1f1      	bne.n	8002864 <HAL_UARTEx_ReceiveToIdle_DMA+0x28>
 8002880:	2110      	movs	r1, #16
 8002882:	6822      	ldr	r2, [r4, #0]
 8002884:	6211      	str	r1, [r2, #32]
 8002886:	f3ef 8510 	mrs	r5, PRIMASK
 800288a:	f383 8810 	msr	PRIMASK, r3
 800288e:	6822      	ldr	r2, [r4, #0]
 8002890:	6813      	ldr	r3, [r2, #0]
 8002892:	430b      	orrs	r3, r1
 8002894:	6013      	str	r3, [r2, #0]
 8002896:	f385 8810 	msr	PRIMASK, r5
 800289a:	e7e4      	b.n	8002866 <HAL_UARTEx_ReceiveToIdle_DMA+0x2a>
 800289c:	2002      	movs	r0, #2
 800289e:	e7e2      	b.n	8002866 <HAL_UARTEx_ReceiveToIdle_DMA+0x2a>

080028a0 <prepare_USR_response_msg>:
 80028a0:	b510      	push	{r4, lr}
 80028a2:	1d4a      	adds	r2, r1, #5
 80028a4:	6804      	ldr	r4, [r0, #0]
 80028a6:	1a53      	subs	r3, r2, r1
 80028a8:	b2db      	uxtb	r3, r3
 80028aa:	5ce3      	ldrb	r3, [r4, r3]
 80028ac:	700b      	strb	r3, [r1, #0]
 80028ae:	3101      	adds	r1, #1
 80028b0:	e7f8      	b.n	80028a4 <prepare_USR_response_msg+0x4>
 80028b2:	46c0      	nop			; (mov r8, r8)

080028b4 <CH395SetBuffer>:
 80028b4:	b570      	push	{r4, r5, r6, lr}
 80028b6:	2500      	movs	r5, #0
 80028b8:	2400      	movs	r4, #0
 80028ba:	0029      	movs	r1, r5
 80028bc:	0020      	movs	r0, r4
 80028be:	2203      	movs	r2, #3
 80028c0:	f000 faf6 	bl	8002eb0 <CH395SetSocketRecvBuf>
 80028c4:	0020      	movs	r0, r4
 80028c6:	1ce9      	adds	r1, r5, #3
 80028c8:	3401      	adds	r4, #1
 80028ca:	2203      	movs	r2, #3
 80028cc:	b2c9      	uxtb	r1, r1
 80028ce:	3506      	adds	r5, #6
 80028d0:	b2e4      	uxtb	r4, r4
 80028d2:	f000 faff 	bl	8002ed4 <CH395SetSocketSendBuf>
 80028d6:	b2ed      	uxtb	r5, r5
 80028d8:	2c08      	cmp	r4, #8
 80028da:	d1ee      	bne.n	80028ba <CH395SetBuffer+0x6>
 80028dc:	bd70      	pop	{r4, r5, r6, pc}
 80028de:	46c0      	nop			; (mov r8, r8)

080028e0 <CH395TCPServerStart>:
 80028e0:	b5f0      	push	{r4, r5, r6, r7, lr}
 80028e2:	46c6      	mov	lr, r8
 80028e4:	b500      	push	{lr}
 80028e6:	2006      	movs	r0, #6
 80028e8:	b082      	sub	sp, #8
 80028ea:	000e      	movs	r6, r1
 80028ec:	0017      	movs	r7, r2
 80028ee:	f000 fb03 	bl	8002ef8 <CH395SetStartPara>
 80028f2:	f000 f8c7 	bl	8002a84 <CH395CMDInitCH395>
 80028f6:	2300      	movs	r3, #0
 80028f8:	4d3d      	ldr	r5, [pc, #244]	; (80029f0 <CH395TCPServerStart+0x110>)
 80028fa:	2414      	movs	r4, #20
 80028fc:	766b      	strb	r3, [r5, #25]
 80028fe:	76eb      	strb	r3, [r5, #27]
 8002900:	33ff      	adds	r3, #255	; 0xff
 8002902:	76ab      	strb	r3, [r5, #26]
 8002904:	e007      	b.n	8002916 <CH395TCPServerStart+0x36>
 8002906:	30f4      	adds	r0, #244	; 0xf4
 8002908:	3c01      	subs	r4, #1
 800290a:	30ff      	adds	r0, #255	; 0xff
 800290c:	b2e4      	uxtb	r4, r4
 800290e:	f7fd fdad 	bl	800046c <HAL_Delay>
 8002912:	2c00      	cmp	r4, #0
 8002914:	d062      	beq.n	80029dc <CH395TCPServerStart+0xfc>
 8002916:	f000 f891 	bl	8002a3c <CH395CMDGetPHYStatus>
 800291a:	2801      	cmp	r0, #1
 800291c:	d0f3      	beq.n	8002906 <CH395TCPServerStart+0x26>
 800291e:	2001      	movs	r0, #1
 8002920:	f000 fa7c 	bl	8002e1c <CH395DHCPEnable>
 8002924:	2800      	cmp	r0, #0
 8002926:	d152      	bne.n	80029ce <CH395TCPServerStart+0xee>
 8002928:	2001      	movs	r0, #1
 800292a:	2e00      	cmp	r6, #0
 800292c:	d103      	bne.n	8002936 <CH395TCPServerStart+0x56>
 800292e:	b002      	add	sp, #8
 8002930:	bc80      	pop	{r7}
 8002932:	46b8      	mov	r8, r7
 8002934:	bdf0      	pop	{r4, r5, r6, r7, pc}
 8002936:	2103      	movs	r1, #3
 8002938:	2000      	movs	r0, #0
 800293a:	f000 f90b 	bl	8002b54 <CH395SetSocketProtType>
 800293e:	0031      	movs	r1, r6
 8002940:	2000      	movs	r0, #0
 8002942:	f000 f935 	bl	8002bb0 <CH395SetSocketSourPort>
 8002946:	2000      	movs	r0, #0
 8002948:	f000 fa0c 	bl	8002d64 <CH395OpenSocket>
 800294c:	2000      	movs	r0, #0
 800294e:	f000 fa2b 	bl	8002da8 <CH395TCPListen>
 8002952:	2103      	movs	r1, #3
 8002954:	2004      	movs	r0, #4
 8002956:	f000 f8fd 	bl	8002b54 <CH395SetSocketProtType>
 800295a:	0039      	movs	r1, r7
 800295c:	2004      	movs	r0, #4
 800295e:	f000 f927 	bl	8002bb0 <CH395SetSocketSourPort>
 8002962:	2004      	movs	r0, #4
 8002964:	f000 f9fe 	bl	8002d64 <CH395OpenSocket>
 8002968:	2004      	movs	r0, #4
 800296a:	f000 fa1d 	bl	8002da8 <CH395TCPListen>
 800296e:	426b      	negs	r3, r5
 8002970:	0007      	movs	r7, r0
 8002972:	002e      	movs	r6, r5
 8002974:	2401      	movs	r4, #1
 8002976:	4698      	mov	r8, r3
 8002978:	e002      	b.n	8002980 <CH395TCPServerStart+0xa0>
 800297a:	3401      	adds	r4, #1
 800297c:	b2e4      	uxtb	r4, r4
 800297e:	3601      	adds	r6, #1
 8002980:	2c04      	cmp	r4, #4
 8002982:	d0fa      	beq.n	800297a <CH395TCPServerStart+0x9a>
 8002984:	7c73      	ldrb	r3, [r6, #17]
 8002986:	2b00      	cmp	r3, #0
 8002988:	d005      	beq.n	8002996 <CH395TCPServerStart+0xb6>
 800298a:	4642      	mov	r2, r8
 800298c:	1c73      	adds	r3, r6, #1
 800298e:	005b      	lsls	r3, r3, #1
 8002990:	5a99      	ldrh	r1, [r3, r2]
 8002992:	2900      	cmp	r1, #0
 8002994:	d124      	bne.n	80029e0 <CH395TCPServerStart+0x100>
 8002996:	2c06      	cmp	r4, #6
 8002998:	d1ef      	bne.n	800297a <CH395TCPServerStart+0x9a>
 800299a:	2102      	movs	r1, #2
 800299c:	2007      	movs	r0, #7
 800299e:	f000 f8d9 	bl	8002b54 <CH395SetSocketProtType>
 80029a2:	2301      	movs	r3, #1
 80029a4:	2007      	movs	r0, #7
 80029a6:	425b      	negs	r3, r3
 80029a8:	a901      	add	r1, sp, #4
 80029aa:	9301      	str	r3, [sp, #4]
 80029ac:	f000 f8b4 	bl	8002b18 <CH395SetSocketDesIP>
 80029b0:	2007      	movs	r0, #7
 80029b2:	89e9      	ldrh	r1, [r5, #14]
 80029b4:	f000 f8e4 	bl	8002b80 <CH395SetSocketDesPort>
 80029b8:	2007      	movs	r0, #7
 80029ba:	89e9      	ldrh	r1, [r5, #14]
 80029bc:	f000 f8f8 	bl	8002bb0 <CH395SetSocketSourPort>
 80029c0:	2007      	movs	r0, #7
 80029c2:	f000 f9cf 	bl	8002d64 <CH395OpenSocket>
 80029c6:	4278      	negs	r0, r7
 80029c8:	4178      	adcs	r0, r7
 80029ca:	b2c0      	uxtb	r0, r0
 80029cc:	e7af      	b.n	800292e <CH395TCPServerStart+0x4e>
 80029ce:	2064      	movs	r0, #100	; 0x64
 80029d0:	f7fd fd4c 	bl	800046c <HAL_Delay>
 80029d4:	2001      	movs	r0, #1
 80029d6:	2e00      	cmp	r6, #0
 80029d8:	d0a9      	beq.n	800292e <CH395TCPServerStart+0x4e>
 80029da:	e7ac      	b.n	8002936 <CH395TCPServerStart+0x56>
 80029dc:	2000      	movs	r0, #0
 80029de:	e7a6      	b.n	800292e <CH395TCPServerStart+0x4e>
 80029e0:	0020      	movs	r0, r4
 80029e2:	f000 f8e5 	bl	8002bb0 <CH395SetSocketSourPort>
 80029e6:	2103      	movs	r1, #3
 80029e8:	0020      	movs	r0, r4
 80029ea:	f000 f8b3 	bl	8002b54 <CH395SetSocketProtType>
 80029ee:	e7d2      	b.n	8002996 <CH395TCPServerStart+0xb6>
 80029f0:	20000018 	.word	0x20000018

080029f4 <CH395CMDReset>:
 80029f4:	b510      	push	{r4, lr}
 80029f6:	2005      	movs	r0, #5
 80029f8:	f000 faac 	bl	8002f54 <xWriteCH395Cmd>
 80029fc:	4b03      	ldr	r3, [pc, #12]	; (8002a0c <CH395CMDReset+0x18>)
 80029fe:	2201      	movs	r2, #1
 8002a00:	8899      	ldrh	r1, [r3, #4]
 8002a02:	6818      	ldr	r0, [r3, #0]
 8002a04:	f7fe f8d8 	bl	8000bb8 <HAL_GPIO_WritePin>
 8002a08:	bd10      	pop	{r4, pc}
 8002a0a:	46c0      	nop			; (mov r8, r8)
 8002a0c:	20000010 	.word	0x20000010

08002a10 <CH395CMDCheckExist>:
 8002a10:	b510      	push	{r4, lr}
 8002a12:	0004      	movs	r4, r0
 8002a14:	2006      	movs	r0, #6
 8002a16:	f000 fa9d 	bl	8002f54 <xWriteCH395Cmd>
 8002a1a:	0020      	movs	r0, r4
 8002a1c:	f000 faba 	bl	8002f94 <xWriteCH395Data>
 8002a20:	f000 fac6 	bl	8002fb0 <xReadCH395Data>
 8002a24:	0004      	movs	r4, r0
 8002a26:	4b04      	ldr	r3, [pc, #16]	; (8002a38 <CH395CMDCheckExist+0x28>)
 8002a28:	2201      	movs	r2, #1
 8002a2a:	6818      	ldr	r0, [r3, #0]
 8002a2c:	8899      	ldrh	r1, [r3, #4]
 8002a2e:	f7fe f8c3 	bl	8000bb8 <HAL_GPIO_WritePin>
 8002a32:	0020      	movs	r0, r4
 8002a34:	bd10      	pop	{r4, pc}
 8002a36:	46c0      	nop			; (mov r8, r8)
 8002a38:	20000010 	.word	0x20000010

08002a3c <CH395CMDGetPHYStatus>:
 8002a3c:	b510      	push	{r4, lr}
 8002a3e:	2026      	movs	r0, #38	; 0x26
 8002a40:	f000 fa88 	bl	8002f54 <xWriteCH395Cmd>
 8002a44:	f000 fab4 	bl	8002fb0 <xReadCH395Data>
 8002a48:	0004      	movs	r4, r0
 8002a4a:	4b04      	ldr	r3, [pc, #16]	; (8002a5c <CH395CMDGetPHYStatus+0x20>)
 8002a4c:	2201      	movs	r2, #1
 8002a4e:	6818      	ldr	r0, [r3, #0]
 8002a50:	8899      	ldrh	r1, [r3, #4]
 8002a52:	f7fe f8b1 	bl	8000bb8 <HAL_GPIO_WritePin>
 8002a56:	0020      	movs	r0, r4
 8002a58:	bd10      	pop	{r4, pc}
 8002a5a:	46c0      	nop			; (mov r8, r8)
 8002a5c:	20000010 	.word	0x20000010

08002a60 <CH395GetCmdStatus>:
 8002a60:	b510      	push	{r4, lr}
 8002a62:	202c      	movs	r0, #44	; 0x2c
 8002a64:	f000 fa76 	bl	8002f54 <xWriteCH395Cmd>
 8002a68:	f000 faa2 	bl	8002fb0 <xReadCH395Data>
 8002a6c:	0004      	movs	r4, r0
 8002a6e:	4b04      	ldr	r3, [pc, #16]	; (8002a80 <CH395GetCmdStatus+0x20>)
 8002a70:	2201      	movs	r2, #1
 8002a72:	6818      	ldr	r0, [r3, #0]
 8002a74:	8899      	ldrh	r1, [r3, #4]
 8002a76:	f7fe f89f 	bl	8000bb8 <HAL_GPIO_WritePin>
 8002a7a:	0020      	movs	r0, r4
 8002a7c:	bd10      	pop	{r4, pc}
 8002a7e:	46c0      	nop			; (mov r8, r8)
 8002a80:	20000010 	.word	0x20000010

08002a84 <CH395CMDInitCH395>:
 8002a84:	b510      	push	{r4, lr}
 8002a86:	2027      	movs	r0, #39	; 0x27
 8002a88:	f000 fa64 	bl	8002f54 <xWriteCH395Cmd>
 8002a8c:	4b0a      	ldr	r3, [pc, #40]	; (8002ab8 <CH395CMDInitCH395+0x34>)
 8002a8e:	2201      	movs	r2, #1
 8002a90:	8899      	ldrh	r1, [r3, #4]
 8002a92:	6818      	ldr	r0, [r3, #0]
 8002a94:	f7fe f890 	bl	8000bb8 <HAL_GPIO_WritePin>
 8002a98:	24ca      	movs	r4, #202	; 0xca
 8002a9a:	e003      	b.n	8002aa4 <CH395CMDInitCH395+0x20>
 8002a9c:	3c01      	subs	r4, #1
 8002a9e:	b2e4      	uxtb	r4, r4
 8002aa0:	2c00      	cmp	r4, #0
 8002aa2:	d007      	beq.n	8002ab4 <CH395CMDInitCH395+0x30>
 8002aa4:	4805      	ldr	r0, [pc, #20]	; (8002abc <CH395CMDInitCH395+0x38>)
 8002aa6:	f000 fabb 	bl	8003020 <Delay_us>
 8002aaa:	f7ff ffd9 	bl	8002a60 <CH395GetCmdStatus>
 8002aae:	2810      	cmp	r0, #16
 8002ab0:	d0f4      	beq.n	8002a9c <CH395CMDInitCH395+0x18>
 8002ab2:	bd10      	pop	{r4, pc}
 8002ab4:	30ea      	adds	r0, #234	; 0xea
 8002ab6:	e7fc      	b.n	8002ab2 <CH395CMDInitCH395+0x2e>
 8002ab8:	20000010 	.word	0x20000010
 8002abc:	00002710 	.word	0x00002710

08002ac0 <CH395CMDGetMACAddr>:
 8002ac0:	b570      	push	{r4, r5, r6, lr}
 8002ac2:	0004      	movs	r4, r0
 8002ac4:	2040      	movs	r0, #64	; 0x40
 8002ac6:	f000 fa45 	bl	8002f54 <xWriteCH395Cmd>
 8002aca:	1da5      	adds	r5, r4, #6
 8002acc:	f000 fa70 	bl	8002fb0 <xReadCH395Data>
 8002ad0:	7020      	strb	r0, [r4, #0]
 8002ad2:	3401      	adds	r4, #1
 8002ad4:	42ac      	cmp	r4, r5
 8002ad6:	d1f9      	bne.n	8002acc <CH395CMDGetMACAddr+0xc>
 8002ad8:	4b03      	ldr	r3, [pc, #12]	; (8002ae8 <CH395CMDGetMACAddr+0x28>)
 8002ada:	2201      	movs	r2, #1
 8002adc:	8899      	ldrh	r1, [r3, #4]
 8002ade:	6818      	ldr	r0, [r3, #0]
 8002ae0:	f7fe f86a 	bl	8000bb8 <HAL_GPIO_WritePin>
 8002ae4:	bd70      	pop	{r4, r5, r6, pc}
 8002ae6:	46c0      	nop			; (mov r8, r8)
 8002ae8:	20000010 	.word	0x20000010

08002aec <CH395CMDGetUnreachIPPT>:
 8002aec:	b570      	push	{r4, r5, r6, lr}
 8002aee:	0004      	movs	r4, r0
 8002af0:	2028      	movs	r0, #40	; 0x28
 8002af2:	0025      	movs	r5, r4
 8002af4:	f000 fa2e 	bl	8002f54 <xWriteCH395Cmd>
 8002af8:	3508      	adds	r5, #8
 8002afa:	f000 fa59 	bl	8002fb0 <xReadCH395Data>
 8002afe:	7020      	strb	r0, [r4, #0]
 8002b00:	3401      	adds	r4, #1
 8002b02:	42ac      	cmp	r4, r5
 8002b04:	d1f9      	bne.n	8002afa <CH395CMDGetUnreachIPPT+0xe>
 8002b06:	4b03      	ldr	r3, [pc, #12]	; (8002b14 <CH395CMDGetUnreachIPPT+0x28>)
 8002b08:	2201      	movs	r2, #1
 8002b0a:	8899      	ldrh	r1, [r3, #4]
 8002b0c:	6818      	ldr	r0, [r3, #0]
 8002b0e:	f7fe f853 	bl	8000bb8 <HAL_GPIO_WritePin>
 8002b12:	bd70      	pop	{r4, r5, r6, pc}
 8002b14:	20000010 	.word	0x20000010

08002b18 <CH395SetSocketDesIP>:
 8002b18:	b570      	push	{r4, r5, r6, lr}
 8002b1a:	0005      	movs	r5, r0
 8002b1c:	000c      	movs	r4, r1
 8002b1e:	2031      	movs	r0, #49	; 0x31
 8002b20:	f000 fa18 	bl	8002f54 <xWriteCH395Cmd>
 8002b24:	0028      	movs	r0, r5
 8002b26:	f000 fa35 	bl	8002f94 <xWriteCH395Data>
 8002b2a:	7820      	ldrb	r0, [r4, #0]
 8002b2c:	f000 fa32 	bl	8002f94 <xWriteCH395Data>
 8002b30:	7860      	ldrb	r0, [r4, #1]
 8002b32:	f000 fa2f 	bl	8002f94 <xWriteCH395Data>
 8002b36:	78a0      	ldrb	r0, [r4, #2]
 8002b38:	f000 fa2c 	bl	8002f94 <xWriteCH395Data>
 8002b3c:	78e0      	ldrb	r0, [r4, #3]
 8002b3e:	f000 fa29 	bl	8002f94 <xWriteCH395Data>
 8002b42:	4b03      	ldr	r3, [pc, #12]	; (8002b50 <CH395SetSocketDesIP+0x38>)
 8002b44:	2201      	movs	r2, #1
 8002b46:	8899      	ldrh	r1, [r3, #4]
 8002b48:	6818      	ldr	r0, [r3, #0]
 8002b4a:	f7fe f835 	bl	8000bb8 <HAL_GPIO_WritePin>
 8002b4e:	bd70      	pop	{r4, r5, r6, pc}
 8002b50:	20000010 	.word	0x20000010

08002b54 <CH395SetSocketProtType>:
 8002b54:	b570      	push	{r4, r5, r6, lr}
 8002b56:	0005      	movs	r5, r0
 8002b58:	000c      	movs	r4, r1
 8002b5a:	2034      	movs	r0, #52	; 0x34
 8002b5c:	f000 f9fa 	bl	8002f54 <xWriteCH395Cmd>
 8002b60:	0028      	movs	r0, r5
 8002b62:	f000 fa17 	bl	8002f94 <xWriteCH395Data>
 8002b66:	0020      	movs	r0, r4
 8002b68:	f000 fa14 	bl	8002f94 <xWriteCH395Data>
 8002b6c:	4b03      	ldr	r3, [pc, #12]	; (8002b7c <CH395SetSocketProtType+0x28>)
 8002b6e:	2201      	movs	r2, #1
 8002b70:	8899      	ldrh	r1, [r3, #4]
 8002b72:	6818      	ldr	r0, [r3, #0]
 8002b74:	f7fe f820 	bl	8000bb8 <HAL_GPIO_WritePin>
 8002b78:	bd70      	pop	{r4, r5, r6, pc}
 8002b7a:	46c0      	nop			; (mov r8, r8)
 8002b7c:	20000010 	.word	0x20000010

08002b80 <CH395SetSocketDesPort>:
 8002b80:	b570      	push	{r4, r5, r6, lr}
 8002b82:	0005      	movs	r5, r0
 8002b84:	000c      	movs	r4, r1
 8002b86:	2032      	movs	r0, #50	; 0x32
 8002b88:	f000 f9e4 	bl	8002f54 <xWriteCH395Cmd>
 8002b8c:	0028      	movs	r0, r5
 8002b8e:	f000 fa01 	bl	8002f94 <xWriteCH395Data>
 8002b92:	b2e0      	uxtb	r0, r4
 8002b94:	f000 f9fe 	bl	8002f94 <xWriteCH395Data>
 8002b98:	0a20      	lsrs	r0, r4, #8
 8002b9a:	f000 f9fb 	bl	8002f94 <xWriteCH395Data>
 8002b9e:	4b03      	ldr	r3, [pc, #12]	; (8002bac <CH395SetSocketDesPort+0x2c>)
 8002ba0:	2201      	movs	r2, #1
 8002ba2:	8899      	ldrh	r1, [r3, #4]
 8002ba4:	6818      	ldr	r0, [r3, #0]
 8002ba6:	f7fe f807 	bl	8000bb8 <HAL_GPIO_WritePin>
 8002baa:	bd70      	pop	{r4, r5, r6, pc}
 8002bac:	20000010 	.word	0x20000010

08002bb0 <CH395SetSocketSourPort>:
 8002bb0:	b570      	push	{r4, r5, r6, lr}
 8002bb2:	0005      	movs	r5, r0
 8002bb4:	000c      	movs	r4, r1
 8002bb6:	2033      	movs	r0, #51	; 0x33
 8002bb8:	f000 f9cc 	bl	8002f54 <xWriteCH395Cmd>
 8002bbc:	0028      	movs	r0, r5
 8002bbe:	f000 f9e9 	bl	8002f94 <xWriteCH395Data>
 8002bc2:	b2e0      	uxtb	r0, r4
 8002bc4:	f000 f9e6 	bl	8002f94 <xWriteCH395Data>
 8002bc8:	0a20      	lsrs	r0, r4, #8
 8002bca:	f000 f9e3 	bl	8002f94 <xWriteCH395Data>
 8002bce:	4b03      	ldr	r3, [pc, #12]	; (8002bdc <CH395SetSocketSourPort+0x2c>)
 8002bd0:	2201      	movs	r2, #1
 8002bd2:	8899      	ldrh	r1, [r3, #4]
 8002bd4:	6818      	ldr	r0, [r3, #0]
 8002bd6:	f7fd ffef 	bl	8000bb8 <HAL_GPIO_WritePin>
 8002bda:	bd70      	pop	{r4, r5, r6, pc}
 8002bdc:	20000010 	.word	0x20000010

08002be0 <CH395SendData>:
 8002be0:	b5f0      	push	{r4, r5, r6, r7, lr}
 8002be2:	46c6      	mov	lr, r8
 8002be4:	b500      	push	{lr}
 8002be6:	4f1c      	ldr	r7, [pc, #112]	; (8002c58 <CH395SendData+0x78>)
 8002be8:	2401      	movs	r4, #1
 8002bea:	7efb      	ldrb	r3, [r7, #27]
 8002bec:	4680      	mov	r8, r0
 8002bee:	4103      	asrs	r3, r0
 8002bf0:	000d      	movs	r5, r1
 8002bf2:	0016      	movs	r6, r2
 8002bf4:	421c      	tst	r4, r3
 8002bf6:	d12c      	bne.n	8002c52 <CH395SendData+0x72>
 8002bf8:	4084      	lsls	r4, r0
 8002bfa:	4818      	ldr	r0, [pc, #96]	; (8002c5c <CH395SendData+0x7c>)
 8002bfc:	f000 fa10 	bl	8003020 <Delay_us>
 8002c00:	7efb      	ldrb	r3, [r7, #27]
 8002c02:	421c      	tst	r4, r3
 8002c04:	d0f9      	beq.n	8002bfa <CH395SendData+0x1a>
 8002c06:	7efb      	ldrb	r3, [r7, #27]
 8002c08:	2039      	movs	r0, #57	; 0x39
 8002c0a:	43a3      	bics	r3, r4
 8002c0c:	76fb      	strb	r3, [r7, #27]
 8002c0e:	f000 f9a1 	bl	8002f54 <xWriteCH395Cmd>
 8002c12:	4640      	mov	r0, r8
 8002c14:	f000 f9be 	bl	8002f94 <xWriteCH395Data>
 8002c18:	b2f0      	uxtb	r0, r6
 8002c1a:	f000 f9bb 	bl	8002f94 <xWriteCH395Data>
 8002c1e:	0a30      	lsrs	r0, r6, #8
 8002c20:	f000 f9b8 	bl	8002f94 <xWriteCH395Data>
 8002c24:	2002      	movs	r0, #2
 8002c26:	f000 f9fb 	bl	8003020 <Delay_us>
 8002c2a:	2400      	movs	r4, #0
 8002c2c:	2e00      	cmp	r6, #0
 8002c2e:	d007      	beq.n	8002c40 <CH395SendData+0x60>
 8002c30:	3401      	adds	r4, #1
 8002c32:	7828      	ldrb	r0, [r5, #0]
 8002c34:	b2a4      	uxth	r4, r4
 8002c36:	f000 f9ad 	bl	8002f94 <xWriteCH395Data>
 8002c3a:	3501      	adds	r5, #1
 8002c3c:	42a6      	cmp	r6, r4
 8002c3e:	d1f7      	bne.n	8002c30 <CH395SendData+0x50>
 8002c40:	4b07      	ldr	r3, [pc, #28]	; (8002c60 <CH395SendData+0x80>)
 8002c42:	2201      	movs	r2, #1
 8002c44:	8899      	ldrh	r1, [r3, #4]
 8002c46:	6818      	ldr	r0, [r3, #0]
 8002c48:	f7fd ffb6 	bl	8000bb8 <HAL_GPIO_WritePin>
 8002c4c:	bc80      	pop	{r7}
 8002c4e:	46b8      	mov	r8, r7
 8002c50:	bdf0      	pop	{r4, r5, r6, r7, pc}
 8002c52:	4084      	lsls	r4, r0
 8002c54:	e7d7      	b.n	8002c06 <CH395SendData+0x26>
 8002c56:	46c0      	nop			; (mov r8, r8)
 8002c58:	20000018 	.word	0x20000018
 8002c5c:	00002710 	.word	0x00002710
 8002c60:	20000010 	.word	0x20000010

08002c64 <CH395StartSendingData>:
 8002c64:	b570      	push	{r4, r5, r6, lr}
 8002c66:	0005      	movs	r5, r0
 8002c68:	000c      	movs	r4, r1
 8002c6a:	2039      	movs	r0, #57	; 0x39
 8002c6c:	f000 f972 	bl	8002f54 <xWriteCH395Cmd>
 8002c70:	0028      	movs	r0, r5
 8002c72:	f000 f98f 	bl	8002f94 <xWriteCH395Data>
 8002c76:	b2e0      	uxtb	r0, r4
 8002c78:	f000 f98c 	bl	8002f94 <xWriteCH395Data>
 8002c7c:	0a20      	lsrs	r0, r4, #8
 8002c7e:	f000 f989 	bl	8002f94 <xWriteCH395Data>
 8002c82:	2002      	movs	r0, #2
 8002c84:	f000 f9cc 	bl	8003020 <Delay_us>
 8002c88:	bd70      	pop	{r4, r5, r6, pc}
 8002c8a:	46c0      	nop			; (mov r8, r8)

08002c8c <CH395ContinueSendingData>:
 8002c8c:	b570      	push	{r4, r5, r6, lr}
 8002c8e:	0005      	movs	r5, r0
 8002c90:	1e0e      	subs	r6, r1, #0
 8002c92:	d008      	beq.n	8002ca6 <CH395ContinueSendingData+0x1a>
 8002c94:	2400      	movs	r4, #0
 8002c96:	3401      	adds	r4, #1
 8002c98:	7828      	ldrb	r0, [r5, #0]
 8002c9a:	b2a4      	uxth	r4, r4
 8002c9c:	f000 f97a 	bl	8002f94 <xWriteCH395Data>
 8002ca0:	3501      	adds	r5, #1
 8002ca2:	42a6      	cmp	r6, r4
 8002ca4:	d1f7      	bne.n	8002c96 <CH395ContinueSendingData+0xa>
 8002ca6:	bd70      	pop	{r4, r5, r6, pc}

08002ca8 <CH395Complete>:
 8002ca8:	b510      	push	{r4, lr}
 8002caa:	4b03      	ldr	r3, [pc, #12]	; (8002cb8 <CH395Complete+0x10>)
 8002cac:	2201      	movs	r2, #1
 8002cae:	8899      	ldrh	r1, [r3, #4]
 8002cb0:	6818      	ldr	r0, [r3, #0]
 8002cb2:	f7fd ff81 	bl	8000bb8 <HAL_GPIO_WritePin>
 8002cb6:	bd10      	pop	{r4, pc}
 8002cb8:	20000010 	.word	0x20000010

08002cbc <CH395GetRecvLength>:
 8002cbc:	b510      	push	{r4, lr}
 8002cbe:	0004      	movs	r4, r0
 8002cc0:	203b      	movs	r0, #59	; 0x3b
 8002cc2:	f000 f947 	bl	8002f54 <xWriteCH395Cmd>
 8002cc6:	0020      	movs	r0, r4
 8002cc8:	f000 f964 	bl	8002f94 <xWriteCH395Data>
 8002ccc:	f000 f970 	bl	8002fb0 <xReadCH395Data>
 8002cd0:	b284      	uxth	r4, r0
 8002cd2:	f000 f96d 	bl	8002fb0 <xReadCH395Data>
 8002cd6:	4b05      	ldr	r3, [pc, #20]	; (8002cec <CH395GetRecvLength+0x30>)
 8002cd8:	0200      	lsls	r0, r0, #8
 8002cda:	1824      	adds	r4, r4, r0
 8002cdc:	2201      	movs	r2, #1
 8002cde:	6818      	ldr	r0, [r3, #0]
 8002ce0:	8899      	ldrh	r1, [r3, #4]
 8002ce2:	b2a4      	uxth	r4, r4
 8002ce4:	f7fd ff68 	bl	8000bb8 <HAL_GPIO_WritePin>
 8002ce8:	0020      	movs	r0, r4
 8002cea:	bd10      	pop	{r4, pc}
 8002cec:	20000010 	.word	0x20000010

08002cf0 <CH395ClearRecvBuf>:
 8002cf0:	b510      	push	{r4, lr}
 8002cf2:	0004      	movs	r4, r0
 8002cf4:	202e      	movs	r0, #46	; 0x2e
 8002cf6:	f000 f92d 	bl	8002f54 <xWriteCH395Cmd>
 8002cfa:	0020      	movs	r0, r4
 8002cfc:	f000 f94a 	bl	8002f94 <xWriteCH395Data>
 8002d00:	4b03      	ldr	r3, [pc, #12]	; (8002d10 <CH395ClearRecvBuf+0x20>)
 8002d02:	2201      	movs	r2, #1
 8002d04:	8899      	ldrh	r1, [r3, #4]
 8002d06:	6818      	ldr	r0, [r3, #0]
 8002d08:	f7fd ff56 	bl	8000bb8 <HAL_GPIO_WritePin>
 8002d0c:	bd10      	pop	{r4, pc}
 8002d0e:	46c0      	nop			; (mov r8, r8)
 8002d10:	20000010 	.word	0x20000010

08002d14 <CH395GetRecvData>:
 8002d14:	b570      	push	{r4, r5, r6, lr}
 8002d16:	0004      	movs	r4, r0
 8002d18:	000e      	movs	r6, r1
 8002d1a:	0015      	movs	r5, r2
 8002d1c:	2900      	cmp	r1, #0
 8002d1e:	d100      	bne.n	8002d22 <CH395GetRecvData+0xe>
 8002d20:	bd70      	pop	{r4, r5, r6, pc}
 8002d22:	203c      	movs	r0, #60	; 0x3c
 8002d24:	f000 f916 	bl	8002f54 <xWriteCH395Cmd>
 8002d28:	0020      	movs	r0, r4
 8002d2a:	f000 f933 	bl	8002f94 <xWriteCH395Data>
 8002d2e:	b2f0      	uxtb	r0, r6
 8002d30:	f000 f930 	bl	8002f94 <xWriteCH395Data>
 8002d34:	0a30      	lsrs	r0, r6, #8
 8002d36:	f000 f92d 	bl	8002f94 <xWriteCH395Data>
 8002d3a:	2001      	movs	r0, #1
 8002d3c:	f000 f970 	bl	8003020 <Delay_us>
 8002d40:	2400      	movs	r4, #0
 8002d42:	f000 f935 	bl	8002fb0 <xReadCH395Data>
 8002d46:	3401      	adds	r4, #1
 8002d48:	b2a4      	uxth	r4, r4
 8002d4a:	7028      	strb	r0, [r5, #0]
 8002d4c:	3501      	adds	r5, #1
 8002d4e:	42a6      	cmp	r6, r4
 8002d50:	d1f7      	bne.n	8002d42 <CH395GetRecvData+0x2e>
 8002d52:	4b03      	ldr	r3, [pc, #12]	; (8002d60 <CH395GetRecvData+0x4c>)
 8002d54:	2201      	movs	r2, #1
 8002d56:	8899      	ldrh	r1, [r3, #4]
 8002d58:	6818      	ldr	r0, [r3, #0]
 8002d5a:	f7fd ff2d 	bl	8000bb8 <HAL_GPIO_WritePin>
 8002d5e:	e7df      	b.n	8002d20 <CH395GetRecvData+0xc>
 8002d60:	20000010 	.word	0x20000010

08002d64 <CH395OpenSocket>:
 8002d64:	b510      	push	{r4, lr}
 8002d66:	0004      	movs	r4, r0
 8002d68:	2035      	movs	r0, #53	; 0x35
 8002d6a:	f000 f8f3 	bl	8002f54 <xWriteCH395Cmd>
 8002d6e:	0020      	movs	r0, r4
 8002d70:	f000 f910 	bl	8002f94 <xWriteCH395Data>
 8002d74:	4b0a      	ldr	r3, [pc, #40]	; (8002da0 <CH395OpenSocket+0x3c>)
 8002d76:	2201      	movs	r2, #1
 8002d78:	8899      	ldrh	r1, [r3, #4]
 8002d7a:	6818      	ldr	r0, [r3, #0]
 8002d7c:	f7fd ff1c 	bl	8000bb8 <HAL_GPIO_WritePin>
 8002d80:	24ca      	movs	r4, #202	; 0xca
 8002d82:	e003      	b.n	8002d8c <CH395OpenSocket+0x28>
 8002d84:	3c01      	subs	r4, #1
 8002d86:	b2e4      	uxtb	r4, r4
 8002d88:	2c00      	cmp	r4, #0
 8002d8a:	d007      	beq.n	8002d9c <CH395OpenSocket+0x38>
 8002d8c:	4805      	ldr	r0, [pc, #20]	; (8002da4 <CH395OpenSocket+0x40>)
 8002d8e:	f000 f947 	bl	8003020 <Delay_us>
 8002d92:	f7ff fe65 	bl	8002a60 <CH395GetCmdStatus>
 8002d96:	2810      	cmp	r0, #16
 8002d98:	d0f4      	beq.n	8002d84 <CH395OpenSocket+0x20>
 8002d9a:	bd10      	pop	{r4, pc}
 8002d9c:	30ea      	adds	r0, #234	; 0xea
 8002d9e:	e7fc      	b.n	8002d9a <CH395OpenSocket+0x36>
 8002da0:	20000010 	.word	0x20000010
 8002da4:	00001388 	.word	0x00001388

08002da8 <CH395TCPListen>:
 8002da8:	b510      	push	{r4, lr}
 8002daa:	0004      	movs	r4, r0
 8002dac:	2036      	movs	r0, #54	; 0x36
 8002dae:	f000 f8d1 	bl	8002f54 <xWriteCH395Cmd>
 8002db2:	0020      	movs	r0, r4
 8002db4:	f000 f8ee 	bl	8002f94 <xWriteCH395Data>
 8002db8:	4b0a      	ldr	r3, [pc, #40]	; (8002de4 <CH395TCPListen+0x3c>)
 8002dba:	2201      	movs	r2, #1
 8002dbc:	8899      	ldrh	r1, [r3, #4]
 8002dbe:	6818      	ldr	r0, [r3, #0]
 8002dc0:	f7fd fefa 	bl	8000bb8 <HAL_GPIO_WritePin>
 8002dc4:	24ca      	movs	r4, #202	; 0xca
 8002dc6:	e003      	b.n	8002dd0 <CH395TCPListen+0x28>
 8002dc8:	3c01      	subs	r4, #1
 8002dca:	b2e4      	uxtb	r4, r4
 8002dcc:	2c00      	cmp	r4, #0
 8002dce:	d007      	beq.n	8002de0 <CH395TCPListen+0x38>
 8002dd0:	4805      	ldr	r0, [pc, #20]	; (8002de8 <CH395TCPListen+0x40>)
 8002dd2:	f000 f925 	bl	8003020 <Delay_us>
 8002dd6:	f7ff fe43 	bl	8002a60 <CH395GetCmdStatus>
 8002dda:	2810      	cmp	r0, #16
 8002ddc:	d0f4      	beq.n	8002dc8 <CH395TCPListen+0x20>
 8002dde:	bd10      	pop	{r4, pc}
 8002de0:	30ea      	adds	r0, #234	; 0xea
 8002de2:	e7fc      	b.n	8002dde <CH395TCPListen+0x36>
 8002de4:	20000010 	.word	0x20000010
 8002de8:	00001388 	.word	0x00001388

08002dec <CH395GetSocketInt>:
 8002dec:	b510      	push	{r4, lr}
 8002dee:	0004      	movs	r4, r0
 8002df0:	2030      	movs	r0, #48	; 0x30
 8002df2:	f000 f8af 	bl	8002f54 <xWriteCH395Cmd>
 8002df6:	0020      	movs	r0, r4
 8002df8:	f000 f8cc 	bl	8002f94 <xWriteCH395Data>
 8002dfc:	2002      	movs	r0, #2
 8002dfe:	f000 f90f 	bl	8003020 <Delay_us>
 8002e02:	f000 f8d5 	bl	8002fb0 <xReadCH395Data>
 8002e06:	0004      	movs	r4, r0
 8002e08:	4b03      	ldr	r3, [pc, #12]	; (8002e18 <CH395GetSocketInt+0x2c>)
 8002e0a:	2201      	movs	r2, #1
 8002e0c:	6818      	ldr	r0, [r3, #0]
 8002e0e:	8899      	ldrh	r1, [r3, #4]
 8002e10:	f7fd fed2 	bl	8000bb8 <HAL_GPIO_WritePin>
 8002e14:	0020      	movs	r0, r4
 8002e16:	bd10      	pop	{r4, pc}
 8002e18:	20000010 	.word	0x20000010

08002e1c <CH395DHCPEnable>:
 8002e1c:	b510      	push	{r4, lr}
 8002e1e:	0004      	movs	r4, r0
 8002e20:	2041      	movs	r0, #65	; 0x41
 8002e22:	f000 f897 	bl	8002f54 <xWriteCH395Cmd>
 8002e26:	0020      	movs	r0, r4
 8002e28:	f000 f8b4 	bl	8002f94 <xWriteCH395Data>
 8002e2c:	4b0a      	ldr	r3, [pc, #40]	; (8002e58 <CH395DHCPEnable+0x3c>)
 8002e2e:	2201      	movs	r2, #1
 8002e30:	8899      	ldrh	r1, [r3, #4]
 8002e32:	6818      	ldr	r0, [r3, #0]
 8002e34:	f7fd fec0 	bl	8000bb8 <HAL_GPIO_WritePin>
 8002e38:	24ca      	movs	r4, #202	; 0xca
 8002e3a:	e003      	b.n	8002e44 <CH395DHCPEnable+0x28>
 8002e3c:	3c01      	subs	r4, #1
 8002e3e:	b2e4      	uxtb	r4, r4
 8002e40:	2c00      	cmp	r4, #0
 8002e42:	d007      	beq.n	8002e54 <CH395DHCPEnable+0x38>
 8002e44:	4805      	ldr	r0, [pc, #20]	; (8002e5c <CH395DHCPEnable+0x40>)
 8002e46:	f000 f8eb 	bl	8003020 <Delay_us>
 8002e4a:	f7ff fe09 	bl	8002a60 <CH395GetCmdStatus>
 8002e4e:	2810      	cmp	r0, #16
 8002e50:	d0f4      	beq.n	8002e3c <CH395DHCPEnable+0x20>
 8002e52:	bd10      	pop	{r4, pc}
 8002e54:	30ea      	adds	r0, #234	; 0xea
 8002e56:	e7fc      	b.n	8002e52 <CH395DHCPEnable+0x36>
 8002e58:	20000010 	.word	0x20000010
 8002e5c:	00004e20 	.word	0x00004e20

08002e60 <CH395GetDHCPStatus>:
 8002e60:	b510      	push	{r4, lr}
 8002e62:	2042      	movs	r0, #66	; 0x42
 8002e64:	f000 f876 	bl	8002f54 <xWriteCH395Cmd>
 8002e68:	f000 f8a2 	bl	8002fb0 <xReadCH395Data>
 8002e6c:	0004      	movs	r4, r0
 8002e6e:	4b04      	ldr	r3, [pc, #16]	; (8002e80 <CH395GetDHCPStatus+0x20>)
 8002e70:	2201      	movs	r2, #1
 8002e72:	6818      	ldr	r0, [r3, #0]
 8002e74:	8899      	ldrh	r1, [r3, #4]
 8002e76:	f7fd fe9f 	bl	8000bb8 <HAL_GPIO_WritePin>
 8002e7a:	0020      	movs	r0, r4
 8002e7c:	bd10      	pop	{r4, pc}
 8002e7e:	46c0      	nop			; (mov r8, r8)
 8002e80:	20000010 	.word	0x20000010

08002e84 <CH395GetIPInf>:
 8002e84:	b570      	push	{r4, r5, r6, lr}
 8002e86:	0004      	movs	r4, r0
 8002e88:	2043      	movs	r0, #67	; 0x43
 8002e8a:	0025      	movs	r5, r4
 8002e8c:	f000 f862 	bl	8002f54 <xWriteCH395Cmd>
 8002e90:	3514      	adds	r5, #20
 8002e92:	f000 f88d 	bl	8002fb0 <xReadCH395Data>
 8002e96:	7020      	strb	r0, [r4, #0]
 8002e98:	3401      	adds	r4, #1
 8002e9a:	42ac      	cmp	r4, r5
 8002e9c:	d1f9      	bne.n	8002e92 <CH395GetIPInf+0xe>
 8002e9e:	4b03      	ldr	r3, [pc, #12]	; (8002eac <CH395GetIPInf+0x28>)
 8002ea0:	2201      	movs	r2, #1
 8002ea2:	8899      	ldrh	r1, [r3, #4]
 8002ea4:	6818      	ldr	r0, [r3, #0]
 8002ea6:	f7fd fe87 	bl	8000bb8 <HAL_GPIO_WritePin>
 8002eaa:	bd70      	pop	{r4, r5, r6, pc}
 8002eac:	20000010 	.word	0x20000010

08002eb0 <CH395SetSocketRecvBuf>:
 8002eb0:	b570      	push	{r4, r5, r6, lr}
 8002eb2:	0006      	movs	r6, r0
 8002eb4:	000d      	movs	r5, r1
 8002eb6:	0014      	movs	r4, r2
 8002eb8:	2052      	movs	r0, #82	; 0x52
 8002eba:	f000 f84b 	bl	8002f54 <xWriteCH395Cmd>
 8002ebe:	0030      	movs	r0, r6
 8002ec0:	f000 f868 	bl	8002f94 <xWriteCH395Data>
 8002ec4:	0028      	movs	r0, r5
 8002ec6:	f000 f865 	bl	8002f94 <xWriteCH395Data>
 8002eca:	0020      	movs	r0, r4
 8002ecc:	f000 f862 	bl	8002f94 <xWriteCH395Data>
 8002ed0:	bd70      	pop	{r4, r5, r6, pc}
 8002ed2:	46c0      	nop			; (mov r8, r8)

08002ed4 <CH395SetSocketSendBuf>:
 8002ed4:	b570      	push	{r4, r5, r6, lr}
 8002ed6:	0006      	movs	r6, r0
 8002ed8:	000d      	movs	r5, r1
 8002eda:	0014      	movs	r4, r2
 8002edc:	2053      	movs	r0, #83	; 0x53
 8002ede:	f000 f839 	bl	8002f54 <xWriteCH395Cmd>
 8002ee2:	0030      	movs	r0, r6
 8002ee4:	f000 f856 	bl	8002f94 <xWriteCH395Data>
 8002ee8:	0028      	movs	r0, r5
 8002eea:	f000 f853 	bl	8002f94 <xWriteCH395Data>
 8002eee:	0020      	movs	r0, r4
 8002ef0:	f000 f850 	bl	8002f94 <xWriteCH395Data>
 8002ef4:	bd70      	pop	{r4, r5, r6, pc}
 8002ef6:	46c0      	nop			; (mov r8, r8)

08002ef8 <CH395SetStartPara>:
 8002ef8:	b510      	push	{r4, lr}
 8002efa:	0004      	movs	r4, r0
 8002efc:	2055      	movs	r0, #85	; 0x55
 8002efe:	f000 f829 	bl	8002f54 <xWriteCH395Cmd>
 8002f02:	b2e0      	uxtb	r0, r4
 8002f04:	f000 f846 	bl	8002f94 <xWriteCH395Data>
 8002f08:	b2a0      	uxth	r0, r4
 8002f0a:	0a00      	lsrs	r0, r0, #8
 8002f0c:	f000 f842 	bl	8002f94 <xWriteCH395Data>
 8002f10:	0c20      	lsrs	r0, r4, #16
 8002f12:	b2c0      	uxtb	r0, r0
 8002f14:	f000 f83e 	bl	8002f94 <xWriteCH395Data>
 8002f18:	0e20      	lsrs	r0, r4, #24
 8002f1a:	f000 f83b 	bl	8002f94 <xWriteCH395Data>
 8002f1e:	bd10      	pop	{r4, pc}

08002f20 <CH395CMDGetGlobIntStatus_ALL>:
 8002f20:	b510      	push	{r4, lr}
 8002f22:	2019      	movs	r0, #25
 8002f24:	f000 f816 	bl	8002f54 <xWriteCH395Cmd>
 8002f28:	2002      	movs	r0, #2
 8002f2a:	f000 f879 	bl	8003020 <Delay_us>
 8002f2e:	f000 f83f 	bl	8002fb0 <xReadCH395Data>
 8002f32:	b284      	uxth	r4, r0
 8002f34:	f000 f83c 	bl	8002fb0 <xReadCH395Data>
 8002f38:	4b05      	ldr	r3, [pc, #20]	; (8002f50 <CH395CMDGetGlobIntStatus_ALL+0x30>)
 8002f3a:	0200      	lsls	r0, r0, #8
 8002f3c:	1824      	adds	r4, r4, r0
 8002f3e:	2201      	movs	r2, #1
 8002f40:	6818      	ldr	r0, [r3, #0]
 8002f42:	8899      	ldrh	r1, [r3, #4]
 8002f44:	b2a4      	uxth	r4, r4
 8002f46:	f7fd fe37 	bl	8000bb8 <HAL_GPIO_WritePin>
 8002f4a:	0020      	movs	r0, r4
 8002f4c:	bd10      	pop	{r4, pc}
 8002f4e:	46c0      	nop			; (mov r8, r8)
 8002f50:	20000010 	.word	0x20000010

08002f54 <xWriteCH395Cmd>:
 8002f54:	b530      	push	{r4, r5, lr}
 8002f56:	b083      	sub	sp, #12
 8002f58:	466b      	mov	r3, sp
 8002f5a:	4c0c      	ldr	r4, [pc, #48]	; (8002f8c <xWriteCH395Cmd+0x38>)
 8002f5c:	71d8      	strb	r0, [r3, #7]
 8002f5e:	88a1      	ldrh	r1, [r4, #4]
 8002f60:	6820      	ldr	r0, [r4, #0]
 8002f62:	2201      	movs	r2, #1
 8002f64:	1ddd      	adds	r5, r3, #7
 8002f66:	f7fd fe27 	bl	8000bb8 <HAL_GPIO_WritePin>
 8002f6a:	88a1      	ldrh	r1, [r4, #4]
 8002f6c:	6820      	ldr	r0, [r4, #0]
 8002f6e:	2200      	movs	r2, #0
 8002f70:	f7fd fe22 	bl	8000bb8 <HAL_GPIO_WritePin>
 8002f74:	2364      	movs	r3, #100	; 0x64
 8002f76:	2201      	movs	r2, #1
 8002f78:	0029      	movs	r1, r5
 8002f7a:	4805      	ldr	r0, [pc, #20]	; (8002f90 <xWriteCH395Cmd+0x3c>)
 8002f7c:	f7fe fb98 	bl	80016b0 <HAL_SPI_Transmit>
 8002f80:	2002      	movs	r0, #2
 8002f82:	f000 f84d 	bl	8003020 <Delay_us>
 8002f86:	b003      	add	sp, #12
 8002f88:	bd30      	pop	{r4, r5, pc}
 8002f8a:	46c0      	nop			; (mov r8, r8)
 8002f8c:	20000010 	.word	0x20000010
 8002f90:	200011d8 	.word	0x200011d8

08002f94 <xWriteCH395Data>:
 8002f94:	b500      	push	{lr}
 8002f96:	b083      	sub	sp, #12
 8002f98:	466b      	mov	r3, sp
 8002f9a:	2201      	movs	r2, #1
 8002f9c:	1dd9      	adds	r1, r3, #7
 8002f9e:	7008      	strb	r0, [r1, #0]
 8002fa0:	2364      	movs	r3, #100	; 0x64
 8002fa2:	4802      	ldr	r0, [pc, #8]	; (8002fac <xWriteCH395Data+0x18>)
 8002fa4:	f7fe fb84 	bl	80016b0 <HAL_SPI_Transmit>
 8002fa8:	b003      	add	sp, #12
 8002faa:	bd00      	pop	{pc}
 8002fac:	200011d8 	.word	0x200011d8

08002fb0 <xReadCH395Data>:
 8002fb0:	b510      	push	{r4, lr}
 8002fb2:	b082      	sub	sp, #8
 8002fb4:	466b      	mov	r3, sp
 8002fb6:	1ddc      	adds	r4, r3, #7
 8002fb8:	2201      	movs	r2, #1
 8002fba:	2364      	movs	r3, #100	; 0x64
 8002fbc:	0021      	movs	r1, r4
 8002fbe:	4803      	ldr	r0, [pc, #12]	; (8002fcc <xReadCH395Data+0x1c>)
 8002fc0:	f7fe fd6a 	bl	8001a98 <HAL_SPI_Receive>
 8002fc4:	7820      	ldrb	r0, [r4, #0]
 8002fc6:	b002      	add	sp, #8
 8002fc8:	bd10      	pop	{r4, pc}
 8002fca:	46c0      	nop			; (mov r8, r8)
 8002fcc:	200011d8 	.word	0x200011d8

08002fd0 <init_config>:
 8002fd0:	b510      	push	{r4, lr}
 8002fd2:	0004      	movs	r4, r0
 8002fd4:	4b0f      	ldr	r3, [pc, #60]	; (8003014 <init_config+0x44>)
 8002fd6:	2208      	movs	r2, #8
 8002fd8:	6819      	ldr	r1, [r3, #0]
 8002fda:	f002 fa03 	bl	80053e4 <strncpy>
 8002fde:	0020      	movs	r0, r4
 8002fe0:	2260      	movs	r2, #96	; 0x60
 8002fe2:	2100      	movs	r1, #0
 8002fe4:	300a      	adds	r0, #10
 8002fe6:	f002 f9aa 	bl	800533e <memset>
 8002fea:	0020      	movs	r0, r4
 8002fec:	2202      	movs	r2, #2
 8002fee:	2100      	movs	r1, #0
 8002ff0:	3008      	adds	r0, #8
 8002ff2:	f002 f9a4 	bl	800533e <memset>
 8002ff6:	236a      	movs	r3, #106	; 0x6a
 8002ff8:	2250      	movs	r2, #80	; 0x50
 8002ffa:	52e2      	strh	r2, [r4, r3]
 8002ffc:	32a7      	adds	r2, #167	; 0xa7
 8002ffe:	3302      	adds	r3, #2
 8003000:	32ff      	adds	r2, #255	; 0xff
 8003002:	52e2      	strh	r2, [r4, r3]
 8003004:	4a04      	ldr	r2, [pc, #16]	; (8003018 <init_config+0x48>)
 8003006:	3302      	adds	r3, #2
 8003008:	52e2      	strh	r2, [r4, r3]
 800300a:	2201      	movs	r2, #1
 800300c:	4b03      	ldr	r3, [pc, #12]	; (800301c <init_config+0x4c>)
 800300e:	701a      	strb	r2, [r3, #0]
 8003010:	bd10      	pop	{r4, pc}
 8003012:	46c0      	nop			; (mov r8, r8)
 8003014:	20000634 	.word	0x20000634
 8003018:	000005dc 	.word	0x000005dc
 800301c:	200006c4 	.word	0x200006c4

08003020 <Delay_us>:
 8003020:	0140      	lsls	r0, r0, #5
 8003022:	0840      	lsrs	r0, r0, #1
 8003024:	3801      	subs	r0, #1
 8003026:	46c0      	nop			; (mov r8, r8)
 8003028:	3801      	subs	r0, #1
 800302a:	2800      	cmp	r0, #0
 800302c:	d1fb      	bne.n	8003026 <Delay_us+0x6>
 800302e:	4770      	bx	lr

08003030 <FS_begin>:
 8003030:	4b05      	ldr	r3, [pc, #20]	; (8003048 <FS_begin+0x18>)
 8003032:	4299      	cmp	r1, r3
 8003034:	d806      	bhi.n	8003044 <FS_begin+0x14>
 8003036:	680b      	ldr	r3, [r1, #0]
 8003038:	6043      	str	r3, [r0, #4]
 800303a:	3301      	adds	r3, #1
 800303c:	d002      	beq.n	8003044 <FS_begin+0x14>
 800303e:	6001      	str	r1, [r0, #0]
 8003040:	2001      	movs	r0, #1
 8003042:	e000      	b.n	8003046 <FS_begin+0x16>
 8003044:	2000      	movs	r0, #0
 8003046:	4770      	bx	lr
 8003048:	0800fffe 	.word	0x0800fffe

0800304c <FS_open>:
 800304c:	b5f0      	push	{r4, r5, r6, r7, lr}
 800304e:	4646      	mov	r6, r8
 8003050:	46d6      	mov	lr, sl
 8003052:	464f      	mov	r7, r9
 8003054:	4692      	mov	sl, r2
 8003056:	b5c0      	push	{r6, r7, lr}
 8003058:	c960      	ldmia	r1!, {r5, r6}
 800305a:	4681      	mov	r9, r0
 800305c:	46a8      	mov	r8, r5
 800305e:	e001      	b.n	8003064 <FS_open+0x18>
 8003060:	2e00      	cmp	r6, #0
 8003062:	dd19      	ble.n	8003098 <FS_open+0x4c>
 8003064:	686b      	ldr	r3, [r5, #4]
 8003066:	4650      	mov	r0, sl
 8003068:	4443      	add	r3, r8
 800306a:	001f      	movs	r7, r3
 800306c:	3708      	adds	r7, #8
 800306e:	0039      	movs	r1, r7
 8003070:	3504      	adds	r5, #4
 8003072:	001c      	movs	r4, r3
 8003074:	3e01      	subs	r6, #1
 8003076:	f7fd f847 	bl	8000108 <strcmp>
 800307a:	2800      	cmp	r0, #0
 800307c:	d1f0      	bne.n	8003060 <FS_open+0x14>
 800307e:	6863      	ldr	r3, [r4, #4]
 8003080:	6822      	ldr	r2, [r4, #0]
 8003082:	4443      	add	r3, r8
 8003084:	4649      	mov	r1, r9
 8003086:	4648      	mov	r0, r9
 8003088:	600f      	str	r7, [r1, #0]
 800308a:	604b      	str	r3, [r1, #4]
 800308c:	608a      	str	r2, [r1, #8]
 800308e:	bce0      	pop	{r5, r6, r7}
 8003090:	46ba      	mov	sl, r7
 8003092:	46b1      	mov	r9, r6
 8003094:	46a8      	mov	r8, r5
 8003096:	bdf0      	pop	{r4, r5, r6, r7, pc}
 8003098:	2200      	movs	r2, #0
 800309a:	2300      	movs	r3, #0
 800309c:	2700      	movs	r7, #0
 800309e:	e7f1      	b.n	8003084 <FS_open+0x38>

080030a0 <FS_exists>:
 80030a0:	b5f0      	push	{r4, r5, r6, r7, lr}
 80030a2:	46c6      	mov	lr, r8
 80030a4:	6804      	ldr	r4, [r0, #0]
 80030a6:	6847      	ldr	r7, [r0, #4]
 80030a8:	000e      	movs	r6, r1
 80030aa:	46a0      	mov	r8, r4
 80030ac:	b500      	push	{lr}
 80030ae:	2f00      	cmp	r7, #0
 80030b0:	d00f      	beq.n	80030d2 <FS_exists+0x32>
 80030b2:	2500      	movs	r5, #0
 80030b4:	e002      	b.n	80030bc <FS_exists+0x1c>
 80030b6:	3501      	adds	r5, #1
 80030b8:	42bd      	cmp	r5, r7
 80030ba:	d00a      	beq.n	80030d2 <FS_exists+0x32>
 80030bc:	6861      	ldr	r1, [r4, #4]
 80030be:	0030      	movs	r0, r6
 80030c0:	3108      	adds	r1, #8
 80030c2:	4441      	add	r1, r8
 80030c4:	3404      	adds	r4, #4
 80030c6:	f7fd f81f 	bl	8000108 <strcmp>
 80030ca:	2800      	cmp	r0, #0
 80030cc:	d1f3      	bne.n	80030b6 <FS_exists+0x16>
 80030ce:	2001      	movs	r0, #1
 80030d0:	e000      	b.n	80030d4 <FS_exists+0x34>
 80030d2:	2000      	movs	r0, #0
 80030d4:	bc80      	pop	{r7}
 80030d6:	46b8      	mov	r8, r7
 80030d8:	bdf0      	pop	{r4, r5, r6, r7, pc}
 80030da:	46c0      	nop			; (mov r8, r8)

080030dc <onHome>:
 80030dc:	b570      	push	{r4, r5, r6, lr}
 80030de:	1d45      	adds	r5, r0, #5
 80030e0:	0004      	movs	r4, r0
 80030e2:	0028      	movs	r0, r5
 80030e4:	f7fd f81a 	bl	800011c <strlen>
 80030e8:	220b      	movs	r2, #11
 80030ea:	4904      	ldr	r1, [pc, #16]	; (80030fc <onHome+0x20>)
 80030ec:	1828      	adds	r0, r5, r0
 80030ee:	f002 f91d 	bl	800532c <memcpy>
 80030f2:	0020      	movs	r0, r4
 80030f4:	f000 fde8 	bl	8003cc8 <HTTPonNotFound>
 80030f8:	bd70      	pop	{r4, r5, r6, pc}
 80030fa:	46c0      	nop			; (mov r8, r8)
 80030fc:	0800561c 	.word	0x0800561c

08003100 <onSwitch>:
 8003100:	b570      	push	{r4, r5, r6, lr}
 8003102:	4917      	ldr	r1, [pc, #92]	; (8003160 <onSwitch+0x60>)
 8003104:	b082      	sub	sp, #8
 8003106:	0004      	movs	r4, r0
 8003108:	f000 fbda 	bl	80038c0 <getHTTPArg>
 800310c:	4915      	ldr	r1, [pc, #84]	; (8003164 <onSwitch+0x64>)
 800310e:	0005      	movs	r5, r0
 8003110:	0020      	movs	r0, r4
 8003112:	f000 fbd5 	bl	80038c0 <getHTTPArg>
 8003116:	0006      	movs	r6, r0
 8003118:	2d00      	cmp	r5, #0
 800311a:	d00f      	beq.n	800313c <onSwitch+0x3c>
 800311c:	2800      	cmp	r0, #0
 800311e:	d00d      	beq.n	800313c <onSwitch+0x3c>
 8003120:	0028      	movs	r0, r5
 8003122:	f000 fbef 	bl	8003904 <atou8>
 8003126:	ad01      	add	r5, sp, #4
 8003128:	7028      	strb	r0, [r5, #0]
 800312a:	0030      	movs	r0, r6
 800312c:	f000 fbea 	bl	8003904 <atou8>
 8003130:	782b      	ldrb	r3, [r5, #0]
 8003132:	7068      	strb	r0, [r5, #1]
 8003134:	2b06      	cmp	r3, #6
 8003136:	d801      	bhi.n	800313c <onSwitch+0x3c>
 8003138:	2806      	cmp	r0, #6
 800313a:	d907      	bls.n	800314c <onSwitch+0x4c>
 800313c:	2196      	movs	r1, #150	; 0x96
 800313e:	0020      	movs	r0, r4
 8003140:	4a09      	ldr	r2, [pc, #36]	; (8003168 <onSwitch+0x68>)
 8003142:	0049      	lsls	r1, r1, #1
 8003144:	f000 fd1e 	bl	8003b84 <HTTPSendStr>
 8003148:	b002      	add	sp, #8
 800314a:	bd70      	pop	{r4, r5, r6, pc}
 800314c:	0028      	movs	r0, r5
 800314e:	2102      	movs	r1, #2
 8003150:	f001 fc4e 	bl	80049f0 <switch_Antenna>
 8003154:	0020      	movs	r0, r4
 8003156:	4905      	ldr	r1, [pc, #20]	; (800316c <onSwitch+0x6c>)
 8003158:	f000 f9dc 	bl	8003514 <HTTPredirect>
 800315c:	e7f4      	b.n	8003148 <onSwitch+0x48>
 800315e:	46c0      	nop			; (mov r8, r8)
 8003160:	08005628 	.word	0x08005628
 8003164:	08005630 	.word	0x08005630
 8003168:	08005638 	.word	0x08005638
 800316c:	080057ac 	.word	0x080057ac

08003170 <onStatus>:
 8003170:	b510      	push	{r4, lr}
 8003172:	21c8      	movs	r1, #200	; 0xc8
 8003174:	4a01      	ldr	r2, [pc, #4]	; (800317c <onStatus+0xc>)
 8003176:	f000 fd05 	bl	8003b84 <HTTPSendStr>
 800317a:	bd10      	pop	{r4, pc}
 800317c:	08005644 	.word	0x08005644

08003180 <onReset>:
 8003180:	b510      	push	{r4, lr}
 8003182:	21c8      	movs	r1, #200	; 0xc8
 8003184:	4a01      	ldr	r2, [pc, #4]	; (800318c <onReset+0xc>)
 8003186:	f000 fcfd 	bl	8003b84 <HTTPSendStr>
 800318a:	bd10      	pop	{r4, pc}
 800318c:	08005650 	.word	0x08005650

08003190 <onGetAlloc>:
 8003190:	b530      	push	{r4, r5, lr}
 8003192:	b083      	sub	sp, #12
 8003194:	0005      	movs	r5, r0
 8003196:	2102      	movs	r1, #2
 8003198:	a801      	add	r0, sp, #4
 800319a:	f001 fc81 	bl	8004aa0 <get_Antenna_real_BCDs>
 800319e:	4b11      	ldr	r3, [pc, #68]	; (80031e4 <onGetAlloc+0x54>)
 80031a0:	4c11      	ldr	r4, [pc, #68]	; (80031e8 <onGetAlloc+0x58>)
 80031a2:	681a      	ldr	r2, [r3, #0]
 80031a4:	4911      	ldr	r1, [pc, #68]	; (80031ec <onGetAlloc+0x5c>)
 80031a6:	6022      	str	r2, [r4, #0]
 80031a8:	791b      	ldrb	r3, [r3, #4]
 80031aa:	2206      	movs	r2, #6
 80031ac:	7123      	strb	r3, [r4, #4]
 80031ae:	466b      	mov	r3, sp
 80031b0:	791b      	ldrb	r3, [r3, #4]
 80031b2:	1da0      	adds	r0, r4, #6
 80031b4:	3330      	adds	r3, #48	; 0x30
 80031b6:	7163      	strb	r3, [r4, #5]
 80031b8:	f002 f8b8 	bl	800532c <memcpy>
 80031bc:	466b      	mov	r3, sp
 80031be:	0020      	movs	r0, r4
 80031c0:	795b      	ldrb	r3, [r3, #5]
 80031c2:	2202      	movs	r2, #2
 80031c4:	3330      	adds	r3, #48	; 0x30
 80031c6:	7323      	strb	r3, [r4, #12]
 80031c8:	4909      	ldr	r1, [pc, #36]	; (80031f0 <onGetAlloc+0x60>)
 80031ca:	300d      	adds	r0, #13
 80031cc:	f002 f8ae 	bl	800532c <memcpy>
 80031d0:	2300      	movs	r3, #0
 80031d2:	0022      	movs	r2, r4
 80031d4:	21c8      	movs	r1, #200	; 0xc8
 80031d6:	0028      	movs	r0, r5
 80031d8:	73e3      	strb	r3, [r4, #15]
 80031da:	f000 fcd3 	bl	8003b84 <HTTPSendStr>
 80031de:	b003      	add	sp, #12
 80031e0:	bd30      	pop	{r4, r5, pc}
 80031e2:	46c0      	nop			; (mov r8, r8)
 80031e4:	08005658 	.word	0x08005658
 80031e8:	200006c8 	.word	0x200006c8
 80031ec:	08005660 	.word	0x08005660
 80031f0:	08005668 	.word	0x08005668

080031f4 <onGetPort>:
 80031f4:	b5f8      	push	{r3, r4, r5, r6, r7, lr}
 80031f6:	4d12      	ldr	r5, [pc, #72]	; (8003240 <onGetPort+0x4c>)
 80031f8:	4b12      	ldr	r3, [pc, #72]	; (8003244 <onGetPort+0x50>)
 80031fa:	002a      	movs	r2, r5
 80031fc:	0006      	movs	r6, r0
 80031fe:	cb03      	ldmia	r3!, {r0, r1}
 8003200:	c203      	stmia	r2!, {r0, r1}
 8003202:	881b      	ldrh	r3, [r3, #0]
 8003204:	002c      	movs	r4, r5
 8003206:	8013      	strh	r3, [r2, #0]
 8003208:	236a      	movs	r3, #106	; 0x6a
 800320a:	4f0f      	ldr	r7, [pc, #60]	; (8003248 <onGetPort+0x54>)
 800320c:	3409      	adds	r4, #9
 800320e:	5af8      	ldrh	r0, [r7, r3]
 8003210:	0021      	movs	r1, r4
 8003212:	f000 fba9 	bl	8003968 <u16toa>
 8003216:	1824      	adds	r4, r4, r0
 8003218:	220a      	movs	r2, #10
 800321a:	0020      	movs	r0, r4
 800321c:	490b      	ldr	r1, [pc, #44]	; (800324c <onGetPort+0x58>)
 800321e:	f002 f885 	bl	800532c <memcpy>
 8003222:	236c      	movs	r3, #108	; 0x6c
 8003224:	3409      	adds	r4, #9
 8003226:	5af8      	ldrh	r0, [r7, r3]
 8003228:	0021      	movs	r1, r4
 800322a:	f000 fb9d 	bl	8003968 <u16toa>
 800322e:	2300      	movs	r3, #0
 8003230:	002a      	movs	r2, r5
 8003232:	5423      	strb	r3, [r4, r0]
 8003234:	21c8      	movs	r1, #200	; 0xc8
 8003236:	0030      	movs	r0, r6
 8003238:	f000 fca4 	bl	8003b84 <HTTPSendStr>
 800323c:	bdf8      	pop	{r3, r4, r5, r6, r7, pc}
 800323e:	46c0      	nop			; (mov r8, r8)
 8003240:	20000758 	.word	0x20000758
 8003244:	0800566c 	.word	0x0800566c
 8003248:	20000d94 	.word	0x20000d94
 800324c:	08005678 	.word	0x08005678

08003250 <onGetLabel>:
 8003250:	b5f0      	push	{r4, r5, r6, r7, lr}
 8003252:	46de      	mov	lr, fp
 8003254:	4657      	mov	r7, sl
 8003256:	464e      	mov	r6, r9
 8003258:	4645      	mov	r5, r8
 800325a:	b5e0      	push	{r5, r6, r7, lr}
 800325c:	4b1f      	ldr	r3, [pc, #124]	; (80032dc <onGetLabel+0x8c>)
 800325e:	4f20      	ldr	r7, [pc, #128]	; (80032e0 <onGetLabel+0x90>)
 8003260:	b083      	sub	sp, #12
 8003262:	0039      	movs	r1, r7
 8003264:	9001      	str	r0, [sp, #4]
 8003266:	0018      	movs	r0, r3
 8003268:	469b      	mov	fp, r3
 800326a:	f000 feef 	bl	800404c <strcpy_f>
 800326e:	2331      	movs	r3, #49	; 0x31
 8003270:	4d1c      	ldr	r5, [pc, #112]	; (80032e4 <onGetLabel+0x94>)
 8003272:	7003      	strb	r3, [r0, #0]
 8003274:	330c      	adds	r3, #12
 8003276:	7043      	strb	r3, [r0, #1]
 8003278:	0029      	movs	r1, r5
 800327a:	2210      	movs	r2, #16
 800327c:	3002      	adds	r0, #2
 800327e:	f000 feef 	bl	8004060 <strncpy_f>
 8003282:	2301      	movs	r3, #1
 8003284:	4e18      	ldr	r6, [pc, #96]	; (80032e8 <onGetLabel+0x98>)
 8003286:	2432      	movs	r4, #50	; 0x32
 8003288:	7033      	strb	r3, [r6, #0]
 800328a:	3325      	adds	r3, #37	; 0x25
 800328c:	469a      	mov	sl, r3
 800328e:	3317      	adds	r3, #23
 8003290:	4699      	mov	r9, r3
 8003292:	3b3c      	subs	r3, #60	; 0x3c
 8003294:	4698      	mov	r8, r3
 8003296:	3510      	adds	r5, #16
 8003298:	4653      	mov	r3, sl
 800329a:	0039      	movs	r1, r7
 800329c:	7003      	strb	r3, [r0, #0]
 800329e:	3001      	adds	r0, #1
 80032a0:	f000 fed4 	bl	800404c <strcpy_f>
 80032a4:	464b      	mov	r3, r9
 80032a6:	7004      	strb	r4, [r0, #0]
 80032a8:	7043      	strb	r3, [r0, #1]
 80032aa:	0029      	movs	r1, r5
 80032ac:	2210      	movs	r2, #16
 80032ae:	3002      	adds	r0, #2
 80032b0:	f000 fed6 	bl	8004060 <strncpy_f>
 80032b4:	4643      	mov	r3, r8
 80032b6:	3401      	adds	r4, #1
 80032b8:	b2e4      	uxtb	r4, r4
 80032ba:	7033      	strb	r3, [r6, #0]
 80032bc:	3510      	adds	r5, #16
 80032be:	2c37      	cmp	r4, #55	; 0x37
 80032c0:	d1ea      	bne.n	8003298 <onGetLabel+0x48>
 80032c2:	465a      	mov	r2, fp
 80032c4:	21c8      	movs	r1, #200	; 0xc8
 80032c6:	9801      	ldr	r0, [sp, #4]
 80032c8:	f000 fc5c 	bl	8003b84 <HTTPSendStr>
 80032cc:	b003      	add	sp, #12
 80032ce:	bcf0      	pop	{r4, r5, r6, r7}
 80032d0:	46bb      	mov	fp, r7
 80032d2:	46b2      	mov	sl, r6
 80032d4:	46a9      	mov	r9, r5
 80032d6:	46a0      	mov	r8, r4
 80032d8:	bdf0      	pop	{r4, r5, r6, r7, pc}
 80032da:	46c0      	nop			; (mov r8, r8)
 80032dc:	200006d8 	.word	0x200006d8
 80032e0:	08005684 	.word	0x08005684
 80032e4:	20000d9e 	.word	0x20000d9e
 80032e8:	200006c4 	.word	0x200006c4

080032ec <onSetPort>:
 80032ec:	b5f0      	push	{r4, r5, r6, r7, lr}
 80032ee:	46c6      	mov	lr, r8
 80032f0:	2348      	movs	r3, #72	; 0x48
 80032f2:	b500      	push	{lr}
 80032f4:	5cc3      	ldrb	r3, [r0, r3]
 80032f6:	0004      	movs	r4, r0
 80032f8:	2b01      	cmp	r3, #1
 80032fa:	d93b      	bls.n	8003374 <onSetPort+0x88>
 80032fc:	4920      	ldr	r1, [pc, #128]	; (8003380 <onSetPort+0x94>)
 80032fe:	f000 fadf 	bl	80038c0 <getHTTPArg>
 8003302:	1e05      	subs	r5, r0, #0
 8003304:	d006      	beq.n	8003314 <onSetPort+0x28>
 8003306:	2105      	movs	r1, #5
 8003308:	f002 f880 	bl	800540c <strnlen>
 800330c:	3801      	subs	r0, #1
 800330e:	b280      	uxth	r0, r0
 8003310:	2804      	cmp	r0, #4
 8003312:	d908      	bls.n	8003326 <onSetPort+0x3a>
 8003314:	2196      	movs	r1, #150	; 0x96
 8003316:	0020      	movs	r0, r4
 8003318:	4a1a      	ldr	r2, [pc, #104]	; (8003384 <onSetPort+0x98>)
 800331a:	0049      	lsls	r1, r1, #1
 800331c:	f000 fc32 	bl	8003b84 <HTTPSendStr>
 8003320:	bc80      	pop	{r7}
 8003322:	46b8      	mov	r8, r7
 8003324:	bdf0      	pop	{r4, r5, r6, r7, pc}
 8003326:	0028      	movs	r0, r5
 8003328:	f000 fb04 	bl	8003934 <atou16>
 800332c:	2800      	cmp	r0, #0
 800332e:	d0f1      	beq.n	8003314 <onSetPort+0x28>
 8003330:	236a      	movs	r3, #106	; 0x6a
 8003332:	4f15      	ldr	r7, [pc, #84]	; (8003388 <onSetPort+0x9c>)
 8003334:	4e15      	ldr	r6, [pc, #84]	; (800338c <onSetPort+0xa0>)
 8003336:	52f8      	strh	r0, [r7, r3]
 8003338:	4915      	ldr	r1, [pc, #84]	; (8003390 <onSetPort+0xa4>)
 800333a:	3b69      	subs	r3, #105	; 0x69
 800333c:	0020      	movs	r0, r4
 800333e:	4698      	mov	r8, r3
 8003340:	7033      	strb	r3, [r6, #0]
 8003342:	f000 fabd 	bl	80038c0 <getHTTPArg>
 8003346:	1e05      	subs	r5, r0, #0
 8003348:	d0e4      	beq.n	8003314 <onSetPort+0x28>
 800334a:	2105      	movs	r1, #5
 800334c:	f002 f85e 	bl	800540c <strnlen>
 8003350:	3801      	subs	r0, #1
 8003352:	b280      	uxth	r0, r0
 8003354:	2804      	cmp	r0, #4
 8003356:	d8dd      	bhi.n	8003314 <onSetPort+0x28>
 8003358:	0028      	movs	r0, r5
 800335a:	f000 faeb 	bl	8003934 <atou16>
 800335e:	2800      	cmp	r0, #0
 8003360:	d0d8      	beq.n	8003314 <onSetPort+0x28>
 8003362:	236c      	movs	r3, #108	; 0x6c
 8003364:	52f8      	strh	r0, [r7, r3]
 8003366:	4643      	mov	r3, r8
 8003368:	0020      	movs	r0, r4
 800336a:	490a      	ldr	r1, [pc, #40]	; (8003394 <onSetPort+0xa8>)
 800336c:	7033      	strb	r3, [r6, #0]
 800336e:	f000 f8d1 	bl	8003514 <HTTPredirect>
 8003372:	e7d5      	b.n	8003320 <onSetPort+0x34>
 8003374:	2196      	movs	r1, #150	; 0x96
 8003376:	4a08      	ldr	r2, [pc, #32]	; (8003398 <onSetPort+0xac>)
 8003378:	0049      	lsls	r1, r1, #1
 800337a:	f000 fc03 	bl	8003b84 <HTTPSendStr>
 800337e:	e7cf      	b.n	8003320 <onSetPort+0x34>
 8003380:	08005694 	.word	0x08005694
 8003384:	080056a8 	.word	0x080056a8
 8003388:	20000d94 	.word	0x20000d94
 800338c:	200006c4 	.word	0x200006c4
 8003390:	080056a0 	.word	0x080056a0
 8003394:	080057ac 	.word	0x080057ac
 8003398:	08005688 	.word	0x08005688

0800339c <onSetLabel>:
 800339c:	b5f0      	push	{r4, r5, r6, r7, lr}
 800339e:	46c6      	mov	lr, r8
 80033a0:	b500      	push	{lr}
 80033a2:	4b1a      	ldr	r3, [pc, #104]	; (800340c <onSetLabel+0x70>)
 80033a4:	b082      	sub	sp, #8
 80033a6:	9300      	str	r3, [sp, #0]
 80033a8:	466a      	mov	r2, sp
 80033aa:	2300      	movs	r3, #0
 80033ac:	7113      	strb	r3, [r2, #4]
 80033ae:	3348      	adds	r3, #72	; 0x48
 80033b0:	5cc3      	ldrb	r3, [r0, r3]
 80033b2:	0006      	movs	r6, r0
 80033b4:	2b00      	cmp	r3, #0
 80033b6:	d022      	beq.n	80033fe <onSetLabel+0x62>
 80033b8:	4b15      	ldr	r3, [pc, #84]	; (8003410 <onSetLabel+0x74>)
 80033ba:	2401      	movs	r4, #1
 80033bc:	4698      	mov	r8, r3
 80033be:	2701      	movs	r7, #1
 80033c0:	4d14      	ldr	r5, [pc, #80]	; (8003414 <onSetLabel+0x78>)
 80033c2:	466b      	mov	r3, sp
 80033c4:	0020      	movs	r0, r4
 80033c6:	1cd9      	adds	r1, r3, #3
 80033c8:	f000 face 	bl	8003968 <u16toa>
 80033cc:	4669      	mov	r1, sp
 80033ce:	0030      	movs	r0, r6
 80033d0:	f000 fa76 	bl	80038c0 <getHTTPArg>
 80033d4:	1e01      	subs	r1, r0, #0
 80033d6:	d005      	beq.n	80033e4 <onSetLabel+0x48>
 80033d8:	2210      	movs	r2, #16
 80033da:	0028      	movs	r0, r5
 80033dc:	f002 f802 	bl	80053e4 <strncpy>
 80033e0:	4643      	mov	r3, r8
 80033e2:	701f      	strb	r7, [r3, #0]
 80033e4:	3401      	adds	r4, #1
 80033e6:	b2a4      	uxth	r4, r4
 80033e8:	3510      	adds	r5, #16
 80033ea:	2c07      	cmp	r4, #7
 80033ec:	d1e9      	bne.n	80033c2 <onSetLabel+0x26>
 80033ee:	0030      	movs	r0, r6
 80033f0:	4909      	ldr	r1, [pc, #36]	; (8003418 <onSetLabel+0x7c>)
 80033f2:	f000 f88f 	bl	8003514 <HTTPredirect>
 80033f6:	b002      	add	sp, #8
 80033f8:	bc80      	pop	{r7}
 80033fa:	46b8      	mov	r8, r7
 80033fc:	bdf0      	pop	{r4, r5, r6, r7, pc}
 80033fe:	2196      	movs	r1, #150	; 0x96
 8003400:	4a06      	ldr	r2, [pc, #24]	; (800341c <onSetLabel+0x80>)
 8003402:	0049      	lsls	r1, r1, #1
 8003404:	f000 fbbe 	bl	8003b84 <HTTPSendStr>
 8003408:	e7f5      	b.n	80033f6 <onSetLabel+0x5a>
 800340a:	46c0      	nop			; (mov r8, r8)
 800340c:	00746e61 	.word	0x00746e61
 8003410:	200006c4 	.word	0x200006c4
 8003414:	20000d9e 	.word	0x20000d9e
 8003418:	080057ac 	.word	0x080057ac
 800341c:	08005688 	.word	0x08005688

08003420 <resetHTTPParseState>:
 8003420:	2300      	movs	r3, #0
 8003422:	2248      	movs	r2, #72	; 0x48
 8003424:	7003      	strb	r3, [r0, #0]
 8003426:	5483      	strb	r3, [r0, r2]
 8003428:	3264      	adds	r2, #100	; 0x64
 800342a:	7103      	strb	r3, [r0, #4]
 800342c:	70c3      	strb	r3, [r0, #3]
 800342e:	5483      	strb	r3, [r0, r2]
 8003430:	3a10      	subs	r2, #16
 8003432:	5483      	strb	r3, [r0, r2]
 8003434:	3208      	adds	r2, #8
 8003436:	5283      	strh	r3, [r0, r2]
 8003438:	4a01      	ldr	r2, [pc, #4]	; (8003440 <resetHTTPParseState+0x20>)
 800343a:	33a0      	adds	r3, #160	; 0xa0
 800343c:	50c2      	str	r2, [r0, r3]
 800343e:	4770      	bx	lr
 8003440:	20000e30 	.word	0x20000e30

08003444 <HTTPGetContentType>:
 8003444:	b5f8      	push	{r3, r4, r5, r6, r7, lr}
 8003446:	0004      	movs	r4, r0
 8003448:	f7fc fe68 	bl	800011c <strlen>
 800344c:	0005      	movs	r5, r0
 800344e:	2803      	cmp	r0, #3
 8003450:	d936      	bls.n	80034c0 <HTTPGetContentType+0x7c>
 8003452:	1f46      	subs	r6, r0, #5
 8003454:	19a6      	adds	r6, r4, r6
 8003456:	0030      	movs	r0, r6
 8003458:	491f      	ldr	r1, [pc, #124]	; (80034d8 <HTTPGetContentType+0x94>)
 800345a:	f7fc fe55 	bl	8000108 <strcmp>
 800345e:	2800      	cmp	r0, #0
 8003460:	d030      	beq.n	80034c4 <HTTPGetContentType+0x80>
 8003462:	1f2f      	subs	r7, r5, #4
 8003464:	19e7      	adds	r7, r4, r7
 8003466:	0038      	movs	r0, r7
 8003468:	491c      	ldr	r1, [pc, #112]	; (80034dc <HTTPGetContentType+0x98>)
 800346a:	f7fc fe4d 	bl	8000108 <strcmp>
 800346e:	2800      	cmp	r0, #0
 8003470:	d028      	beq.n	80034c4 <HTTPGetContentType+0x80>
 8003472:	0038      	movs	r0, r7
 8003474:	491a      	ldr	r1, [pc, #104]	; (80034e0 <HTTPGetContentType+0x9c>)
 8003476:	f7fc fe47 	bl	8000108 <strcmp>
 800347a:	2800      	cmp	r0, #0
 800347c:	d024      	beq.n	80034c8 <HTTPGetContentType+0x84>
 800347e:	1ee8      	subs	r0, r5, #3
 8003480:	4918      	ldr	r1, [pc, #96]	; (80034e4 <HTTPGetContentType+0xa0>)
 8003482:	1820      	adds	r0, r4, r0
 8003484:	f7fc fe40 	bl	8000108 <strcmp>
 8003488:	2800      	cmp	r0, #0
 800348a:	d021      	beq.n	80034d0 <HTTPGetContentType+0x8c>
 800348c:	0038      	movs	r0, r7
 800348e:	4916      	ldr	r1, [pc, #88]	; (80034e8 <HTTPGetContentType+0xa4>)
 8003490:	f7fc fe3a 	bl	8000108 <strcmp>
 8003494:	2800      	cmp	r0, #0
 8003496:	d01d      	beq.n	80034d4 <HTTPGetContentType+0x90>
 8003498:	0038      	movs	r0, r7
 800349a:	4914      	ldr	r1, [pc, #80]	; (80034ec <HTTPGetContentType+0xa8>)
 800349c:	f7fc fe34 	bl	8000108 <strcmp>
 80034a0:	2800      	cmp	r0, #0
 80034a2:	d013      	beq.n	80034cc <HTTPGetContentType+0x88>
 80034a4:	0030      	movs	r0, r6
 80034a6:	4912      	ldr	r1, [pc, #72]	; (80034f0 <HTTPGetContentType+0xac>)
 80034a8:	f7fc fe2e 	bl	8000108 <strcmp>
 80034ac:	2800      	cmp	r0, #0
 80034ae:	d00d      	beq.n	80034cc <HTTPGetContentType+0x88>
 80034b0:	0038      	movs	r0, r7
 80034b2:	4910      	ldr	r1, [pc, #64]	; (80034f4 <HTTPGetContentType+0xb0>)
 80034b4:	f7fc fe28 	bl	8000108 <strcmp>
 80034b8:	2800      	cmp	r0, #0
 80034ba:	d101      	bne.n	80034c0 <HTTPGetContentType+0x7c>
 80034bc:	480e      	ldr	r0, [pc, #56]	; (80034f8 <HTTPGetContentType+0xb4>)
 80034be:	e000      	b.n	80034c2 <HTTPGetContentType+0x7e>
 80034c0:	480e      	ldr	r0, [pc, #56]	; (80034fc <HTTPGetContentType+0xb8>)
 80034c2:	bdf8      	pop	{r3, r4, r5, r6, r7, pc}
 80034c4:	480e      	ldr	r0, [pc, #56]	; (8003500 <HTTPGetContentType+0xbc>)
 80034c6:	e7fc      	b.n	80034c2 <HTTPGetContentType+0x7e>
 80034c8:	480e      	ldr	r0, [pc, #56]	; (8003504 <HTTPGetContentType+0xc0>)
 80034ca:	e7fa      	b.n	80034c2 <HTTPGetContentType+0x7e>
 80034cc:	480e      	ldr	r0, [pc, #56]	; (8003508 <HTTPGetContentType+0xc4>)
 80034ce:	e7f8      	b.n	80034c2 <HTTPGetContentType+0x7e>
 80034d0:	480e      	ldr	r0, [pc, #56]	; (800350c <HTTPGetContentType+0xc8>)
 80034d2:	e7f6      	b.n	80034c2 <HTTPGetContentType+0x7e>
 80034d4:	480e      	ldr	r0, [pc, #56]	; (8003510 <HTTPGetContentType+0xcc>)
 80034d6:	e7f4      	b.n	80034c2 <HTTPGetContentType+0x7e>
 80034d8:	08005714 	.word	0x08005714
 80034dc:	0800571c 	.word	0x0800571c
 80034e0:	08005724 	.word	0x08005724
 80034e4:	0800572c 	.word	0x0800572c
 80034e8:	08005730 	.word	0x08005730
 80034ec:	08005738 	.word	0x08005738
 80034f0:	08005740 	.word	0x08005740
 80034f4:	08005748 	.word	0x08005748
 80034f8:	0800582c 	.word	0x0800582c
 80034fc:	08005868 	.word	0x08005868
 8003500:	08005838 	.word	0x08005838
 8003504:	08005820 	.word	0x08005820
 8003508:	08005844 	.word	0x08005844
 800350c:	08005850 	.word	0x08005850
 8003510:	08005874 	.word	0x08005874

08003514 <HTTPredirect>:
 8003514:	b5f8      	push	{r3, r4, r5, r6, r7, lr}
 8003516:	46ce      	mov	lr, r9
 8003518:	4647      	mov	r7, r8
 800351a:	b580      	push	{r7, lr}
 800351c:	27a0      	movs	r7, #160	; 0xa0
 800351e:	59c4      	ldr	r4, [r0, r7]
 8003520:	0005      	movs	r5, r0
 8003522:	4689      	mov	r9, r1
 8003524:	2209      	movs	r2, #9
 8003526:	0020      	movs	r0, r4
 8003528:	4946      	ldr	r1, [pc, #280]	; (8003644 <HTTPredirect+0x130>)
 800352a:	f001 feff 	bl	800532c <memcpy>
 800352e:	0026      	movs	r6, r4
 8003530:	0020      	movs	r0, r4
 8003532:	2205      	movs	r2, #5
 8003534:	4944      	ldr	r1, [pc, #272]	; (8003648 <HTTPredirect+0x134>)
 8003536:	360c      	adds	r6, #12
 8003538:	3008      	adds	r0, #8
 800353a:	f001 fef7 	bl	800532c <memcpy>
 800353e:	0030      	movs	r0, r6
 8003540:	f7fc fdec 	bl	800011c <strlen>
 8003544:	2207      	movs	r2, #7
 8003546:	4941      	ldr	r1, [pc, #260]	; (800364c <HTTPredirect+0x138>)
 8003548:	1830      	adds	r0, r6, r0
 800354a:	f001 feef 	bl	800532c <memcpy>
 800354e:	2312      	movs	r3, #18
 8003550:	4698      	mov	r8, r3
 8003552:	44a0      	add	r8, r4
 8003554:	4640      	mov	r0, r8
 8003556:	f7fc fde1 	bl	800011c <strlen>
 800355a:	4e3d      	ldr	r6, [pc, #244]	; (8003650 <HTTPredirect+0x13c>)
 800355c:	2203      	movs	r2, #3
 800355e:	0031      	movs	r1, r6
 8003560:	4440      	add	r0, r8
 8003562:	f001 fee3 	bl	800532c <memcpy>
 8003566:	2314      	movs	r3, #20
 8003568:	4698      	mov	r8, r3
 800356a:	44a0      	add	r8, r4
 800356c:	4640      	mov	r0, r8
 800356e:	f7fc fdd5 	bl	800011c <strlen>
 8003572:	220d      	movs	r2, #13
 8003574:	4937      	ldr	r1, [pc, #220]	; (8003654 <HTTPredirect+0x140>)
 8003576:	4440      	add	r0, r8
 8003578:	f001 fed8 	bl	800532c <memcpy>
 800357c:	2320      	movs	r3, #32
 800357e:	4698      	mov	r8, r3
 8003580:	44a0      	add	r8, r4
 8003582:	4640      	mov	r0, r8
 8003584:	f7fc fdca 	bl	800011c <strlen>
 8003588:	2207      	movs	r2, #7
 800358a:	4933      	ldr	r1, [pc, #204]	; (8003658 <HTTPredirect+0x144>)
 800358c:	4440      	add	r0, r8
 800358e:	f001 fecd 	bl	800532c <memcpy>
 8003592:	2326      	movs	r3, #38	; 0x26
 8003594:	4698      	mov	r8, r3
 8003596:	44a0      	add	r8, r4
 8003598:	4640      	mov	r0, r8
 800359a:	f7fc fdbf 	bl	800011c <strlen>
 800359e:	0031      	movs	r1, r6
 80035a0:	2203      	movs	r2, #3
 80035a2:	4440      	add	r0, r8
 80035a4:	f001 fec2 	bl	800532c <memcpy>
 80035a8:	2328      	movs	r3, #40	; 0x28
 80035aa:	4698      	mov	r8, r3
 80035ac:	44a0      	add	r8, r4
 80035ae:	4640      	mov	r0, r8
 80035b0:	f7fc fdb4 	bl	800011c <strlen>
 80035b4:	2211      	movs	r2, #17
 80035b6:	4929      	ldr	r1, [pc, #164]	; (800365c <HTTPredirect+0x148>)
 80035b8:	4440      	add	r0, r8
 80035ba:	f001 feb7 	bl	800532c <memcpy>
 80035be:	2338      	movs	r3, #56	; 0x38
 80035c0:	4698      	mov	r8, r3
 80035c2:	44a0      	add	r8, r4
 80035c4:	4640      	mov	r0, r8
 80035c6:	f7fc fda9 	bl	800011c <strlen>
 80035ca:	2202      	movs	r2, #2
 80035cc:	4924      	ldr	r1, [pc, #144]	; (8003660 <HTTPredirect+0x14c>)
 80035ce:	4440      	add	r0, r8
 80035d0:	f001 feac 	bl	800532c <memcpy>
 80035d4:	2339      	movs	r3, #57	; 0x39
 80035d6:	4698      	mov	r8, r3
 80035d8:	44a0      	add	r8, r4
 80035da:	4640      	mov	r0, r8
 80035dc:	f7fc fd9e 	bl	800011c <strlen>
 80035e0:	0031      	movs	r1, r6
 80035e2:	2203      	movs	r2, #3
 80035e4:	4440      	add	r0, r8
 80035e6:	f001 fea1 	bl	800532c <memcpy>
 80035ea:	233b      	movs	r3, #59	; 0x3b
 80035ec:	4698      	mov	r8, r3
 80035ee:	44a0      	add	r8, r4
 80035f0:	4640      	mov	r0, r8
 80035f2:	f7fc fd93 	bl	800011c <strlen>
 80035f6:	3445      	adds	r4, #69	; 0x45
 80035f8:	220b      	movs	r2, #11
 80035fa:	491a      	ldr	r1, [pc, #104]	; (8003664 <HTTPredirect+0x150>)
 80035fc:	4440      	add	r0, r8
 80035fe:	f001 fe95 	bl	800532c <memcpy>
 8003602:	0020      	movs	r0, r4
 8003604:	f7fc fd8a 	bl	800011c <strlen>
 8003608:	4649      	mov	r1, r9
 800360a:	1820      	adds	r0, r4, r0
 800360c:	f001 fe9f 	bl	800534e <stpcpy>
 8003610:	0004      	movs	r4, r0
 8003612:	0031      	movs	r1, r6
 8003614:	2203      	movs	r2, #3
 8003616:	f001 fe89 	bl	800532c <memcpy>
 800361a:	0031      	movs	r1, r6
 800361c:	2203      	movs	r2, #3
 800361e:	1ca0      	adds	r0, r4, #2
 8003620:	f001 fe84 	bl	800532c <memcpy>
 8003624:	59e8      	ldr	r0, [r5, r7]
 8003626:	f7fc fd79 	bl	800011c <strlen>
 800362a:	239e      	movs	r3, #158	; 0x9e
 800362c:	2200      	movs	r2, #0
 800362e:	52e8      	strh	r0, [r5, r3]
 8003630:	3306      	adds	r3, #6
 8003632:	52ea      	strh	r2, [r5, r3]
 8003634:	3b08      	subs	r3, #8
 8003636:	3201      	adds	r2, #1
 8003638:	54ea      	strb	r2, [r5, r3]
 800363a:	bcc0      	pop	{r6, r7}
 800363c:	46b9      	mov	r9, r7
 800363e:	46b0      	mov	r8, r6
 8003640:	bdf8      	pop	{r3, r4, r5, r6, r7, pc}
 8003642:	46c0      	nop			; (mov r8, r8)
 8003644:	0800579c 	.word	0x0800579c
 8003648:	08005750 	.word	0x08005750
 800364c:	08005758 	.word	0x08005758
 8003650:	08005668 	.word	0x08005668
 8003654:	08005760 	.word	0x08005760
 8003658:	08005770 	.word	0x08005770
 800365c:	08005778 	.word	0x08005778
 8003660:	0800578c 	.word	0x0800578c
 8003664:	08005790 	.word	0x08005790

08003668 <strsepstr>:
 8003668:	b5f8      	push	{r3, r4, r5, r6, r7, lr}
 800366a:	6807      	ldr	r7, [r0, #0]
 800366c:	0004      	movs	r4, r0
 800366e:	000e      	movs	r6, r1
 8003670:	2f00      	cmp	r7, #0
 8003672:	d00f      	beq.n	8003694 <strsepstr+0x2c>
 8003674:	0038      	movs	r0, r7
 8003676:	f001 fef4 	bl	8005462 <strstr>
 800367a:	1e05      	subs	r5, r0, #0
 800367c:	d00c      	beq.n	8003698 <strsepstr+0x30>
 800367e:	0030      	movs	r0, r6
 8003680:	f7fc fd4c 	bl	800011c <strlen>
 8003684:	0006      	movs	r6, r0
 8003686:	0002      	movs	r2, r0
 8003688:	2100      	movs	r1, #0
 800368a:	0028      	movs	r0, r5
 800368c:	19ad      	adds	r5, r5, r6
 800368e:	f001 fe56 	bl	800533e <memset>
 8003692:	6025      	str	r5, [r4, #0]
 8003694:	0038      	movs	r0, r7
 8003696:	bdf8      	pop	{r3, r4, r5, r6, r7, pc}
 8003698:	6020      	str	r0, [r4, #0]
 800369a:	e7fb      	b.n	8003694 <strsepstr+0x2c>

0800369c <parse_http>:
 800369c:	b5f0      	push	{r4, r5, r6, r7, lr}
 800369e:	4645      	mov	r5, r8
 80036a0:	46de      	mov	lr, fp
 80036a2:	4657      	mov	r7, sl
 80036a4:	464e      	mov	r6, r9
 80036a6:	b5e0      	push	{r5, r6, r7, lr}
 80036a8:	7803      	ldrb	r3, [r0, #0]
 80036aa:	0005      	movs	r5, r0
 80036ac:	b085      	sub	sp, #20
 80036ae:	2b03      	cmp	r3, #3
 80036b0:	d04e      	beq.n	8003750 <parse_http+0xb4>
 80036b2:	d83d      	bhi.n	8003730 <parse_http+0x94>
 80036b4:	2b00      	cmp	r3, #0
 80036b6:	d05e      	beq.n	8003776 <parse_http+0xda>
 80036b8:	2b01      	cmp	r3, #1
 80036ba:	d13e      	bne.n	800373a <parse_http+0x9e>
 80036bc:	4b76      	ldr	r3, [pc, #472]	; (8003898 <parse_http+0x1fc>)
 80036be:	4699      	mov	r9, r3
 80036c0:	ab01      	add	r3, sp, #4
 80036c2:	4698      	mov	r8, r3
 80036c4:	4649      	mov	r1, r9
 80036c6:	4640      	mov	r0, r8
 80036c8:	f7ff ffce 	bl	8003668 <strsepstr>
 80036cc:	2800      	cmp	r0, #0
 80036ce:	d03c      	beq.n	800374a <parse_http+0xae>
 80036d0:	4b72      	ldr	r3, [pc, #456]	; (800389c <parse_http+0x200>)
 80036d2:	4f73      	ldr	r7, [pc, #460]	; (80038a0 <parse_http+0x204>)
 80036d4:	469a      	mov	sl, r3
 80036d6:	4b73      	ldr	r3, [pc, #460]	; (80038a4 <parse_http+0x208>)
 80036d8:	ae02      	add	r6, sp, #8
 80036da:	469b      	mov	fp, r3
 80036dc:	e00b      	b.n	80036f6 <parse_http+0x5a>
 80036de:	4659      	mov	r1, fp
 80036e0:	0020      	movs	r0, r4
 80036e2:	f7fc fd11 	bl	8000108 <strcmp>
 80036e6:	2800      	cmp	r0, #0
 80036e8:	d039      	beq.n	800375e <parse_http+0xc2>
 80036ea:	4649      	mov	r1, r9
 80036ec:	4640      	mov	r0, r8
 80036ee:	f7ff ffbb 	bl	8003668 <strsepstr>
 80036f2:	2800      	cmp	r0, #0
 80036f4:	d029      	beq.n	800374a <parse_http+0xae>
 80036f6:	0032      	movs	r2, r6
 80036f8:	0039      	movs	r1, r7
 80036fa:	f001 fef7 	bl	80054ec <strtok_r>
 80036fe:	1e04      	subs	r4, r0, #0
 8003700:	d023      	beq.n	800374a <parse_http+0xae>
 8003702:	7803      	ldrb	r3, [r0, #0]
 8003704:	2b00      	cmp	r3, #0
 8003706:	d020      	beq.n	800374a <parse_http+0xae>
 8003708:	4651      	mov	r1, sl
 800370a:	f7fc fcfd 	bl	8000108 <strcmp>
 800370e:	2800      	cmp	r0, #0
 8003710:	d1e5      	bne.n	80036de <parse_http+0x42>
 8003712:	0032      	movs	r2, r6
 8003714:	0039      	movs	r1, r7
 8003716:	f001 fee9 	bl	80054ec <strtok_r>
 800371a:	2800      	cmp	r0, #0
 800371c:	d100      	bne.n	8003720 <parse_http+0x84>
 800371e:	e08c      	b.n	800383a <parse_http+0x19e>
 8003720:	4961      	ldr	r1, [pc, #388]	; (80038a8 <parse_http+0x20c>)
 8003722:	f001 fe9e 	bl	8005462 <strstr>
 8003726:	2800      	cmp	r0, #0
 8003728:	d0df      	beq.n	80036ea <parse_http+0x4e>
 800372a:	2301      	movs	r3, #1
 800372c:	712b      	strb	r3, [r5, #4]
 800372e:	e7dc      	b.n	80036ea <parse_http+0x4e>
 8003730:	2b04      	cmp	r3, #4
 8003732:	d102      	bne.n	800373a <parse_http+0x9e>
 8003734:	23ac      	movs	r3, #172	; 0xac
 8003736:	2201      	movs	r2, #1
 8003738:	54ea      	strb	r2, [r5, r3]
 800373a:	2001      	movs	r0, #1
 800373c:	b005      	add	sp, #20
 800373e:	bcf0      	pop	{r4, r5, r6, r7}
 8003740:	46bb      	mov	fp, r7
 8003742:	46b2      	mov	sl, r6
 8003744:	46a9      	mov	r9, r5
 8003746:	46a0      	mov	r8, r4
 8003748:	bdf0      	pop	{r4, r5, r6, r7, pc}
 800374a:	782b      	ldrb	r3, [r5, #0]
 800374c:	3301      	adds	r3, #1
 800374e:	702b      	strb	r3, [r5, #0]
 8003750:	78eb      	ldrb	r3, [r5, #3]
 8003752:	2b01      	cmp	r3, #1
 8003754:	d077      	beq.n	8003846 <parse_http+0x1aa>
 8003756:	782b      	ldrb	r3, [r5, #0]
 8003758:	3301      	adds	r3, #1
 800375a:	702b      	strb	r3, [r5, #0]
 800375c:	e7ea      	b.n	8003734 <parse_http+0x98>
 800375e:	0039      	movs	r1, r7
 8003760:	0032      	movs	r2, r6
 8003762:	f001 fec3 	bl	80054ec <strtok_r>
 8003766:	1e01      	subs	r1, r0, #0
 8003768:	d067      	beq.n	800383a <parse_http+0x19e>
 800376a:	0028      	movs	r0, r5
 800376c:	2240      	movs	r2, #64	; 0x40
 800376e:	305c      	adds	r0, #92	; 0x5c
 8003770:	f001 fe38 	bl	80053e4 <strncpy>
 8003774:	e7b9      	b.n	80036ea <parse_http+0x4e>
 8003776:	4b48      	ldr	r3, [pc, #288]	; (8003898 <parse_http+0x1fc>)
 8003778:	9101      	str	r1, [sp, #4]
 800377a:	4699      	mov	r9, r3
 800377c:	ab01      	add	r3, sp, #4
 800377e:	4649      	mov	r1, r9
 8003780:	0018      	movs	r0, r3
 8003782:	4698      	mov	r8, r3
 8003784:	f7ff ff70 	bl	8003668 <strsepstr>
 8003788:	1e04      	subs	r4, r0, #0
 800378a:	d056      	beq.n	800383a <parse_http+0x19e>
 800378c:	22c0      	movs	r2, #192	; 0xc0
 800378e:	4947      	ldr	r1, [pc, #284]	; (80038ac <parse_http+0x210>)
 8003790:	00d2      	lsls	r2, r2, #3
 8003792:	f001 fe46 	bl	8005422 <strnstr>
 8003796:	2800      	cmp	r0, #0
 8003798:	d04f      	beq.n	800383a <parse_http+0x19e>
 800379a:	4b45      	ldr	r3, [pc, #276]	; (80038b0 <parse_http+0x214>)
 800379c:	ae02      	add	r6, sp, #8
 800379e:	0020      	movs	r0, r4
 80037a0:	0032      	movs	r2, r6
 80037a2:	0019      	movs	r1, r3
 80037a4:	469a      	mov	sl, r3
 80037a6:	f001 fea1 	bl	80054ec <strtok_r>
 80037aa:	1e04      	subs	r4, r0, #0
 80037ac:	d045      	beq.n	800383a <parse_http+0x19e>
 80037ae:	4941      	ldr	r1, [pc, #260]	; (80038b4 <parse_http+0x218>)
 80037b0:	f7fc fcaa 	bl	8000108 <strcmp>
 80037b4:	2800      	cmp	r0, #0
 80037b6:	d166      	bne.n	8003886 <parse_http+0x1ea>
 80037b8:	2300      	movs	r3, #0
 80037ba:	70eb      	strb	r3, [r5, #3]
 80037bc:	4651      	mov	r1, sl
 80037be:	0032      	movs	r2, r6
 80037c0:	2000      	movs	r0, #0
 80037c2:	f001 fe93 	bl	80054ec <strtok_r>
 80037c6:	1e01      	subs	r1, r0, #0
 80037c8:	d037      	beq.n	800383a <parse_http+0x19e>
 80037ca:	1d6f      	adds	r7, r5, #5
 80037cc:	2240      	movs	r2, #64	; 0x40
 80037ce:	0038      	movs	r0, r7
 80037d0:	f001 fe08 	bl	80053e4 <strncpy>
 80037d4:	78ec      	ldrb	r4, [r5, #3]
 80037d6:	2c00      	cmp	r4, #0
 80037d8:	d124      	bne.n	8003824 <parse_http+0x188>
 80037da:	213f      	movs	r1, #63	; 0x3f
 80037dc:	0038      	movs	r0, r7
 80037de:	f001 fdcc 	bl	800537a <strchr>
 80037e2:	2800      	cmp	r0, #0
 80037e4:	d01e      	beq.n	8003824 <parse_http+0x188>
 80037e6:	7843      	ldrb	r3, [r0, #1]
 80037e8:	7004      	strb	r4, [r0, #0]
 80037ea:	2b00      	cmp	r3, #0
 80037ec:	d01a      	beq.n	8003824 <parse_http+0x188>
 80037ee:	4c32      	ldr	r4, [pc, #200]	; (80038b8 <parse_http+0x21c>)
 80037f0:	af03      	add	r7, sp, #12
 80037f2:	003a      	movs	r2, r7
 80037f4:	0021      	movs	r1, r4
 80037f6:	3001      	adds	r0, #1
 80037f8:	f001 fe78 	bl	80054ec <strtok_r>
 80037fc:	2800      	cmp	r0, #0
 80037fe:	d011      	beq.n	8003824 <parse_http+0x188>
 8003800:	2348      	movs	r3, #72	; 0x48
 8003802:	469b      	mov	fp, r3
 8003804:	465b      	mov	r3, fp
 8003806:	4659      	mov	r1, fp
 8003808:	5ceb      	ldrb	r3, [r5, r3]
 800380a:	1c5a      	adds	r2, r3, #1
 800380c:	3312      	adds	r3, #18
 800380e:	009b      	lsls	r3, r3, #2
 8003810:	18eb      	adds	r3, r5, r3
 8003812:	546a      	strb	r2, [r5, r1]
 8003814:	6058      	str	r0, [r3, #4]
 8003816:	003a      	movs	r2, r7
 8003818:	0021      	movs	r1, r4
 800381a:	2000      	movs	r0, #0
 800381c:	f001 fe66 	bl	80054ec <strtok_r>
 8003820:	2800      	cmp	r0, #0
 8003822:	d1ef      	bne.n	8003804 <parse_http+0x168>
 8003824:	0032      	movs	r2, r6
 8003826:	4651      	mov	r1, sl
 8003828:	2000      	movs	r0, #0
 800382a:	f001 fe5f 	bl	80054ec <strtok_r>
 800382e:	2800      	cmp	r0, #0
 8003830:	d003      	beq.n	800383a <parse_http+0x19e>
 8003832:	782b      	ldrb	r3, [r5, #0]
 8003834:	3301      	adds	r3, #1
 8003836:	702b      	strb	r3, [r5, #0]
 8003838:	e744      	b.n	80036c4 <parse_http+0x28>
 800383a:	2300      	movs	r3, #0
 800383c:	22ac      	movs	r2, #172	; 0xac
 800383e:	702b      	strb	r3, [r5, #0]
 8003840:	2000      	movs	r0, #0
 8003842:	54ab      	strb	r3, [r5, r2]
 8003844:	e77a      	b.n	800373c <parse_http+0xa0>
 8003846:	4914      	ldr	r1, [pc, #80]	; (8003898 <parse_http+0x1fc>)
 8003848:	a801      	add	r0, sp, #4
 800384a:	f7ff ff0d 	bl	8003668 <strsepstr>
 800384e:	2800      	cmp	r0, #0
 8003850:	d100      	bne.n	8003854 <parse_http+0x1b8>
 8003852:	e780      	b.n	8003756 <parse_http+0xba>
 8003854:	4c18      	ldr	r4, [pc, #96]	; (80038b8 <parse_http+0x21c>)
 8003856:	af03      	add	r7, sp, #12
 8003858:	003a      	movs	r2, r7
 800385a:	0021      	movs	r1, r4
 800385c:	f001 fe46 	bl	80054ec <strtok_r>
 8003860:	2800      	cmp	r0, #0
 8003862:	d100      	bne.n	8003866 <parse_http+0x1ca>
 8003864:	e777      	b.n	8003756 <parse_http+0xba>
 8003866:	2648      	movs	r6, #72	; 0x48
 8003868:	5dab      	ldrb	r3, [r5, r6]
 800386a:	0021      	movs	r1, r4
 800386c:	1c5a      	adds	r2, r3, #1
 800386e:	3312      	adds	r3, #18
 8003870:	009b      	lsls	r3, r3, #2
 8003872:	18eb      	adds	r3, r5, r3
 8003874:	55aa      	strb	r2, [r5, r6]
 8003876:	6058      	str	r0, [r3, #4]
 8003878:	003a      	movs	r2, r7
 800387a:	2000      	movs	r0, #0
 800387c:	f001 fe36 	bl	80054ec <strtok_r>
 8003880:	2800      	cmp	r0, #0
 8003882:	d1f1      	bne.n	8003868 <parse_http+0x1cc>
 8003884:	e767      	b.n	8003756 <parse_http+0xba>
 8003886:	0020      	movs	r0, r4
 8003888:	490c      	ldr	r1, [pc, #48]	; (80038bc <parse_http+0x220>)
 800388a:	f7fc fc3d 	bl	8000108 <strcmp>
 800388e:	2800      	cmp	r0, #0
 8003890:	d192      	bne.n	80037b8 <parse_http+0x11c>
 8003892:	2301      	movs	r3, #1
 8003894:	70eb      	strb	r3, [r5, #3]
 8003896:	e791      	b.n	80037bc <parse_http+0x120>
 8003898:	080058a4 	.word	0x080058a4
 800389c:	08005884 	.word	0x08005884
 80038a0:	0800581c 	.word	0x0800581c
 80038a4:	08005890 	.word	0x08005890
 80038a8:	080057b4 	.word	0x080057b4
 80038ac:	080057a8 	.word	0x080057a8
 80038b0:	08005880 	.word	0x08005880
 80038b4:	08005898 	.word	0x08005898
 80038b8:	080057b0 	.word	0x080057b0
 80038bc:	0800589c 	.word	0x0800589c

080038c0 <getHTTPArg>:
 80038c0:	2348      	movs	r3, #72	; 0x48
 80038c2:	b5f0      	push	{r4, r5, r6, r7, lr}
 80038c4:	5cc7      	ldrb	r7, [r0, r3]
 80038c6:	2f00      	cmp	r7, #0
 80038c8:	d018      	beq.n	80038fc <getHTTPArg+0x3c>
 80038ca:	304c      	adds	r0, #76	; 0x4c
 80038cc:	2500      	movs	r5, #0
 80038ce:	0006      	movs	r6, r0
 80038d0:	00ab      	lsls	r3, r5, #2
 80038d2:	58f0      	ldr	r0, [r6, r3]
 80038d4:	000a      	movs	r2, r1
 80038d6:	7803      	ldrb	r3, [r0, #0]
 80038d8:	2b00      	cmp	r3, #0
 80038da:	d107      	bne.n	80038ec <getHTTPArg+0x2c>
 80038dc:	e00b      	b.n	80038f6 <getHTTPArg+0x36>
 80038de:	429c      	cmp	r4, r3
 80038e0:	d109      	bne.n	80038f6 <getHTTPArg+0x36>
 80038e2:	7843      	ldrb	r3, [r0, #1]
 80038e4:	3001      	adds	r0, #1
 80038e6:	3201      	adds	r2, #1
 80038e8:	2b00      	cmp	r3, #0
 80038ea:	d004      	beq.n	80038f6 <getHTTPArg+0x36>
 80038ec:	7814      	ldrb	r4, [r2, #0]
 80038ee:	2c00      	cmp	r4, #0
 80038f0:	d1f5      	bne.n	80038de <getHTTPArg+0x1e>
 80038f2:	2b3d      	cmp	r3, #61	; 0x3d
 80038f4:	d004      	beq.n	8003900 <getHTTPArg+0x40>
 80038f6:	3501      	adds	r5, #1
 80038f8:	42af      	cmp	r7, r5
 80038fa:	dce9      	bgt.n	80038d0 <getHTTPArg+0x10>
 80038fc:	2000      	movs	r0, #0
 80038fe:	bdf0      	pop	{r4, r5, r6, r7, pc}
 8003900:	3001      	adds	r0, #1
 8003902:	e7fc      	b.n	80038fe <getHTTPArg+0x3e>

08003904 <atou8>:
 8003904:	0002      	movs	r2, r0
 8003906:	b510      	push	{r4, lr}
 8003908:	1cc4      	adds	r4, r0, #3
 800390a:	2000      	movs	r0, #0
 800390c:	7813      	ldrb	r3, [r2, #0]
 800390e:	2b00      	cmp	r3, #0
 8003910:	d00c      	beq.n	800392c <atou8+0x28>
 8003912:	0019      	movs	r1, r3
 8003914:	3930      	subs	r1, #48	; 0x30
 8003916:	2909      	cmp	r1, #9
 8003918:	d809      	bhi.n	800392e <atou8+0x2a>
 800391a:	0081      	lsls	r1, r0, #2
 800391c:	1840      	adds	r0, r0, r1
 800391e:	0040      	lsls	r0, r0, #1
 8003920:	181b      	adds	r3, r3, r0
 8003922:	3b30      	subs	r3, #48	; 0x30
 8003924:	3201      	adds	r2, #1
 8003926:	b2d8      	uxtb	r0, r3
 8003928:	42a2      	cmp	r2, r4
 800392a:	d1ef      	bne.n	800390c <atou8+0x8>
 800392c:	bd10      	pop	{r4, pc}
 800392e:	20ff      	movs	r0, #255	; 0xff
 8003930:	e7fc      	b.n	800392c <atou8+0x28>
 8003932:	46c0      	nop			; (mov r8, r8)

08003934 <atou16>:
 8003934:	2200      	movs	r2, #0
 8003936:	b510      	push	{r4, lr}
 8003938:	1d44      	adds	r4, r0, #5
 800393a:	7803      	ldrb	r3, [r0, #0]
 800393c:	2b00      	cmp	r3, #0
 800393e:	d00c      	beq.n	800395a <atou16+0x26>
 8003940:	0019      	movs	r1, r3
 8003942:	3930      	subs	r1, #48	; 0x30
 8003944:	2909      	cmp	r1, #9
 8003946:	d80a      	bhi.n	800395e <atou16+0x2a>
 8003948:	0091      	lsls	r1, r2, #2
 800394a:	1852      	adds	r2, r2, r1
 800394c:	0052      	lsls	r2, r2, #1
 800394e:	189b      	adds	r3, r3, r2
 8003950:	3b30      	subs	r3, #48	; 0x30
 8003952:	3001      	adds	r0, #1
 8003954:	b2da      	uxtb	r2, r3
 8003956:	42a0      	cmp	r0, r4
 8003958:	d1ef      	bne.n	800393a <atou16+0x6>
 800395a:	b290      	uxth	r0, r2
 800395c:	bd10      	pop	{r4, pc}
 800395e:	4801      	ldr	r0, [pc, #4]	; (8003964 <atou16+0x30>)
 8003960:	e7fc      	b.n	800395c <atou16+0x28>
 8003962:	46c0      	nop			; (mov r8, r8)
 8003964:	0000ffff 	.word	0x0000ffff

08003968 <u16toa>:
 8003968:	b5f8      	push	{r3, r4, r5, r6, r7, lr}
 800396a:	0004      	movs	r4, r0
 800396c:	000e      	movs	r6, r1
 800396e:	2800      	cmp	r0, #0
 8003970:	d022      	beq.n	80039b8 <u16toa+0x50>
 8003972:	2500      	movs	r5, #0
 8003974:	0020      	movs	r0, r4
 8003976:	210a      	movs	r1, #10
 8003978:	f7fc fc5e 	bl	8000238 <__aeabi_uidivmod>
 800397c:	002f      	movs	r7, r5
 800397e:	3130      	adds	r1, #48	; 0x30
 8003980:	55f1      	strb	r1, [r6, r7]
 8003982:	0020      	movs	r0, r4
 8003984:	210a      	movs	r1, #10
 8003986:	f7fc fbd1 	bl	800012c <__udivsi3>
 800398a:	3501      	adds	r5, #1
 800398c:	0027      	movs	r7, r4
 800398e:	b2ed      	uxtb	r5, r5
 8003990:	b284      	uxth	r4, r0
 8003992:	2f09      	cmp	r7, #9
 8003994:	d8ee      	bhi.n	8003974 <u16toa+0xc>
 8003996:	2300      	movs	r3, #0
 8003998:	086c      	lsrs	r4, r5, #1
 800399a:	5573      	strb	r3, [r6, r5]
 800399c:	d00a      	beq.n	80039b4 <u16toa+0x4c>
 800399e:	1e6a      	subs	r2, r5, #1
 80039a0:	18b2      	adds	r2, r6, r2
 80039a2:	7810      	ldrb	r0, [r2, #0]
 80039a4:	5cf1      	ldrb	r1, [r6, r3]
 80039a6:	54f0      	strb	r0, [r6, r3]
 80039a8:	3301      	adds	r3, #1
 80039aa:	7011      	strb	r1, [r2, #0]
 80039ac:	b2d9      	uxtb	r1, r3
 80039ae:	3a01      	subs	r2, #1
 80039b0:	428c      	cmp	r4, r1
 80039b2:	d8f6      	bhi.n	80039a2 <u16toa+0x3a>
 80039b4:	0028      	movs	r0, r5
 80039b6:	bdf8      	pop	{r3, r4, r5, r6, r7, pc}
 80039b8:	2500      	movs	r5, #0
 80039ba:	7008      	strb	r0, [r1, #0]
 80039bc:	e7fa      	b.n	80039b4 <u16toa+0x4c>
 80039be:	46c0      	nop			; (mov r8, r8)

080039c0 <HTTPSendFile>:
 80039c0:	b082      	sub	sp, #8
 80039c2:	b5f0      	push	{r4, r5, r6, r7, lr}
 80039c4:	46d6      	mov	lr, sl
 80039c6:	464f      	mov	r7, r9
 80039c8:	4646      	mov	r6, r8
 80039ca:	b5c0      	push	{r6, r7, lr}
 80039cc:	b088      	sub	sp, #32
 80039ce:	9311      	str	r3, [sp, #68]	; 0x44
 80039d0:	23a0      	movs	r3, #160	; 0xa0
 80039d2:	0005      	movs	r5, r0
 80039d4:	58c4      	ldr	r4, [r0, r3]
 80039d6:	0010      	movs	r0, r2
 80039d8:	0017      	movs	r7, r2
 80039da:	4689      	mov	r9, r1
 80039dc:	9210      	str	r2, [sp, #64]	; 0x40
 80039de:	f7fc fb9d 	bl	800011c <strlen>
 80039e2:	4680      	mov	r8, r0
 80039e4:	3803      	subs	r0, #3
 80039e6:	495d      	ldr	r1, [pc, #372]	; (8003b5c <HTTPSendFile+0x19c>)
 80039e8:	1838      	adds	r0, r7, r0
 80039ea:	f7fc fb8d 	bl	8000108 <strcmp>
 80039ee:	9e12      	ldr	r6, [sp, #72]	; 0x48
 80039f0:	4682      	mov	sl, r0
 80039f2:	2800      	cmp	r0, #0
 80039f4:	d100      	bne.n	80039f8 <HTTPSendFile+0x38>
 80039f6:	e09f      	b.n	8003b38 <HTTPSendFile+0x178>
 80039f8:	0038      	movs	r0, r7
 80039fa:	f7ff fd23 	bl	8003444 <HTTPGetContentType>
 80039fe:	2300      	movs	r3, #0
 8003a00:	0007      	movs	r7, r0
 8003a02:	4698      	mov	r8, r3
 8003a04:	2209      	movs	r2, #9
 8003a06:	0020      	movs	r0, r4
 8003a08:	4955      	ldr	r1, [pc, #340]	; (8003b60 <HTTPSendFile+0x1a0>)
 8003a0a:	f001 fc8f 	bl	800532c <memcpy>
 8003a0e:	2320      	movs	r3, #32
 8003a10:	7223      	strb	r3, [r4, #8]
 8003a12:	464b      	mov	r3, r9
 8003a14:	3409      	adds	r4, #9
 8003a16:	0021      	movs	r1, r4
 8003a18:	b298      	uxth	r0, r3
 8003a1a:	f7ff ffa5 	bl	8003968 <u16toa>
 8003a1e:	1824      	adds	r4, r4, r0
 8003a20:	0020      	movs	r0, r4
 8003a22:	f7fc fb7b 	bl	800011c <strlen>
 8003a26:	2206      	movs	r2, #6
 8003a28:	494e      	ldr	r1, [pc, #312]	; (8003b64 <HTTPSendFile+0x1a4>)
 8003a2a:	1820      	adds	r0, r4, r0
 8003a2c:	f001 fc7e 	bl	800532c <memcpy>
 8003a30:	1d63      	adds	r3, r4, #5
 8003a32:	0018      	movs	r0, r3
 8003a34:	4699      	mov	r9, r3
 8003a36:	f7fc fb71 	bl	800011c <strlen>
 8003a3a:	220d      	movs	r2, #13
 8003a3c:	4448      	add	r0, r9
 8003a3e:	494a      	ldr	r1, [pc, #296]	; (8003b68 <HTTPSendFile+0x1a8>)
 8003a40:	f001 fc74 	bl	800532c <memcpy>
 8003a44:	2311      	movs	r3, #17
 8003a46:	4699      	mov	r9, r3
 8003a48:	792b      	ldrb	r3, [r5, #4]
 8003a4a:	44a1      	add	r9, r4
 8003a4c:	4648      	mov	r0, r9
 8003a4e:	2b01      	cmp	r3, #1
 8003a50:	d05d      	beq.n	8003b0e <HTTPSendFile+0x14e>
 8003a52:	f7fc fb63 	bl	800011c <strlen>
 8003a56:	2209      	movs	r2, #9
 8003a58:	4944      	ldr	r1, [pc, #272]	; (8003b6c <HTTPSendFile+0x1ac>)
 8003a5a:	4448      	add	r0, r9
 8003a5c:	f001 fc66 	bl	800532c <memcpy>
 8003a60:	4643      	mov	r3, r8
 8003a62:	3419      	adds	r4, #25
 8003a64:	2b00      	cmp	r3, #0
 8003a66:	d15d      	bne.n	8003b24 <HTTPSendFile+0x164>
 8003a68:	0020      	movs	r0, r4
 8003a6a:	f7fc fb57 	bl	800011c <strlen>
 8003a6e:	220f      	movs	r2, #15
 8003a70:	493f      	ldr	r1, [pc, #252]	; (8003b70 <HTTPSendFile+0x1b0>)
 8003a72:	1820      	adds	r0, r4, r0
 8003a74:	340e      	adds	r4, #14
 8003a76:	f001 fc59 	bl	800532c <memcpy>
 8003a7a:	0039      	movs	r1, r7
 8003a7c:	0020      	movs	r0, r4
 8003a7e:	f001 fc6f 	bl	8005360 <strcat>
 8003a82:	0038      	movs	r0, r7
 8003a84:	f7fc fb4a 	bl	800011c <strlen>
 8003a88:	1824      	adds	r4, r4, r0
 8003a8a:	0020      	movs	r0, r4
 8003a8c:	f7fc fb46 	bl	800011c <strlen>
 8003a90:	4f38      	ldr	r7, [pc, #224]	; (8003b74 <HTTPSendFile+0x1b4>)
 8003a92:	2203      	movs	r2, #3
 8003a94:	0039      	movs	r1, r7
 8003a96:	1820      	adds	r0, r4, r0
 8003a98:	f001 fc48 	bl	800532c <memcpy>
 8003a9c:	1ca3      	adds	r3, r4, #2
 8003a9e:	0018      	movs	r0, r3
 8003aa0:	4698      	mov	r8, r3
 8003aa2:	f7fc fb3b 	bl	800011c <strlen>
 8003aa6:	b2b6      	uxth	r6, r6
 8003aa8:	2211      	movs	r2, #17
 8003aaa:	4933      	ldr	r1, [pc, #204]	; (8003b78 <HTTPSendFile+0x1b8>)
 8003aac:	4440      	add	r0, r8
 8003aae:	3412      	adds	r4, #18
 8003ab0:	f001 fc3c 	bl	800532c <memcpy>
 8003ab4:	0021      	movs	r1, r4
 8003ab6:	0030      	movs	r0, r6
 8003ab8:	f7ff ff56 	bl	8003968 <u16toa>
 8003abc:	1824      	adds	r4, r4, r0
 8003abe:	0020      	movs	r0, r4
 8003ac0:	f7fc fb2c 	bl	800011c <strlen>
 8003ac4:	0039      	movs	r1, r7
 8003ac6:	2203      	movs	r2, #3
 8003ac8:	1820      	adds	r0, r4, r0
 8003aca:	3402      	adds	r4, #2
 8003acc:	f001 fc2e 	bl	800532c <memcpy>
 8003ad0:	0020      	movs	r0, r4
 8003ad2:	f7fc fb23 	bl	800011c <strlen>
 8003ad6:	2203      	movs	r2, #3
 8003ad8:	0039      	movs	r1, r7
 8003ada:	1820      	adds	r0, r4, r0
 8003adc:	f001 fc26 	bl	800532c <memcpy>
 8003ae0:	23a0      	movs	r3, #160	; 0xa0
 8003ae2:	58e8      	ldr	r0, [r5, r3]
 8003ae4:	f7fc fb1a 	bl	800011c <strlen>
 8003ae8:	239e      	movs	r3, #158	; 0x9e
 8003aea:	9a11      	ldr	r2, [sp, #68]	; 0x44
 8003aec:	52e8      	strh	r0, [r5, r3]
 8003aee:	3306      	adds	r3, #6
 8003af0:	52ee      	strh	r6, [r5, r3]
 8003af2:	3304      	adds	r3, #4
 8003af4:	50ea      	str	r2, [r5, r3]
 8003af6:	2201      	movs	r2, #1
 8003af8:	3b0c      	subs	r3, #12
 8003afa:	54ea      	strb	r2, [r5, r3]
 8003afc:	b008      	add	sp, #32
 8003afe:	bce0      	pop	{r5, r6, r7}
 8003b00:	46ba      	mov	sl, r7
 8003b02:	46b1      	mov	r9, r6
 8003b04:	46a8      	mov	r8, r5
 8003b06:	bcf0      	pop	{r4, r5, r6, r7}
 8003b08:	bc08      	pop	{r3}
 8003b0a:	b002      	add	sp, #8
 8003b0c:	4718      	bx	r3
 8003b0e:	f7fc fb05 	bl	800011c <strlen>
 8003b12:	220d      	movs	r2, #13
 8003b14:	4919      	ldr	r1, [pc, #100]	; (8003b7c <HTTPSendFile+0x1bc>)
 8003b16:	4448      	add	r0, r9
 8003b18:	f001 fc08 	bl	800532c <memcpy>
 8003b1c:	4643      	mov	r3, r8
 8003b1e:	341d      	adds	r4, #29
 8003b20:	2b00      	cmp	r3, #0
 8003b22:	d0a1      	beq.n	8003a68 <HTTPSendFile+0xa8>
 8003b24:	0020      	movs	r0, r4
 8003b26:	f7fc faf9 	bl	800011c <strlen>
 8003b2a:	2219      	movs	r2, #25
 8003b2c:	1820      	adds	r0, r4, r0
 8003b2e:	4914      	ldr	r1, [pc, #80]	; (8003b80 <HTTPSendFile+0x1c0>)
 8003b30:	f001 fbfc 	bl	800532c <memcpy>
 8003b34:	3418      	adds	r4, #24
 8003b36:	e797      	b.n	8003a68 <HTTPSendFile+0xa8>
 8003b38:	4643      	mov	r3, r8
 8003b3a:	0039      	movs	r1, r7
 8003b3c:	1c5a      	adds	r2, r3, #1
 8003b3e:	4668      	mov	r0, sp
 8003b40:	f001 fbf4 	bl	800532c <memcpy>
 8003b44:	4640      	mov	r0, r8
 8003b46:	4653      	mov	r3, sl
 8003b48:	4468      	add	r0, sp
 8003b4a:	3803      	subs	r0, #3
 8003b4c:	7003      	strb	r3, [r0, #0]
 8003b4e:	4668      	mov	r0, sp
 8003b50:	f7ff fc78 	bl	8003444 <HTTPGetContentType>
 8003b54:	2301      	movs	r3, #1
 8003b56:	0007      	movs	r7, r0
 8003b58:	4698      	mov	r8, r3
 8003b5a:	e753      	b.n	8003a04 <HTTPSendFile+0x44>
 8003b5c:	080057bc 	.word	0x080057bc
 8003b60:	0800579c 	.word	0x0800579c
 8003b64:	080057c0 	.word	0x080057c0
 8003b68:	08005760 	.word	0x08005760
 8003b6c:	080057d8 	.word	0x080057d8
 8003b70:	08005800 	.word	0x08005800
 8003b74:	08005668 	.word	0x08005668
 8003b78:	08005778 	.word	0x08005778
 8003b7c:	080057c8 	.word	0x080057c8
 8003b80:	080057e4 	.word	0x080057e4

08003b84 <HTTPSendStr>:
 8003b84:	23a0      	movs	r3, #160	; 0xa0
 8003b86:	b5f0      	push	{r4, r5, r6, r7, lr}
 8003b88:	46c6      	mov	lr, r8
 8003b8a:	58c4      	ldr	r4, [r0, r3]
 8003b8c:	b500      	push	{lr}
 8003b8e:	000f      	movs	r7, r1
 8003b90:	0005      	movs	r5, r0
 8003b92:	4945      	ldr	r1, [pc, #276]	; (8003ca8 <HTTPSendStr+0x124>)
 8003b94:	0020      	movs	r0, r4
 8003b96:	0016      	movs	r6, r2
 8003b98:	2209      	movs	r2, #9
 8003b9a:	f001 fbc7 	bl	800532c <memcpy>
 8003b9e:	2320      	movs	r3, #32
 8003ba0:	7223      	strb	r3, [r4, #8]
 8003ba2:	3409      	adds	r4, #9
 8003ba4:	0021      	movs	r1, r4
 8003ba6:	b2b8      	uxth	r0, r7
 8003ba8:	f7ff fede 	bl	8003968 <u16toa>
 8003bac:	1824      	adds	r4, r4, r0
 8003bae:	0020      	movs	r0, r4
 8003bb0:	f7fc fab4 	bl	800011c <strlen>
 8003bb4:	1d67      	adds	r7, r4, #5
 8003bb6:	2206      	movs	r2, #6
 8003bb8:	493c      	ldr	r1, [pc, #240]	; (8003cac <HTTPSendStr+0x128>)
 8003bba:	1820      	adds	r0, r4, r0
 8003bbc:	f001 fbb6 	bl	800532c <memcpy>
 8003bc0:	0038      	movs	r0, r7
 8003bc2:	f7fc faab 	bl	800011c <strlen>
 8003bc6:	220d      	movs	r2, #13
 8003bc8:	1838      	adds	r0, r7, r0
 8003bca:	4939      	ldr	r1, [pc, #228]	; (8003cb0 <HTTPSendStr+0x12c>)
 8003bcc:	f001 fbae 	bl	800532c <memcpy>
 8003bd0:	792b      	ldrb	r3, [r5, #4]
 8003bd2:	370c      	adds	r7, #12
 8003bd4:	0038      	movs	r0, r7
 8003bd6:	2b01      	cmp	r3, #1
 8003bd8:	d05c      	beq.n	8003c94 <HTTPSendStr+0x110>
 8003bda:	f7fc fa9f 	bl	800011c <strlen>
 8003bde:	2209      	movs	r2, #9
 8003be0:	4934      	ldr	r1, [pc, #208]	; (8003cb4 <HTTPSendStr+0x130>)
 8003be2:	1838      	adds	r0, r7, r0
 8003be4:	f001 fba2 	bl	800532c <memcpy>
 8003be8:	3419      	adds	r4, #25
 8003bea:	1d68      	adds	r0, r5, #5
 8003bec:	f7ff fc2a 	bl	8003444 <HTTPGetContentType>
 8003bf0:	0007      	movs	r7, r0
 8003bf2:	0020      	movs	r0, r4
 8003bf4:	f7fc fa92 	bl	800011c <strlen>
 8003bf8:	220f      	movs	r2, #15
 8003bfa:	492f      	ldr	r1, [pc, #188]	; (8003cb8 <HTTPSendStr+0x134>)
 8003bfc:	1820      	adds	r0, r4, r0
 8003bfe:	340e      	adds	r4, #14
 8003c00:	f001 fb94 	bl	800532c <memcpy>
 8003c04:	0039      	movs	r1, r7
 8003c06:	0020      	movs	r0, r4
 8003c08:	f001 fbaa 	bl	8005360 <strcat>
 8003c0c:	0038      	movs	r0, r7
 8003c0e:	f7fc fa85 	bl	800011c <strlen>
 8003c12:	1824      	adds	r4, r4, r0
 8003c14:	0020      	movs	r0, r4
 8003c16:	f7fc fa81 	bl	800011c <strlen>
 8003c1a:	4f28      	ldr	r7, [pc, #160]	; (8003cbc <HTTPSendStr+0x138>)
 8003c1c:	2203      	movs	r2, #3
 8003c1e:	0039      	movs	r1, r7
 8003c20:	1820      	adds	r0, r4, r0
 8003c22:	f001 fb83 	bl	800532c <memcpy>
 8003c26:	1ca3      	adds	r3, r4, #2
 8003c28:	0018      	movs	r0, r3
 8003c2a:	4698      	mov	r8, r3
 8003c2c:	f7fc fa76 	bl	800011c <strlen>
 8003c30:	2211      	movs	r2, #17
 8003c32:	4923      	ldr	r1, [pc, #140]	; (8003cc0 <HTTPSendStr+0x13c>)
 8003c34:	4440      	add	r0, r8
 8003c36:	f001 fb79 	bl	800532c <memcpy>
 8003c3a:	0030      	movs	r0, r6
 8003c3c:	f7fc fa6e 	bl	800011c <strlen>
 8003c40:	3412      	adds	r4, #18
 8003c42:	0021      	movs	r1, r4
 8003c44:	b280      	uxth	r0, r0
 8003c46:	f7ff fe8f 	bl	8003968 <u16toa>
 8003c4a:	1824      	adds	r4, r4, r0
 8003c4c:	0020      	movs	r0, r4
 8003c4e:	f7fc fa65 	bl	800011c <strlen>
 8003c52:	0039      	movs	r1, r7
 8003c54:	2203      	movs	r2, #3
 8003c56:	1820      	adds	r0, r4, r0
 8003c58:	3402      	adds	r4, #2
 8003c5a:	f001 fb67 	bl	800532c <memcpy>
 8003c5e:	0020      	movs	r0, r4
 8003c60:	f7fc fa5c 	bl	800011c <strlen>
 8003c64:	0039      	movs	r1, r7
 8003c66:	2203      	movs	r2, #3
 8003c68:	1820      	adds	r0, r4, r0
 8003c6a:	f001 fb5f 	bl	800532c <memcpy>
 8003c6e:	23a0      	movs	r3, #160	; 0xa0
 8003c70:	58e8      	ldr	r0, [r5, r3]
 8003c72:	f7fc fa53 	bl	800011c <strlen>
 8003c76:	239e      	movs	r3, #158	; 0x9e
 8003c78:	52e8      	strh	r0, [r5, r3]
 8003c7a:	0030      	movs	r0, r6
 8003c7c:	f7fc fa4e 	bl	800011c <strlen>
 8003c80:	23a4      	movs	r3, #164	; 0xa4
 8003c82:	2201      	movs	r2, #1
 8003c84:	52e8      	strh	r0, [r5, r3]
 8003c86:	3304      	adds	r3, #4
 8003c88:	50ee      	str	r6, [r5, r3]
 8003c8a:	3b0c      	subs	r3, #12
 8003c8c:	54ea      	strb	r2, [r5, r3]
 8003c8e:	bc80      	pop	{r7}
 8003c90:	46b8      	mov	r8, r7
 8003c92:	bdf0      	pop	{r4, r5, r6, r7, pc}
 8003c94:	f7fc fa42 	bl	800011c <strlen>
 8003c98:	220d      	movs	r2, #13
 8003c9a:	490a      	ldr	r1, [pc, #40]	; (8003cc4 <HTTPSendStr+0x140>)
 8003c9c:	1838      	adds	r0, r7, r0
 8003c9e:	f001 fb45 	bl	800532c <memcpy>
 8003ca2:	341d      	adds	r4, #29
 8003ca4:	e7a1      	b.n	8003bea <HTTPSendStr+0x66>
 8003ca6:	46c0      	nop			; (mov r8, r8)
 8003ca8:	0800579c 	.word	0x0800579c
 8003cac:	080057c0 	.word	0x080057c0
 8003cb0:	08005760 	.word	0x08005760
 8003cb4:	080057d8 	.word	0x080057d8
 8003cb8:	08005800 	.word	0x08005800
 8003cbc:	08005668 	.word	0x08005668
 8003cc0:	08005778 	.word	0x08005778
 8003cc4:	080057c8 	.word	0x080057c8

08003cc8 <HTTPonNotFound>:
 8003cc8:	b5f0      	push	{r4, r5, r6, r7, lr}
 8003cca:	4c30      	ldr	r4, [pc, #192]	; (8003d8c <HTTPonNotFound+0xc4>)
 8003ccc:	1d46      	adds	r6, r0, #5
 8003cce:	0005      	movs	r5, r0
 8003cd0:	b09d      	sub	sp, #116	; 0x74
 8003cd2:	0031      	movs	r1, r6
 8003cd4:	0020      	movs	r0, r4
 8003cd6:	f7ff f9e3 	bl	80030a0 <FS_exists>
 8003cda:	2800      	cmp	r0, #0
 8003cdc:	d021      	beq.n	8003d22 <HTTPonNotFound+0x5a>
 8003cde:	0032      	movs	r2, r6
 8003ce0:	0021      	movs	r1, r4
 8003ce2:	a808      	add	r0, sp, #32
 8003ce4:	f7ff f9b2 	bl	800304c <FS_open>
 8003ce8:	9b08      	ldr	r3, [sp, #32]
 8003cea:	2b00      	cmp	r3, #0
 8003cec:	d13e      	bne.n	8003d6c <HTTPonNotFound+0xa4>
 8003cee:	4c28      	ldr	r4, [pc, #160]	; (8003d90 <HTTPonNotFound+0xc8>)
 8003cf0:	4b28      	ldr	r3, [pc, #160]	; (8003d94 <HTTPonNotFound+0xcc>)
 8003cf2:	0022      	movs	r2, r4
 8003cf4:	cb83      	ldmia	r3!, {r0, r1, r7}
 8003cf6:	c283      	stmia	r2!, {r0, r1, r7}
 8003cf8:	2240      	movs	r2, #64	; 0x40
 8003cfa:	0031      	movs	r1, r6
 8003cfc:	0020      	movs	r0, r4
 8003cfe:	f001 fb4a 	bl	8005396 <strncat>
 8003d02:	0020      	movs	r0, r4
 8003d04:	f7fc fa0a 	bl	800011c <strlen>
 8003d08:	2203      	movs	r2, #3
 8003d0a:	4923      	ldr	r1, [pc, #140]	; (8003d98 <HTTPonNotFound+0xd0>)
 8003d0c:	1820      	adds	r0, r4, r0
 8003d0e:	f001 fb0d 	bl	800532c <memcpy>
 8003d12:	21ca      	movs	r1, #202	; 0xca
 8003d14:	0022      	movs	r2, r4
 8003d16:	0028      	movs	r0, r5
 8003d18:	0049      	lsls	r1, r1, #1
 8003d1a:	f7ff ff33 	bl	8003b84 <HTTPSendStr>
 8003d1e:	b01d      	add	sp, #116	; 0x74
 8003d20:	bdf0      	pop	{r4, r5, r6, r7, pc}
 8003d22:	0031      	movs	r1, r6
 8003d24:	a80b      	add	r0, sp, #44	; 0x2c
 8003d26:	f001 fb12 	bl	800534e <stpcpy>
 8003d2a:	491c      	ldr	r1, [pc, #112]	; (8003d9c <HTTPonNotFound+0xd4>)
 8003d2c:	2204      	movs	r2, #4
 8003d2e:	f001 fafd 	bl	800532c <memcpy>
 8003d32:	0020      	movs	r0, r4
 8003d34:	a90b      	add	r1, sp, #44	; 0x2c
 8003d36:	f7ff f9b3 	bl	80030a0 <FS_exists>
 8003d3a:	2800      	cmp	r0, #0
 8003d3c:	d0d7      	beq.n	8003cee <HTTPonNotFound+0x26>
 8003d3e:	0021      	movs	r1, r4
 8003d40:	aa0b      	add	r2, sp, #44	; 0x2c
 8003d42:	a805      	add	r0, sp, #20
 8003d44:	f7ff f982 	bl	800304c <FS_open>
 8003d48:	9b05      	ldr	r3, [sp, #20]
 8003d4a:	2b00      	cmp	r3, #0
 8003d4c:	d0cf      	beq.n	8003cee <HTTPonNotFound+0x26>
 8003d4e:	0021      	movs	r1, r4
 8003d50:	aa0b      	add	r2, sp, #44	; 0x2c
 8003d52:	a808      	add	r0, sp, #32
 8003d54:	f7ff f97a 	bl	800304c <FS_open>
 8003d58:	9b0a      	ldr	r3, [sp, #40]	; 0x28
 8003d5a:	21c8      	movs	r1, #200	; 0xc8
 8003d5c:	9303      	str	r3, [sp, #12]
 8003d5e:	9300      	str	r3, [sp, #0]
 8003d60:	0028      	movs	r0, r5
 8003d62:	9a08      	ldr	r2, [sp, #32]
 8003d64:	9b09      	ldr	r3, [sp, #36]	; 0x24
 8003d66:	f7ff fe2b 	bl	80039c0 <HTTPSendFile>
 8003d6a:	e7d8      	b.n	8003d1e <HTTPonNotFound+0x56>
 8003d6c:	0032      	movs	r2, r6
 8003d6e:	0021      	movs	r1, r4
 8003d70:	a80b      	add	r0, sp, #44	; 0x2c
 8003d72:	f7ff f96b 	bl	800304c <FS_open>
 8003d76:	9b0d      	ldr	r3, [sp, #52]	; 0x34
 8003d78:	21c8      	movs	r1, #200	; 0xc8
 8003d7a:	9303      	str	r3, [sp, #12]
 8003d7c:	9300      	str	r3, [sp, #0]
 8003d7e:	0028      	movs	r0, r5
 8003d80:	9a0b      	ldr	r2, [sp, #44]	; 0x2c
 8003d82:	9b0c      	ldr	r3, [sp, #48]	; 0x30
 8003d84:	f7ff fe1c 	bl	80039c0 <HTTPSendFile>
 8003d88:	e7c9      	b.n	8003d1e <HTTPonNotFound+0x56>
 8003d8a:	46c0      	nop			; (mov r8, r8)
 8003d8c:	20000e28 	.word	0x20000e28
 8003d90:	20000cf8 	.word	0x20000cf8
 8003d94:	08005810 	.word	0x08005810
 8003d98:	08005668 	.word	0x08005668
 8003d9c:	080057bc 	.word	0x080057bc

08003da0 <HTTPHandle>:
 8003da0:	b5f8      	push	{r3, r4, r5, r6, r7, lr}
 8003da2:	4645      	mov	r5, r8
 8003da4:	46de      	mov	lr, fp
 8003da6:	4657      	mov	r7, sl
 8003da8:	464e      	mov	r6, r9
 8003daa:	b5e0      	push	{r5, r6, r7, lr}
 8003dac:	7e84      	ldrb	r4, [r0, #26]
 8003dae:	0005      	movs	r5, r0
 8003db0:	b264      	sxtb	r4, r4
 8003db2:	2c00      	cmp	r4, #0
 8003db4:	dd17      	ble.n	8003de6 <HTTPHandle+0x46>
 8003db6:	1e63      	subs	r3, r4, #1
 8003db8:	469a      	mov	sl, r3
 8003dba:	4b9e      	ldr	r3, [pc, #632]	; (8004034 <HTTPHandle+0x294>)
 8003dbc:	26b0      	movs	r6, #176	; 0xb0
 8003dbe:	4699      	mov	r9, r3
 8003dc0:	4653      	mov	r3, sl
 8003dc2:	435e      	muls	r6, r3
 8003dc4:	46b3      	mov	fp, r6
 8003dc6:	44cb      	add	fp, r9
 8003dc8:	465b      	mov	r3, fp
 8003dca:	33ac      	adds	r3, #172	; 0xac
 8003dcc:	781b      	ldrb	r3, [r3, #0]
 8003dce:	2b00      	cmp	r3, #0
 8003dd0:	d10f      	bne.n	8003df2 <HTTPHandle+0x52>
 8003dd2:	7ec3      	ldrb	r3, [r0, #27]
 8003dd4:	4652      	mov	r2, sl
 8003dd6:	23b0      	movs	r3, #176	; 0xb0
 8003dd8:	4353      	muls	r3, r2
 8003dda:	444b      	add	r3, r9
 8003ddc:	001a      	movs	r2, r3
 8003dde:	32ad      	adds	r2, #173	; 0xad
 8003de0:	7812      	ldrb	r2, [r2, #0]
 8003de2:	4294      	cmp	r4, r2
 8003de4:	d02e      	beq.n	8003e44 <HTTPHandle+0xa4>
 8003de6:	bcf0      	pop	{r4, r5, r6, r7}
 8003de8:	46bb      	mov	fp, r7
 8003dea:	46b2      	mov	sl, r6
 8003dec:	46a9      	mov	r9, r5
 8003dee:	46a0      	mov	r8, r4
 8003df0:	bdf8      	pop	{r3, r4, r5, r6, r7, pc}
 8003df2:	465b      	mov	r3, fp
 8003df4:	339c      	adds	r3, #156	; 0x9c
 8003df6:	781b      	ldrb	r3, [r3, #0]
 8003df8:	2b00      	cmp	r3, #0
 8003dfa:	d13b      	bne.n	8003e74 <HTTPHandle+0xd4>
 8003dfc:	2700      	movs	r7, #0
 8003dfe:	3605      	adds	r6, #5
 8003e00:	444e      	add	r6, r9
 8003e02:	46b0      	mov	r8, r6
 8003e04:	4e8c      	ldr	r6, [pc, #560]	; (8004038 <HTTPHandle+0x298>)
 8003e06:	2240      	movs	r2, #64	; 0x40
 8003e08:	4640      	mov	r0, r8
 8003e0a:	6831      	ldr	r1, [r6, #0]
 8003e0c:	f001 fad9 	bl	80053c2 <strncmp>
 8003e10:	2800      	cmp	r0, #0
 8003e12:	d100      	bne.n	8003e16 <HTTPHandle+0x76>
 8003e14:	e098      	b.n	8003f48 <HTTPHandle+0x1a8>
 8003e16:	3701      	adds	r7, #1
 8003e18:	3608      	adds	r6, #8
 8003e1a:	2f09      	cmp	r7, #9
 8003e1c:	d1f3      	bne.n	8003e06 <HTTPHandle+0x66>
 8003e1e:	4658      	mov	r0, fp
 8003e20:	f7ff ff52 	bl	8003cc8 <HTTPonNotFound>
 8003e24:	7eeb      	ldrb	r3, [r5, #27]
 8003e26:	4123      	asrs	r3, r4
 8003e28:	07db      	lsls	r3, r3, #31
 8003e2a:	d5d3      	bpl.n	8003dd4 <HTTPHandle+0x34>
 8003e2c:	4652      	mov	r2, sl
 8003e2e:	23b0      	movs	r3, #176	; 0xb0
 8003e30:	4353      	muls	r3, r2
 8003e32:	444b      	add	r3, r9
 8003e34:	001a      	movs	r2, r3
 8003e36:	32ac      	adds	r2, #172	; 0xac
 8003e38:	7812      	ldrb	r2, [r2, #0]
 8003e3a:	2a00      	cmp	r2, #0
 8003e3c:	d0ca      	beq.n	8003dd4 <HTTPHandle+0x34>
 8003e3e:	339c      	adds	r3, #156	; 0x9c
 8003e40:	781b      	ldrb	r3, [r3, #0]
 8003e42:	e01b      	b.n	8003e7c <HTTPHandle+0xdc>
 8003e44:	33ac      	adds	r3, #172	; 0xac
 8003e46:	781b      	ldrb	r3, [r3, #0]
 8003e48:	2b00      	cmp	r3, #0
 8003e4a:	d1cc      	bne.n	8003de6 <HTTPHandle+0x46>
 8003e4c:	487b      	ldr	r0, [pc, #492]	; (800403c <HTTPHandle+0x29c>)
 8003e4e:	2301      	movs	r3, #1
 8003e50:	2501      	movs	r5, #1
 8003e52:	4a7b      	ldr	r2, [pc, #492]	; (8004040 <HTTPHandle+0x2a0>)
 8003e54:	7811      	ldrb	r1, [r2, #0]
 8003e56:	b25c      	sxtb	r4, r3
 8003e58:	2900      	cmp	r1, #0
 8003e5a:	d003      	beq.n	8003e64 <HTTPHandle+0xc4>
 8003e5c:	7e01      	ldrb	r1, [r0, #24]
 8003e5e:	4119      	asrs	r1, r3
 8003e60:	420d      	tst	r5, r1
 8003e62:	d105      	bne.n	8003e70 <HTTPHandle+0xd0>
 8003e64:	3301      	adds	r3, #1
 8003e66:	32b0      	adds	r2, #176	; 0xb0
 8003e68:	2b08      	cmp	r3, #8
 8003e6a:	d1f3      	bne.n	8003e54 <HTTPHandle+0xb4>
 8003e6c:	2401      	movs	r4, #1
 8003e6e:	4264      	negs	r4, r4
 8003e70:	7684      	strb	r4, [r0, #26]
 8003e72:	e7b8      	b.n	8003de6 <HTTPHandle+0x46>
 8003e74:	7ec2      	ldrb	r2, [r0, #27]
 8003e76:	4122      	asrs	r2, r4
 8003e78:	07d2      	lsls	r2, r2, #31
 8003e7a:	d5ab      	bpl.n	8003dd4 <HTTPHandle+0x34>
 8003e7c:	2b01      	cmp	r3, #1
 8003e7e:	d06b      	beq.n	8003f58 <HTTPHandle+0x1b8>
 8003e80:	2b02      	cmp	r3, #2
 8003e82:	d1b0      	bne.n	8003de6 <HTTPHandle+0x46>
 8003e84:	4652      	mov	r2, sl
 8003e86:	33ae      	adds	r3, #174	; 0xae
 8003e88:	4353      	muls	r3, r2
 8003e8a:	444b      	add	r3, r9
 8003e8c:	33a4      	adds	r3, #164	; 0xa4
 8003e8e:	881b      	ldrh	r3, [r3, #0]
 8003e90:	4a6c      	ldr	r2, [pc, #432]	; (8004044 <HTTPHandle+0x2a4>)
 8003e92:	1c1e      	adds	r6, r3, #0
 8003e94:	4293      	cmp	r3, r2
 8003e96:	d900      	bls.n	8003e9a <HTTPHandle+0xfa>
 8003e98:	1c16      	adds	r6, r2, #0
 8003e9a:	27b0      	movs	r7, #176	; 0xb0
 8003e9c:	4653      	mov	r3, sl
 8003e9e:	437b      	muls	r3, r7
 8003ea0:	464d      	mov	r5, r9
 8003ea2:	4698      	mov	r8, r3
 8003ea4:	4445      	add	r5, r8
 8003ea6:	002f      	movs	r7, r5
 8003ea8:	b2b6      	uxth	r6, r6
 8003eaa:	37a8      	adds	r7, #168	; 0xa8
 8003eac:	0032      	movs	r2, r6
 8003eae:	6839      	ldr	r1, [r7, #0]
 8003eb0:	b2e0      	uxtb	r0, r4
 8003eb2:	f7fe fe95 	bl	8002be0 <CH395SendData>
 8003eb6:	2301      	movs	r3, #1
 8003eb8:	40a3      	lsls	r3, r4
 8003eba:	43db      	mvns	r3, r3
 8003ebc:	485f      	ldr	r0, [pc, #380]	; (800403c <HTTPHandle+0x29c>)
 8003ebe:	b25a      	sxtb	r2, r3
 8003ec0:	7ec1      	ldrb	r1, [r0, #27]
 8003ec2:	4011      	ands	r1, r2
 8003ec4:	76c1      	strb	r1, [r0, #27]
 8003ec6:	0029      	movs	r1, r5
 8003ec8:	31a4      	adds	r1, #164	; 0xa4
 8003eca:	880b      	ldrh	r3, [r1, #0]
 8003ecc:	1b9b      	subs	r3, r3, r6
 8003ece:	b29b      	uxth	r3, r3
 8003ed0:	800b      	strh	r3, [r1, #0]
 8003ed2:	6839      	ldr	r1, [r7, #0]
 8003ed4:	468c      	mov	ip, r1
 8003ed6:	4466      	add	r6, ip
 8003ed8:	603e      	str	r6, [r7, #0]
 8003eda:	2b00      	cmp	r3, #0
 8003edc:	d000      	beq.n	8003ee0 <HTTPHandle+0x140>
 8003ede:	e779      	b.n	8003dd4 <HTTPHandle+0x34>
 8003ee0:	7e41      	ldrb	r1, [r0, #25]
 8003ee2:	2601      	movs	r6, #1
 8003ee4:	4011      	ands	r1, r2
 8003ee6:	7641      	strb	r1, [r0, #25]
 8003ee8:	7e01      	ldrb	r1, [r0, #24]
 8003eea:	70eb      	strb	r3, [r5, #3]
 8003eec:	400a      	ands	r2, r1
 8003eee:	7602      	strb	r2, [r0, #24]
 8003ef0:	22ff      	movs	r2, #255	; 0xff
 8003ef2:	4641      	mov	r1, r8
 8003ef4:	7682      	strb	r2, [r0, #26]
 8003ef6:	464a      	mov	r2, r9
 8003ef8:	5453      	strb	r3, [r2, r1]
 8003efa:	002a      	movs	r2, r5
 8003efc:	3248      	adds	r2, #72	; 0x48
 8003efe:	7013      	strb	r3, [r2, #0]
 8003f00:	3264      	adds	r2, #100	; 0x64
 8003f02:	7013      	strb	r3, [r2, #0]
 8003f04:	3a10      	subs	r2, #16
 8003f06:	712b      	strb	r3, [r5, #4]
 8003f08:	7013      	strb	r3, [r2, #0]
 8003f0a:	4b4f      	ldr	r3, [pc, #316]	; (8004048 <HTTPHandle+0x2a8>)
 8003f0c:	464a      	mov	r2, r9
 8003f0e:	35a0      	adds	r5, #160	; 0xa0
 8003f10:	602b      	str	r3, [r5, #0]
 8003f12:	2301      	movs	r3, #1
 8003f14:	32ac      	adds	r2, #172	; 0xac
 8003f16:	7811      	ldrb	r1, [r2, #0]
 8003f18:	b25d      	sxtb	r5, r3
 8003f1a:	2900      	cmp	r1, #0
 8003f1c:	d003      	beq.n	8003f26 <HTTPHandle+0x186>
 8003f1e:	7e01      	ldrb	r1, [r0, #24]
 8003f20:	4119      	asrs	r1, r3
 8003f22:	420e      	tst	r6, r1
 8003f24:	d105      	bne.n	8003f32 <HTTPHandle+0x192>
 8003f26:	3301      	adds	r3, #1
 8003f28:	32b0      	adds	r2, #176	; 0xb0
 8003f2a:	2b08      	cmp	r3, #8
 8003f2c:	d1f3      	bne.n	8003f16 <HTTPHandle+0x176>
 8003f2e:	2501      	movs	r5, #1
 8003f30:	426d      	negs	r5, r5
 8003f32:	23b0      	movs	r3, #176	; 0xb0
 8003f34:	4652      	mov	r2, sl
 8003f36:	4353      	muls	r3, r2
 8003f38:	444b      	add	r3, r9
 8003f3a:	7685      	strb	r5, [r0, #26]
 8003f3c:	33ad      	adds	r3, #173	; 0xad
 8003f3e:	781b      	ldrb	r3, [r3, #0]
 8003f40:	429c      	cmp	r4, r3
 8003f42:	d000      	beq.n	8003f46 <HTTPHandle+0x1a6>
 8003f44:	e74f      	b.n	8003de6 <HTTPHandle+0x46>
 8003f46:	e782      	b.n	8003e4e <HTTPHandle+0xae>
 8003f48:	4b3b      	ldr	r3, [pc, #236]	; (8004038 <HTTPHandle+0x298>)
 8003f4a:	00ff      	lsls	r7, r7, #3
 8003f4c:	469c      	mov	ip, r3
 8003f4e:	4467      	add	r7, ip
 8003f50:	4658      	mov	r0, fp
 8003f52:	687b      	ldr	r3, [r7, #4]
 8003f54:	4798      	blx	r3
 8003f56:	e765      	b.n	8003e24 <HTTPHandle+0x84>
 8003f58:	4652      	mov	r2, sl
 8003f5a:	33af      	adds	r3, #175	; 0xaf
 8003f5c:	4353      	muls	r3, r2
 8003f5e:	444b      	add	r3, r9
 8003f60:	001a      	movs	r2, r3
 8003f62:	329e      	adds	r2, #158	; 0x9e
 8003f64:	8811      	ldrh	r1, [r2, #0]
 8003f66:	4a37      	ldr	r2, [pc, #220]	; (8004044 <HTTPHandle+0x2a4>)
 8003f68:	33a4      	adds	r3, #164	; 0xa4
 8003f6a:	881b      	ldrh	r3, [r3, #0]
 8003f6c:	1a52      	subs	r2, r2, r1
 8003f6e:	b290      	uxth	r0, r2
 8003f70:	1c1e      	adds	r6, r3, #0
 8003f72:	4283      	cmp	r3, r0
 8003f74:	d900      	bls.n	8003f78 <HTTPHandle+0x1d8>
 8003f76:	1c16      	adds	r6, r2, #0
 8003f78:	b2b6      	uxth	r6, r6
 8003f7a:	1989      	adds	r1, r1, r6
 8003f7c:	b289      	uxth	r1, r1
 8003f7e:	b2e0      	uxtb	r0, r4
 8003f80:	f7fe fe70 	bl	8002c64 <CH395StartSendingData>
 8003f84:	27b0      	movs	r7, #176	; 0xb0
 8003f86:	4653      	mov	r3, sl
 8003f88:	437b      	muls	r3, r7
 8003f8a:	464d      	mov	r5, r9
 8003f8c:	4698      	mov	r8, r3
 8003f8e:	4445      	add	r5, r8
 8003f90:	002b      	movs	r3, r5
 8003f92:	339e      	adds	r3, #158	; 0x9e
 8003f94:	8819      	ldrh	r1, [r3, #0]
 8003f96:	23a0      	movs	r3, #160	; 0xa0
 8003f98:	469b      	mov	fp, r3
 8003f9a:	44ab      	add	fp, r5
 8003f9c:	465b      	mov	r3, fp
 8003f9e:	002f      	movs	r7, r5
 8003fa0:	6818      	ldr	r0, [r3, #0]
 8003fa2:	37a8      	adds	r7, #168	; 0xa8
 8003fa4:	f7fe fe72 	bl	8002c8c <CH395ContinueSendingData>
 8003fa8:	0031      	movs	r1, r6
 8003faa:	6838      	ldr	r0, [r7, #0]
 8003fac:	f7fe fe6e 	bl	8002c8c <CH395ContinueSendingData>
 8003fb0:	f7fe fe7a 	bl	8002ca8 <CH395Complete>
 8003fb4:	2201      	movs	r2, #1
 8003fb6:	40a2      	lsls	r2, r4
 8003fb8:	43d2      	mvns	r2, r2
 8003fba:	0029      	movs	r1, r5
 8003fbc:	481f      	ldr	r0, [pc, #124]	; (800403c <HTTPHandle+0x29c>)
 8003fbe:	b252      	sxtb	r2, r2
 8003fc0:	7ec3      	ldrb	r3, [r0, #27]
 8003fc2:	31a4      	adds	r1, #164	; 0xa4
 8003fc4:	4013      	ands	r3, r2
 8003fc6:	76c3      	strb	r3, [r0, #27]
 8003fc8:	880b      	ldrh	r3, [r1, #0]
 8003fca:	1b9b      	subs	r3, r3, r6
 8003fcc:	b29b      	uxth	r3, r3
 8003fce:	800b      	strh	r3, [r1, #0]
 8003fd0:	6839      	ldr	r1, [r7, #0]
 8003fd2:	468c      	mov	ip, r1
 8003fd4:	4466      	add	r6, ip
 8003fd6:	603e      	str	r6, [r7, #0]
 8003fd8:	2b00      	cmp	r3, #0
 8003fda:	d127      	bne.n	800402c <HTTPHandle+0x28c>
 8003fdc:	7e41      	ldrb	r1, [r0, #25]
 8003fde:	2601      	movs	r6, #1
 8003fe0:	4011      	ands	r1, r2
 8003fe2:	7641      	strb	r1, [r0, #25]
 8003fe4:	7e01      	ldrb	r1, [r0, #24]
 8003fe6:	712b      	strb	r3, [r5, #4]
 8003fe8:	400a      	ands	r2, r1
 8003fea:	7602      	strb	r2, [r0, #24]
 8003fec:	22ff      	movs	r2, #255	; 0xff
 8003fee:	4641      	mov	r1, r8
 8003ff0:	7682      	strb	r2, [r0, #26]
 8003ff2:	464a      	mov	r2, r9
 8003ff4:	5453      	strb	r3, [r2, r1]
 8003ff6:	002a      	movs	r2, r5
 8003ff8:	3248      	adds	r2, #72	; 0x48
 8003ffa:	7013      	strb	r3, [r2, #0]
 8003ffc:	3264      	adds	r2, #100	; 0x64
 8003ffe:	7013      	strb	r3, [r2, #0]
 8004000:	465a      	mov	r2, fp
 8004002:	70eb      	strb	r3, [r5, #3]
 8004004:	359c      	adds	r5, #156	; 0x9c
 8004006:	702b      	strb	r3, [r5, #0]
 8004008:	4b0f      	ldr	r3, [pc, #60]	; (8004048 <HTTPHandle+0x2a8>)
 800400a:	6013      	str	r3, [r2, #0]
 800400c:	464a      	mov	r2, r9
 800400e:	2301      	movs	r3, #1
 8004010:	32ac      	adds	r2, #172	; 0xac
 8004012:	7811      	ldrb	r1, [r2, #0]
 8004014:	b25d      	sxtb	r5, r3
 8004016:	2900      	cmp	r1, #0
 8004018:	d003      	beq.n	8004022 <HTTPHandle+0x282>
 800401a:	7e01      	ldrb	r1, [r0, #24]
 800401c:	4119      	asrs	r1, r3
 800401e:	420e      	tst	r6, r1
 8004020:	d187      	bne.n	8003f32 <HTTPHandle+0x192>
 8004022:	3301      	adds	r3, #1
 8004024:	32b0      	adds	r2, #176	; 0xb0
 8004026:	2b08      	cmp	r3, #8
 8004028:	d1f3      	bne.n	8004012 <HTTPHandle+0x272>
 800402a:	e780      	b.n	8003f2e <HTTPHandle+0x18e>
 800402c:	2302      	movs	r3, #2
 800402e:	359c      	adds	r5, #156	; 0x9c
 8004030:	702b      	strb	r3, [r5, #0]
 8004032:	e6cf      	b.n	8003dd4 <HTTPHandle+0x34>
 8004034:	20000778 	.word	0x20000778
 8004038:	20000638 	.word	0x20000638
 800403c:	20000018 	.word	0x20000018
 8004040:	20000824 	.word	0x20000824
 8004044:	00000546 	.word	0x00000546
 8004048:	20000e30 	.word	0x20000e30

0800404c <strcpy_f>:
 800404c:	e002      	b.n	8004054 <strcpy_f+0x8>
 800404e:	7003      	strb	r3, [r0, #0]
 8004050:	3101      	adds	r1, #1
 8004052:	3001      	adds	r0, #1
 8004054:	780b      	ldrb	r3, [r1, #0]
 8004056:	2b00      	cmp	r3, #0
 8004058:	d1f9      	bne.n	800404e <strcpy_f+0x2>
 800405a:	2300      	movs	r3, #0
 800405c:	7003      	strb	r3, [r0, #0]
 800405e:	4770      	bx	lr

08004060 <strncpy_f>:
 8004060:	780b      	ldrb	r3, [r1, #0]
 8004062:	b510      	push	{r4, lr}
 8004064:	2b00      	cmp	r3, #0
 8004066:	d00d      	beq.n	8004084 <strncpy_f+0x24>
 8004068:	2a00      	cmp	r2, #0
 800406a:	d00b      	beq.n	8004084 <strncpy_f+0x24>
 800406c:	1882      	adds	r2, r0, r2
 800406e:	b294      	uxth	r4, r2
 8004070:	e002      	b.n	8004078 <strncpy_f+0x18>
 8004072:	b282      	uxth	r2, r0
 8004074:	42a2      	cmp	r2, r4
 8004076:	d005      	beq.n	8004084 <strncpy_f+0x24>
 8004078:	7003      	strb	r3, [r0, #0]
 800407a:	784b      	ldrb	r3, [r1, #1]
 800407c:	3101      	adds	r1, #1
 800407e:	3001      	adds	r0, #1
 8004080:	2b00      	cmp	r3, #0
 8004082:	d1f6      	bne.n	8004072 <strncpy_f+0x12>
 8004084:	2300      	movs	r3, #0
 8004086:	7003      	strb	r3, [r0, #0]
 8004088:	bd10      	pop	{r4, pc}
 800408a:	46c0      	nop			; (mov r8, r8)

0800408c <IPv4_to_s>:
 800408c:	b5f8      	push	{r3, r4, r5, r6, r7, lr}
 800408e:	4645      	mov	r5, r8
 8004090:	2304      	movs	r3, #4
 8004092:	4688      	mov	r8, r1
 8004094:	4443      	add	r3, r8
 8004096:	46de      	mov	lr, fp
 8004098:	469b      	mov	fp, r3
 800409a:	2303      	movs	r3, #3
 800409c:	4657      	mov	r7, sl
 800409e:	464e      	mov	r6, r9
 80040a0:	4443      	add	r3, r8
 80040a2:	b5e0      	push	{r5, r6, r7, lr}
 80040a4:	4681      	mov	r9, r0
 80040a6:	469a      	mov	sl, r3
 80040a8:	2500      	movs	r5, #0
 80040aa:	4643      	mov	r3, r8
 80040ac:	781e      	ldrb	r6, [r3, #0]
 80040ae:	2e00      	cmp	r6, #0
 80040b0:	d112      	bne.n	80040d8 <IPv4_to_s+0x4c>
 80040b2:	464b      	mov	r3, r9
 80040b4:	2230      	movs	r2, #48	; 0x30
 80040b6:	1c68      	adds	r0, r5, #1
 80040b8:	b2c0      	uxtb	r0, r0
 80040ba:	555a      	strb	r2, [r3, r5]
 80040bc:	45d0      	cmp	r8, sl
 80040be:	d033      	beq.n	8004128 <IPv4_to_s+0x9c>
 80040c0:	464b      	mov	r3, r9
 80040c2:	222e      	movs	r2, #46	; 0x2e
 80040c4:	541a      	strb	r2, [r3, r0]
 80040c6:	2301      	movs	r3, #1
 80040c8:	469c      	mov	ip, r3
 80040ca:	1c45      	adds	r5, r0, #1
 80040cc:	44e0      	add	r8, ip
 80040ce:	b2ed      	uxtb	r5, r5
 80040d0:	45d8      	cmp	r8, fp
 80040d2:	d1ea      	bne.n	80040aa <IPv4_to_s+0x1e>
 80040d4:	0028      	movs	r0, r5
 80040d6:	e02a      	b.n	800412e <IPv4_to_s+0xa2>
 80040d8:	2400      	movs	r4, #0
 80040da:	0030      	movs	r0, r6
 80040dc:	210a      	movs	r1, #10
 80040de:	f7fc f8ab 	bl	8000238 <__aeabi_uidivmod>
 80040e2:	002f      	movs	r7, r5
 80040e4:	464b      	mov	r3, r9
 80040e6:	3130      	adds	r1, #48	; 0x30
 80040e8:	55d9      	strb	r1, [r3, r7]
 80040ea:	0030      	movs	r0, r6
 80040ec:	210a      	movs	r1, #10
 80040ee:	f7fc f81d 	bl	800012c <__udivsi3>
 80040f2:	3501      	adds	r5, #1
 80040f4:	3401      	adds	r4, #1
 80040f6:	0037      	movs	r7, r6
 80040f8:	b2ed      	uxtb	r5, r5
 80040fa:	b2c6      	uxtb	r6, r0
 80040fc:	b2e4      	uxtb	r4, r4
 80040fe:	2f09      	cmp	r7, #9
 8004100:	d8eb      	bhi.n	80040da <IPv4_to_s+0x4e>
 8004102:	0860      	lsrs	r0, r4, #1
 8004104:	d00d      	beq.n	8004122 <IPv4_to_s+0x96>
 8004106:	2300      	movs	r3, #0
 8004108:	1b2c      	subs	r4, r5, r4
 800410a:	1e6a      	subs	r2, r5, #1
 800410c:	444a      	add	r2, r9
 800410e:	444c      	add	r4, r9
 8004110:	7811      	ldrb	r1, [r2, #0]
 8004112:	5ce6      	ldrb	r6, [r4, r3]
 8004114:	3a01      	subs	r2, #1
 8004116:	7056      	strb	r6, [r2, #1]
 8004118:	54e1      	strb	r1, [r4, r3]
 800411a:	3301      	adds	r3, #1
 800411c:	b2d9      	uxtb	r1, r3
 800411e:	4281      	cmp	r1, r0
 8004120:	d3f6      	bcc.n	8004110 <IPv4_to_s+0x84>
 8004122:	0028      	movs	r0, r5
 8004124:	45d0      	cmp	r8, sl
 8004126:	d1cb      	bne.n	80040c0 <IPv4_to_s+0x34>
 8004128:	2300      	movs	r3, #0
 800412a:	464a      	mov	r2, r9
 800412c:	5413      	strb	r3, [r2, r0]
 800412e:	bcf0      	pop	{r4, r5, r6, r7}
 8004130:	46bb      	mov	fp, r7
 8004132:	46b2      	mov	sl, r6
 8004134:	46a9      	mov	r9, r5
 8004136:	46a0      	mov	r8, r4
 8004138:	bdf8      	pop	{r3, r4, r5, r6, r7, pc}
 800413a:	46c0      	nop			; (mov r8, r8)

0800413c <begin_serial485>:
 800413c:	b570      	push	{r4, r5, r6, lr}
 800413e:	220c      	movs	r2, #12
 8004140:	0004      	movs	r4, r0
 8004142:	000d      	movs	r5, r1
 8004144:	f001 f8f2 	bl	800532c <memcpy>
 8004148:	2201      	movs	r2, #1
 800414a:	236e      	movs	r3, #110	; 0x6e
 800414c:	2600      	movs	r6, #0
 800414e:	54e2      	strb	r2, [r4, r3]
 8004150:	3b02      	subs	r3, #2
 8004152:	7326      	strb	r6, [r4, #12]
 8004154:	52e6      	strh	r6, [r4, r3]
 8004156:	8929      	ldrh	r1, [r5, #8]
 8004158:	6868      	ldr	r0, [r5, #4]
 800415a:	f7fc fd2d 	bl	8000bb8 <HAL_GPIO_WritePin>
 800415e:	0021      	movs	r1, r4
 8004160:	6820      	ldr	r0, [r4, #0]
 8004162:	2220      	movs	r2, #32
 8004164:	6244      	str	r4, [r0, #36]	; 0x24
 8004166:	312c      	adds	r1, #44	; 0x2c
 8004168:	6726      	str	r6, [r4, #112]	; 0x70
 800416a:	f7fe fb67 	bl	800283c <HAL_UARTEx_ReceiveToIdle_DMA>
 800416e:	bd70      	pop	{r4, r5, r6, pc}

08004170 <HAL_UARTEx_RxEventCallback>:
 8004170:	2372      	movs	r3, #114	; 0x72
 8004172:	b5f0      	push	{r4, r5, r6, r7, lr}
 8004174:	46c6      	mov	lr, r8
 8004176:	6a45      	ldr	r5, [r0, #36]	; 0x24
 8004178:	b500      	push	{lr}
 800417a:	5aea      	ldrh	r2, [r5, r3]
 800417c:	428a      	cmp	r2, r1
 800417e:	d005      	beq.n	800418c <HAL_UARTEx_RxEventCallback+0x1c>
 8004180:	2920      	cmp	r1, #32
 8004182:	d003      	beq.n	800418c <HAL_UARTEx_RxEventCallback+0x1c>
 8004184:	52e9      	strh	r1, [r5, r3]
 8004186:	bc80      	pop	{r7}
 8004188:	46b8      	mov	r8, r7
 800418a:	bdf0      	pop	{r4, r5, r6, r7, pc}
 800418c:	276c      	movs	r7, #108	; 0x6c
 800418e:	5beb      	ldrh	r3, [r5, r7]
 8004190:	b29a      	uxth	r2, r3
 8004192:	4690      	mov	r8, r2
 8004194:	2b00      	cmp	r3, #0
 8004196:	d009      	beq.n	80041ac <HAL_UARTEx_RxEventCallback+0x3c>
 8004198:	002e      	movs	r6, r5
 800419a:	362c      	adds	r6, #44	; 0x2c
 800419c:	2300      	movs	r3, #0
 800419e:	2220      	movs	r2, #32
 80041a0:	0031      	movs	r1, r6
 80041a2:	6828      	ldr	r0, [r5, #0]
 80041a4:	672b      	str	r3, [r5, #112]	; 0x70
 80041a6:	f7fe fb49 	bl	800283c <HAL_UARTEx_ReceiveToIdle_DMA>
 80041aa:	e7ec      	b.n	8004186 <HAL_UARTEx_RxEventCallback+0x16>
 80041ac:	2370      	movs	r3, #112	; 0x70
 80041ae:	002e      	movs	r6, r5
 80041b0:	0028      	movs	r0, r5
 80041b2:	5aeb      	ldrh	r3, [r5, r3]
 80041b4:	362c      	adds	r6, #44	; 0x2c
 80041b6:	1acc      	subs	r4, r1, r3
 80041b8:	b2a4      	uxth	r4, r4
 80041ba:	0022      	movs	r2, r4
 80041bc:	18f1      	adds	r1, r6, r3
 80041be:	300c      	adds	r0, #12
 80041c0:	f001 f910 	bl	80053e4 <strncpy>
 80041c4:	4642      	mov	r2, r8
 80041c6:	192b      	adds	r3, r5, r4
 80041c8:	731a      	strb	r2, [r3, #12]
 80041ca:	53ec      	strh	r4, [r5, r7]
 80041cc:	e7e6      	b.n	800419c <HAL_UARTEx_RxEventCallback+0x2c>
 80041ce:	46c0      	nop			; (mov r8, r8)

080041d0 <HAL_UART_ErrorCallback>:
 80041d0:	6a43      	ldr	r3, [r0, #36]	; 0x24
 80041d2:	2200      	movs	r2, #0
 80041d4:	0019      	movs	r1, r3
 80041d6:	b510      	push	{r4, lr}
 80041d8:	6818      	ldr	r0, [r3, #0]
 80041da:	671a      	str	r2, [r3, #112]	; 0x70
 80041dc:	312c      	adds	r1, #44	; 0x2c
 80041de:	3220      	adds	r2, #32
 80041e0:	f7fe fb2c 	bl	800283c <HAL_UARTEx_ReceiveToIdle_DMA>
 80041e4:	bd10      	pop	{r4, pc}
 80041e6:	46c0      	nop			; (mov r8, r8)

080041e8 <fn_ping>:
 80041e8:	233f      	movs	r3, #63	; 0x3f
 80041ea:	7013      	strb	r3, [r2, #0]
 80041ec:	3b32      	subs	r3, #50	; 0x32
 80041ee:	7053      	strb	r3, [r2, #1]
 80041f0:	2300      	movs	r3, #0
 80041f2:	2000      	movs	r0, #0
 80041f4:	7093      	strb	r3, [r2, #2]
 80041f6:	4770      	bx	lr

080041f8 <fn_get_ant_assignment>:
 80041f8:	b570      	push	{r4, r5, r6, lr}
 80041fa:	0016      	movs	r6, r2
 80041fc:	2501      	movs	r5, #1
 80041fe:	b082      	sub	sp, #8
 8004200:	2801      	cmp	r0, #1
 8004202:	d90a      	bls.n	800421a <fn_get_ant_assignment+0x22>
 8004204:	6848      	ldr	r0, [r1, #4]
 8004206:	aa01      	add	r2, sp, #4
 8004208:	2101      	movs	r1, #1
 800420a:	f000 f94b 	bl	80044a4 <my_atou>
 800420e:	1e04      	subs	r4, r0, #0
 8004210:	d103      	bne.n	800421a <fn_get_ant_assignment+0x22>
 8004212:	9b01      	ldr	r3, [sp, #4]
 8004214:	3b01      	subs	r3, #1
 8004216:	2b01      	cmp	r3, #1
 8004218:	d902      	bls.n	8004220 <fn_get_ant_assignment+0x28>
 800421a:	0028      	movs	r0, r5
 800421c:	b002      	add	sp, #8
 800421e:	bd70      	pop	{r4, r5, r6, pc}
 8004220:	2102      	movs	r1, #2
 8004222:	4668      	mov	r0, sp
 8004224:	f000 fc3c 	bl	8004aa0 <get_Antenna_real_BCDs>
 8004228:	2204      	movs	r2, #4
 800422a:	0030      	movs	r0, r6
 800422c:	4908      	ldr	r1, [pc, #32]	; (8004250 <fn_get_ant_assignment+0x58>)
 800422e:	f001 f87d 	bl	800532c <memcpy>
 8004232:	9b01      	ldr	r3, [sp, #4]
 8004234:	2500      	movs	r5, #0
 8004236:	001a      	movs	r2, r3
 8004238:	446b      	add	r3, sp
 800423a:	3b01      	subs	r3, #1
 800423c:	781b      	ldrb	r3, [r3, #0]
 800423e:	3230      	adds	r2, #48	; 0x30
 8004240:	3330      	adds	r3, #48	; 0x30
 8004242:	7133      	strb	r3, [r6, #4]
 8004244:	230d      	movs	r3, #13
 8004246:	70f2      	strb	r2, [r6, #3]
 8004248:	7173      	strb	r3, [r6, #5]
 800424a:	71b4      	strb	r4, [r6, #6]
 800424c:	e7e5      	b.n	800421a <fn_get_ant_assignment+0x22>
 800424e:	46c0      	nop			; (mov r8, r8)
 8004250:	080058a8 	.word	0x080058a8

08004254 <fn_set_ant_assignment>:
 8004254:	b570      	push	{r4, r5, r6, lr}
 8004256:	2301      	movs	r3, #1
 8004258:	000c      	movs	r4, r1
 800425a:	0015      	movs	r5, r2
 800425c:	b084      	sub	sp, #16
 800425e:	2802      	cmp	r0, #2
 8004260:	d802      	bhi.n	8004268 <fn_set_ant_assignment+0x14>
 8004262:	0018      	movs	r0, r3
 8004264:	b004      	add	sp, #16
 8004266:	bd70      	pop	{r4, r5, r6, pc}
 8004268:	2300      	movs	r3, #0
 800426a:	2101      	movs	r1, #1
 800426c:	6860      	ldr	r0, [r4, #4]
 800426e:	aa02      	add	r2, sp, #8
 8004270:	9303      	str	r3, [sp, #12]
 8004272:	f000 f917 	bl	80044a4 <my_atou>
 8004276:	1e06      	subs	r6, r0, #0
 8004278:	d108      	bne.n	800428c <fn_set_ant_assignment+0x38>
 800427a:	2102      	movs	r1, #2
 800427c:	68a0      	ldr	r0, [r4, #8]
 800427e:	aa03      	add	r2, sp, #12
 8004280:	f000 f910 	bl	80044a4 <my_atou>
 8004284:	9b02      	ldr	r3, [sp, #8]
 8004286:	3b01      	subs	r3, #1
 8004288:	2b01      	cmp	r3, #1
 800428a:	d901      	bls.n	8004290 <fn_set_ant_assignment+0x3c>
 800428c:	2301      	movs	r3, #1
 800428e:	e7e8      	b.n	8004262 <fn_set_ant_assignment+0xe>
 8004290:	9a03      	ldr	r2, [sp, #12]
 8004292:	2a06      	cmp	r2, #6
 8004294:	d8fa      	bhi.n	800428c <fn_set_ant_assignment+0x38>
 8004296:	490d      	ldr	r1, [pc, #52]	; (80042cc <fn_set_ant_assignment+0x78>)
 8004298:	a801      	add	r0, sp, #4
 800429a:	7e0c      	ldrb	r4, [r1, #24]
 800429c:	7004      	strb	r4, [r0, #0]
 800429e:	2434      	movs	r4, #52	; 0x34
 80042a0:	5d09      	ldrb	r1, [r1, r4]
 80042a2:	7041      	strb	r1, [r0, #1]
 80042a4:	2102      	movs	r1, #2
 80042a6:	54c2      	strb	r2, [r0, r3]
 80042a8:	f000 fba2 	bl	80049f0 <switch_Antenna>
 80042ac:	2204      	movs	r2, #4
 80042ae:	0028      	movs	r0, r5
 80042b0:	4907      	ldr	r1, [pc, #28]	; (80042d0 <fn_set_ant_assignment+0x7c>)
 80042b2:	f001 f83b 	bl	800532c <memcpy>
 80042b6:	9b02      	ldr	r3, [sp, #8]
 80042b8:	71ae      	strb	r6, [r5, #6]
 80042ba:	3330      	adds	r3, #48	; 0x30
 80042bc:	70eb      	strb	r3, [r5, #3]
 80042be:	9b03      	ldr	r3, [sp, #12]
 80042c0:	3330      	adds	r3, #48	; 0x30
 80042c2:	712b      	strb	r3, [r5, #4]
 80042c4:	230d      	movs	r3, #13
 80042c6:	716b      	strb	r3, [r5, #5]
 80042c8:	2300      	movs	r3, #0
 80042ca:	e7ca      	b.n	8004262 <fn_set_ant_assignment+0xe>
 80042cc:	20001114 	.word	0x20001114
 80042d0:	080058a8 	.word	0x080058a8

080042d4 <fn_get_ant_name.part.0>:
 80042d4:	b5f0      	push	{r4, r5, r6, r7, lr}
 80042d6:	46c6      	mov	lr, r8
 80042d8:	2300      	movs	r3, #0
 80042da:	b500      	push	{lr}
 80042dc:	b082      	sub	sp, #8
 80042de:	0005      	movs	r5, r0
 80042e0:	000e      	movs	r6, r1
 80042e2:	6840      	ldr	r0, [r0, #4]
 80042e4:	2101      	movs	r1, #1
 80042e6:	aa01      	add	r2, sp, #4
 80042e8:	9301      	str	r3, [sp, #4]
 80042ea:	f000 f8db 	bl	80044a4 <my_atou>
 80042ee:	1e04      	subs	r4, r0, #0
 80042f0:	d109      	bne.n	8004306 <fn_get_ant_name.part.0+0x32>
 80042f2:	9b01      	ldr	r3, [sp, #4]
 80042f4:	2001      	movs	r0, #1
 80042f6:	1e5f      	subs	r7, r3, #1
 80042f8:	4698      	mov	r8, r3
 80042fa:	2f05      	cmp	r7, #5
 80042fc:	d905      	bls.n	800430a <fn_get_ant_name.part.0+0x36>
 80042fe:	b002      	add	sp, #8
 8004300:	bc80      	pop	{r7}
 8004302:	46b8      	mov	r8, r7
 8004304:	bdf0      	pop	{r4, r5, r6, r7, pc}
 8004306:	2001      	movs	r0, #1
 8004308:	e7f9      	b.n	80042fe <fn_get_ant_name.part.0+0x2a>
 800430a:	4910      	ldr	r1, [pc, #64]	; (800434c <fn_get_ant_name.part.0+0x78>)
 800430c:	013f      	lsls	r7, r7, #4
 800430e:	370a      	adds	r7, #10
 8004310:	187f      	adds	r7, r7, r1
 8004312:	2210      	movs	r2, #16
 8004314:	68a9      	ldr	r1, [r5, #8]
 8004316:	0038      	movs	r0, r7
 8004318:	f001 f864 	bl	80053e4 <strncpy>
 800431c:	2205      	movs	r2, #5
 800431e:	490c      	ldr	r1, [pc, #48]	; (8004350 <fn_get_ant_name.part.0+0x7c>)
 8004320:	0030      	movs	r0, r6
 8004322:	73fc      	strb	r4, [r7, #15]
 8004324:	f001 f802 	bl	800532c <memcpy>
 8004328:	4643      	mov	r3, r8
 800432a:	3330      	adds	r3, #48	; 0x30
 800432c:	2218      	movs	r2, #24
 800432e:	0039      	movs	r1, r7
 8004330:	7133      	strb	r3, [r6, #4]
 8004332:	0030      	movs	r0, r6
 8004334:	f001 f82f 	bl	8005396 <strncat>
 8004338:	0030      	movs	r0, r6
 800433a:	f7fb feef 	bl	800011c <strlen>
 800433e:	2202      	movs	r2, #2
 8004340:	4904      	ldr	r1, [pc, #16]	; (8004354 <fn_get_ant_name.part.0+0x80>)
 8004342:	1830      	adds	r0, r6, r0
 8004344:	f000 fff2 	bl	800532c <memcpy>
 8004348:	2000      	movs	r0, #0
 800434a:	e7d8      	b.n	80042fe <fn_get_ant_name.part.0+0x2a>
 800434c:	20000d94 	.word	0x20000d94
 8004350:	080058ac 	.word	0x080058ac
 8004354:	080058b4 	.word	0x080058b4

08004358 <fn_set_ant_name>:
 8004358:	000b      	movs	r3, r1
 800435a:	b510      	push	{r4, lr}
 800435c:	0011      	movs	r1, r2
 800435e:	0004      	movs	r4, r0
 8004360:	2001      	movs	r0, #1
 8004362:	2c02      	cmp	r4, #2
 8004364:	d902      	bls.n	800436c <fn_set_ant_name+0x14>
 8004366:	0018      	movs	r0, r3
 8004368:	f7ff ffb4 	bl	80042d4 <fn_get_ant_name.part.0>
 800436c:	bd10      	pop	{r4, pc}
 800436e:	46c0      	nop			; (mov r8, r8)

08004370 <fn_get_ant_name>:
 8004370:	b510      	push	{r4, lr}
 8004372:	2301      	movs	r3, #1
 8004374:	000c      	movs	r4, r1
 8004376:	0011      	movs	r1, r2
 8004378:	2801      	cmp	r0, #1
 800437a:	d903      	bls.n	8004384 <fn_get_ant_name+0x14>
 800437c:	0020      	movs	r0, r4
 800437e:	f7ff ffa9 	bl	80042d4 <fn_get_ant_name.part.0>
 8004382:	0003      	movs	r3, r0
 8004384:	0018      	movs	r0, r3
 8004386:	bd10      	pop	{r4, pc}

08004388 <parse_command_OTRSP>:
 8004388:	b5f8      	push	{r3, r4, r5, r6, r7, lr}
 800438a:	4647      	mov	r7, r8
 800438c:	46ce      	mov	lr, r9
 800438e:	0004      	movs	r4, r0
 8004390:	4690      	mov	r8, r2
 8004392:	b580      	push	{r7, lr}
 8004394:	2900      	cmp	r1, #0
 8004396:	d110      	bne.n	80043ba <parse_command_OTRSP+0x32>
 8004398:	f7fb fec0 	bl	800011c <strlen>
 800439c:	b281      	uxth	r1, r0
 800439e:	2900      	cmp	r1, #0
 80043a0:	d028      	beq.n	80043f4 <parse_command_OTRSP+0x6c>
 80043a2:	7823      	ldrb	r3, [r4, #0]
 80043a4:	001a      	movs	r2, r3
 80043a6:	3a41      	subs	r2, #65	; 0x41
 80043a8:	2a19      	cmp	r2, #25
 80043aa:	d90b      	bls.n	80043c4 <parse_command_OTRSP+0x3c>
 80043ac:	2b3f      	cmp	r3, #63	; 0x3f
 80043ae:	d009      	beq.n	80043c4 <parse_command_OTRSP+0x3c>
 80043b0:	3901      	subs	r1, #1
 80043b2:	b289      	uxth	r1, r1
 80043b4:	3401      	adds	r4, #1
 80043b6:	2900      	cmp	r1, #0
 80043b8:	d01c      	beq.n	80043f4 <parse_command_OTRSP+0x6c>
 80043ba:	7823      	ldrb	r3, [r4, #0]
 80043bc:	001a      	movs	r2, r3
 80043be:	3a41      	subs	r2, #65	; 0x41
 80043c0:	2a19      	cmp	r2, #25
 80043c2:	d8f3      	bhi.n	80043ac <parse_command_OTRSP+0x24>
 80043c4:	2901      	cmp	r1, #1
 80043c6:	d915      	bls.n	80043f4 <parse_command_OTRSP+0x6c>
 80043c8:	4b32      	ldr	r3, [pc, #200]	; (8004494 <parse_command_OTRSP+0x10c>)
 80043ca:	4d33      	ldr	r5, [pc, #204]	; (8004498 <parse_command_OTRSP+0x110>)
 80043cc:	4699      	mov	r9, r3
 80043ce:	601d      	str	r5, [r3, #0]
 80043d0:	002b      	movs	r3, r5
 80043d2:	7822      	ldrb	r2, [r4, #0]
 80043d4:	001e      	movs	r6, r3
 80043d6:	0010      	movs	r0, r2
 80043d8:	3841      	subs	r0, #65	; 0x41
 80043da:	2819      	cmp	r0, #25
 80043dc:	d901      	bls.n	80043e2 <parse_command_OTRSP+0x5a>
 80043de:	2a3f      	cmp	r2, #63	; 0x3f
 80043e0:	d10e      	bne.n	8004400 <parse_command_OTRSP+0x78>
 80043e2:	3901      	subs	r1, #1
 80043e4:	b289      	uxth	r1, r1
 80043e6:	3301      	adds	r3, #1
 80043e8:	7032      	strb	r2, [r6, #0]
 80043ea:	3401      	adds	r4, #1
 80043ec:	2900      	cmp	r1, #0
 80043ee:	d1f0      	bne.n	80043d2 <parse_command_OTRSP+0x4a>
 80043f0:	429d      	cmp	r5, r3
 80043f2:	d14b      	bne.n	800448c <parse_command_OTRSP+0x104>
 80043f4:	2001      	movs	r0, #1
 80043f6:	4240      	negs	r0, r0
 80043f8:	bcc0      	pop	{r6, r7}
 80043fa:	46b9      	mov	r9, r7
 80043fc:	46b0      	mov	r8, r6
 80043fe:	bdf8      	pop	{r3, r4, r5, r6, r7, pc}
 8004400:	429d      	cmp	r5, r3
 8004402:	d0f7      	beq.n	80043f4 <parse_command_OTRSP+0x6c>
 8004404:	2200      	movs	r2, #0
 8004406:	701a      	strb	r2, [r3, #0]
 8004408:	1c5a      	adds	r2, r3, #1
 800440a:	2300      	movs	r3, #0
 800440c:	2701      	movs	r7, #1
 800440e:	469c      	mov	ip, r3
 8004410:	7823      	ldrb	r3, [r4, #0]
 8004412:	2b20      	cmp	r3, #32
 8004414:	d003      	beq.n	800441e <parse_command_OTRSP+0x96>
 8004416:	2b2c      	cmp	r3, #44	; 0x2c
 8004418:	d001      	beq.n	800441e <parse_command_OTRSP+0x96>
 800441a:	2b09      	cmp	r3, #9
 800441c:	d121      	bne.n	8004462 <parse_command_OTRSP+0xda>
 800441e:	3901      	subs	r1, #1
 8004420:	b289      	uxth	r1, r1
 8004422:	3401      	adds	r4, #1
 8004424:	2900      	cmp	r1, #0
 8004426:	d1f3      	bne.n	8004410 <parse_command_OTRSP+0x88>
 8004428:	4e1c      	ldr	r6, [pc, #112]	; (800449c <parse_command_OTRSP+0x114>)
 800442a:	0028      	movs	r0, r5
 800442c:	6831      	ldr	r1, [r6, #0]
 800442e:	2400      	movs	r4, #0
 8004430:	f7fb fe6a 	bl	8000108 <strcmp>
 8004434:	2800      	cmp	r0, #0
 8004436:	d009      	beq.n	800444c <parse_command_OTRSP+0xc4>
 8004438:	3401      	adds	r4, #1
 800443a:	3604      	adds	r6, #4
 800443c:	2c05      	cmp	r4, #5
 800443e:	d0d9      	beq.n	80043f4 <parse_command_OTRSP+0x6c>
 8004440:	0028      	movs	r0, r5
 8004442:	6831      	ldr	r1, [r6, #0]
 8004444:	f7fb fe60 	bl	8000108 <strcmp>
 8004448:	2800      	cmp	r0, #0
 800444a:	d1f5      	bne.n	8004438 <parse_command_OTRSP+0xb0>
 800444c:	4b14      	ldr	r3, [pc, #80]	; (80044a0 <parse_command_OTRSP+0x118>)
 800444e:	00a2      	lsls	r2, r4, #2
 8004450:	58d3      	ldr	r3, [r2, r3]
 8004452:	2b00      	cmp	r3, #0
 8004454:	d003      	beq.n	800445e <parse_command_OTRSP+0xd6>
 8004456:	4642      	mov	r2, r8
 8004458:	4649      	mov	r1, r9
 800445a:	b2f8      	uxtb	r0, r7
 800445c:	4798      	blx	r3
 800445e:	0020      	movs	r0, r4
 8004460:	e7ca      	b.n	80043f8 <parse_command_OTRSP+0x70>
 8004462:	0018      	movs	r0, r3
 8004464:	3830      	subs	r0, #48	; 0x30
 8004466:	2809      	cmp	r0, #9
 8004468:	d8de      	bhi.n	8004428 <parse_command_OTRSP+0xa0>
 800446a:	464e      	mov	r6, r9
 800446c:	7013      	strb	r3, [r2, #0]
 800446e:	1c50      	adds	r0, r2, #1
 8004470:	00bb      	lsls	r3, r7, #2
 8004472:	50f0      	str	r0, [r6, r3]
 8004474:	4663      	mov	r3, ip
 8004476:	3901      	subs	r1, #1
 8004478:	b289      	uxth	r1, r1
 800447a:	3701      	adds	r7, #1
 800447c:	3401      	adds	r4, #1
 800447e:	7053      	strb	r3, [r2, #1]
 8004480:	2900      	cmp	r1, #0
 8004482:	d0d1      	beq.n	8004428 <parse_command_OTRSP+0xa0>
 8004484:	3202      	adds	r2, #2
 8004486:	2f04      	cmp	r7, #4
 8004488:	d1c2      	bne.n	8004410 <parse_command_OTRSP+0x88>
 800448a:	e7cd      	b.n	8004428 <parse_command_OTRSP+0xa0>
 800448c:	2701      	movs	r7, #1
 800448e:	7019      	strb	r1, [r3, #0]
 8004490:	e7ca      	b.n	8004428 <parse_command_OTRSP+0xa0>
 8004492:	46c0      	nop			; (mov r8, r8)
 8004494:	20000d48 	.word	0x20000d48
 8004498:	20000d58 	.word	0x20000d58
 800449c:	20000684 	.word	0x20000684
 80044a0:	080058cc 	.word	0x080058cc

080044a4 <my_atou>:
 80044a4:	b5f0      	push	{r4, r5, r6, r7, lr}
 80044a6:	7806      	ldrb	r6, [r0, #0]
 80044a8:	2e00      	cmp	r6, #0
 80044aa:	d019      	beq.n	80044e0 <my_atou+0x3c>
 80044ac:	2900      	cmp	r1, #0
 80044ae:	dd17      	ble.n	80044e0 <my_atou+0x3c>
 80044b0:	0007      	movs	r7, r0
 80044b2:	2500      	movs	r5, #0
 80044b4:	e00d      	b.n	80044d2 <my_atou+0x2e>
 80044b6:	00ab      	lsls	r3, r5, #2
 80044b8:	195b      	adds	r3, r3, r5
 80044ba:	005b      	lsls	r3, r3, #1
 80044bc:	3b30      	subs	r3, #48	; 0x30
 80044be:	3701      	adds	r7, #1
 80044c0:	18f5      	adds	r5, r6, r3
 80044c2:	783e      	ldrb	r6, [r7, #0]
 80044c4:	2e00      	cmp	r6, #0
 80044c6:	d00c      	beq.n	80044e2 <my_atou+0x3e>
 80044c8:	1bcc      	subs	r4, r1, r7
 80044ca:	1904      	adds	r4, r0, r4
 80044cc:	b264      	sxtb	r4, r4
 80044ce:	2c00      	cmp	r4, #0
 80044d0:	dd07      	ble.n	80044e2 <my_atou+0x3e>
 80044d2:	0033      	movs	r3, r6
 80044d4:	3b30      	subs	r3, #48	; 0x30
 80044d6:	2b09      	cmp	r3, #9
 80044d8:	d9ed      	bls.n	80044b6 <my_atou+0x12>
 80044da:	2001      	movs	r0, #1
 80044dc:	4240      	negs	r0, r0
 80044de:	e002      	b.n	80044e6 <my_atou+0x42>
 80044e0:	2500      	movs	r5, #0
 80044e2:	2000      	movs	r0, #0
 80044e4:	6015      	str	r5, [r2, #0]
 80044e6:	bdf0      	pop	{r4, r5, r6, r7, pc}

080044e8 <execute_command_string>:
 80044e8:	b570      	push	{r4, r5, r6, lr}
 80044ea:	0004      	movs	r4, r0
 80044ec:	7823      	ldrb	r3, [r4, #0]
 80044ee:	0008      	movs	r0, r1
 80044f0:	2b00      	cmp	r3, #0
 80044f2:	d111      	bne.n	8004518 <execute_command_string+0x30>
 80044f4:	1ca6      	adds	r6, r4, #2
 80044f6:	70a3      	strb	r3, [r4, #2]
 80044f8:	b291      	uxth	r1, r2
 80044fa:	0032      	movs	r2, r6
 80044fc:	f7ff ff44 	bl	8004388 <parse_command_OTRSP>
 8004500:	78a3      	ldrb	r3, [r4, #2]
 8004502:	0005      	movs	r5, r0
 8004504:	2b00      	cmp	r3, #0
 8004506:	d005      	beq.n	8004514 <execute_command_string+0x2c>
 8004508:	2118      	movs	r1, #24
 800450a:	0030      	movs	r0, r6
 800450c:	f000 ff7e 	bl	800540c <strnlen>
 8004510:	b2c0      	uxtb	r0, r0
 8004512:	7060      	strb	r0, [r4, #1]
 8004514:	0028      	movs	r0, r5
 8004516:	bd70      	pop	{r4, r5, r6, pc}
 8004518:	2501      	movs	r5, #1
 800451a:	426d      	negs	r5, r5
 800451c:	e7fa      	b.n	8004514 <execute_command_string+0x2c>
 800451e:	46c0      	nop			; (mov r8, r8)

08004520 <display_IP.part.0>:
 8004520:	2200      	movs	r2, #0
 8004522:	b510      	push	{r4, lr}
 8004524:	4b10      	ldr	r3, [pc, #64]	; (8004568 <display_IP.part.0+0x48>)
 8004526:	4c11      	ldr	r4, [pc, #68]	; (800456c <display_IP.part.0+0x4c>)
 8004528:	701a      	strb	r2, [r3, #0]
 800452a:	88a1      	ldrh	r1, [r4, #4]
 800452c:	6820      	ldr	r0, [r4, #0]
 800452e:	3201      	adds	r2, #1
 8004530:	f7fc fb42 	bl	8000bb8 <HAL_GPIO_WritePin>
 8004534:	89a1      	ldrh	r1, [r4, #12]
 8004536:	68a0      	ldr	r0, [r4, #8]
 8004538:	2200      	movs	r2, #0
 800453a:	f7fc fb3d 	bl	8000bb8 <HAL_GPIO_WritePin>
 800453e:	8aa1      	ldrh	r1, [r4, #20]
 8004540:	6920      	ldr	r0, [r4, #16]
 8004542:	2200      	movs	r2, #0
 8004544:	f7fc fb38 	bl	8000bb8 <HAL_GPIO_WritePin>
 8004548:	2200      	movs	r2, #0
 800454a:	8c21      	ldrh	r1, [r4, #32]
 800454c:	69e0      	ldr	r0, [r4, #28]
 800454e:	f7fc fb33 	bl	8000bb8 <HAL_GPIO_WritePin>
 8004552:	4907      	ldr	r1, [pc, #28]	; (8004570 <display_IP.part.0+0x50>)
 8004554:	4807      	ldr	r0, [pc, #28]	; (8004574 <display_IP.part.0+0x54>)
 8004556:	f7ff fd99 	bl	800408c <IPv4_to_s>
 800455a:	4b07      	ldr	r3, [pc, #28]	; (8004578 <display_IP.part.0+0x58>)
 800455c:	7018      	strb	r0, [r3, #0]
 800455e:	4807      	ldr	r0, [pc, #28]	; (800457c <display_IP.part.0+0x5c>)
 8004560:	f7fd fb70 	bl	8001c44 <HAL_TIM_Base_Start_IT>
 8004564:	bd10      	pop	{r4, pc}
 8004566:	46c0      	nop			; (mov r8, r8)
 8004568:	2000069c 	.word	0x2000069c
 800456c:	20001114 	.word	0x20001114
 8004570:	20000d68 	.word	0x20000d68
 8004574:	20000d84 	.word	0x20000d84
 8004578:	20000d80 	.word	0x20000d80
 800457c:	20001190 	.word	0x20001190

08004580 <SystemClock_Config>:
 8004580:	b530      	push	{r4, r5, lr}
 8004582:	b091      	sub	sp, #68	; 0x44
 8004584:	2218      	movs	r2, #24
 8004586:	2100      	movs	r1, #0
 8004588:	a805      	add	r0, sp, #20
 800458a:	f000 fed8 	bl	800533e <memset>
 800458e:	2100      	movs	r1, #0
 8004590:	2210      	movs	r2, #16
 8004592:	4668      	mov	r0, sp
 8004594:	f000 fed3 	bl	800533e <memset>
 8004598:	230a      	movs	r3, #10
 800459a:	9304      	str	r3, [sp, #16]
 800459c:	3b09      	subs	r3, #9
 800459e:	9307      	str	r3, [sp, #28]
 80045a0:	930b      	str	r3, [sp, #44]	; 0x2c
 80045a2:	23c0      	movs	r3, #192	; 0xc0
 80045a4:	2210      	movs	r2, #16
 80045a6:	2400      	movs	r4, #0
 80045a8:	2502      	movs	r5, #2
 80045aa:	035b      	lsls	r3, r3, #13
 80045ac:	a804      	add	r0, sp, #16
 80045ae:	9208      	str	r2, [sp, #32]
 80045b0:	930e      	str	r3, [sp, #56]	; 0x38
 80045b2:	950c      	str	r5, [sp, #48]	; 0x30
 80045b4:	940d      	str	r4, [sp, #52]	; 0x34
 80045b6:	940f      	str	r4, [sp, #60]	; 0x3c
 80045b8:	f7fc fb42 	bl	8000c40 <HAL_RCC_OscConfig>
 80045bc:	2307      	movs	r3, #7
 80045be:	9300      	str	r3, [sp, #0]
 80045c0:	23a0      	movs	r3, #160	; 0xa0
 80045c2:	2101      	movs	r1, #1
 80045c4:	00db      	lsls	r3, r3, #3
 80045c6:	4668      	mov	r0, sp
 80045c8:	9501      	str	r5, [sp, #4]
 80045ca:	9402      	str	r4, [sp, #8]
 80045cc:	9303      	str	r3, [sp, #12]
 80045ce:	f7fc fd91 	bl	80010f4 <HAL_RCC_ClockConfig>
 80045d2:	b011      	add	sp, #68	; 0x44
 80045d4:	bd30      	pop	{r4, r5, pc}
 80045d6:	46c0      	nop			; (mov r8, r8)

080045d8 <reset_CH395>:
 80045d8:	b5f0      	push	{r4, r5, r6, r7, lr}
 80045da:	46c6      	mov	lr, r8
 80045dc:	2400      	movs	r4, #0
 80045de:	22ff      	movs	r2, #255	; 0xff
 80045e0:	276a      	movs	r7, #106	; 0x6a
 80045e2:	b500      	push	{lr}
 80045e4:	4b1c      	ldr	r3, [pc, #112]	; (8004658 <reset_CH395+0x80>)
 80045e6:	4e1d      	ldr	r6, [pc, #116]	; (800465c <reset_CH395+0x84>)
 80045e8:	4d1d      	ldr	r5, [pc, #116]	; (8004660 <reset_CH395+0x88>)
 80045ea:	7034      	strb	r4, [r6, #0]
 80045ec:	765c      	strb	r4, [r3, #25]
 80045ee:	769a      	strb	r2, [r3, #26]
 80045f0:	76da      	strb	r2, [r3, #27]
 80045f2:	761c      	strb	r4, [r3, #24]
 80045f4:	5bea      	ldrh	r2, [r5, r7]
 80045f6:	801a      	strh	r2, [r3, #0]
 80045f8:	805a      	strh	r2, [r3, #2]
 80045fa:	809a      	strh	r2, [r3, #4]
 80045fc:	80da      	strh	r2, [r3, #6]
 80045fe:	226c      	movs	r2, #108	; 0x6c
 8004600:	4690      	mov	r8, r2
 8004602:	5aaa      	ldrh	r2, [r5, r2]
 8004604:	811a      	strh	r2, [r3, #8]
 8004606:	815a      	strh	r2, [r3, #10]
 8004608:	819a      	strh	r2, [r3, #12]
 800460a:	4a16      	ldr	r2, [pc, #88]	; (8004664 <reset_CH395+0x8c>)
 800460c:	821a      	strh	r2, [r3, #16]
 800460e:	825a      	strh	r2, [r3, #18]
 8004610:	4a15      	ldr	r2, [pc, #84]	; (8004668 <reset_CH395+0x90>)
 8004612:	829a      	strh	r2, [r3, #20]
 8004614:	3a01      	subs	r2, #1
 8004616:	3aff      	subs	r2, #255	; 0xff
 8004618:	82da      	strh	r2, [r3, #22]
 800461a:	3a94      	subs	r2, #148	; 0x94
 800461c:	5aaa      	ldrh	r2, [r5, r2]
 800461e:	81da      	strh	r2, [r3, #14]
 8004620:	f7fe f9e8 	bl	80029f4 <CH395CMDReset>
 8004624:	4811      	ldr	r0, [pc, #68]	; (800466c <reset_CH395+0x94>)
 8004626:	f7fe fcfb 	bl	8003020 <Delay_us>
 800462a:	4811      	ldr	r0, [pc, #68]	; (8004670 <reset_CH395+0x98>)
 800462c:	f7fe fa48 	bl	8002ac0 <CH395CMDGetMACAddr>
 8004630:	f7fe f940 	bl	80028b4 <CH395SetBuffer>
 8004634:	4643      	mov	r3, r8
 8004636:	5aea      	ldrh	r2, [r5, r3]
 8004638:	4b0e      	ldr	r3, [pc, #56]	; (8004674 <reset_CH395+0x9c>)
 800463a:	5be9      	ldrh	r1, [r5, r7]
 800463c:	6818      	ldr	r0, [r3, #0]
 800463e:	f7fe f94f 	bl	80028e0 <CH395TCPServerStart>
 8004642:	4b0d      	ldr	r3, [pc, #52]	; (8004678 <reset_CH395+0xa0>)
 8004644:	7030      	strb	r0, [r6, #0]
 8004646:	701c      	strb	r4, [r3, #0]
 8004648:	4b0c      	ldr	r3, [pc, #48]	; (800467c <reset_CH395+0xa4>)
 800464a:	701c      	strb	r4, [r3, #0]
 800464c:	4b0c      	ldr	r3, [pc, #48]	; (8004680 <reset_CH395+0xa8>)
 800464e:	701c      	strb	r4, [r3, #0]
 8004650:	bc80      	pop	{r7}
 8004652:	46b8      	mov	r8, r7
 8004654:	bdf0      	pop	{r4, r5, r6, r7, pc}
 8004656:	46c0      	nop			; (mov r8, r8)
 8004658:	20000018 	.word	0x20000018
 800465c:	20000d77 	.word	0x20000d77
 8004660:	20000d94 	.word	0x20000d94
 8004664:	00000303 	.word	0x00000303
 8004668:	00000202 	.word	0x00000202
 800466c:	000186a0 	.word	0x000186a0
 8004670:	20000d70 	.word	0x20000d70
 8004674:	20000d68 	.word	0x20000d68
 8004678:	20000d79 	.word	0x20000d79
 800467c:	20000d78 	.word	0x20000d78
 8004680:	20000d76 	.word	0x20000d76

08004684 <interrupt_CH395>:
 8004684:	b5f0      	push	{r4, r5, r6, r7, lr}
 8004686:	46de      	mov	lr, fp
 8004688:	4657      	mov	r7, sl
 800468a:	464e      	mov	r6, r9
 800468c:	4645      	mov	r5, r8
 800468e:	b5e0      	push	{r5, r6, r7, lr}
 8004690:	b091      	sub	sp, #68	; 0x44
 8004692:	f7fe fc45 	bl	8002f20 <CH395CMDGetGlobIntStatus_ALL>
 8004696:	0004      	movs	r4, r0
 8004698:	07c3      	lsls	r3, r0, #31
 800469a:	d500      	bpl.n	800469e <interrupt_CH395+0x1a>
 800469c:	e0ad      	b.n	80047fa <interrupt_CH395+0x176>
 800469e:	0723      	lsls	r3, r4, #28
 80046a0:	d500      	bpl.n	80046a4 <interrupt_CH395+0x20>
 80046a2:	e090      	b.n	80047c6 <interrupt_CH395+0x142>
 80046a4:	0763      	lsls	r3, r4, #29
 80046a6:	d500      	bpl.n	80046aa <interrupt_CH395+0x26>
 80046a8:	e082      	b.n	80047b0 <interrupt_CH395+0x12c>
 80046aa:	0924      	lsrs	r4, r4, #4
 80046ac:	b2a4      	uxth	r4, r4
 80046ae:	2c00      	cmp	r4, #0
 80046b0:	d016      	beq.n	80046e0 <interrupt_CH395+0x5c>
 80046b2:	4bbf      	ldr	r3, [pc, #764]	; (80049b0 <interrupt_CH395+0x32c>)
 80046b4:	2501      	movs	r5, #1
 80046b6:	4699      	mov	r9, r3
 80046b8:	4bbe      	ldr	r3, [pc, #760]	; (80049b4 <interrupt_CH395+0x330>)
 80046ba:	464e      	mov	r6, r9
 80046bc:	469b      	mov	fp, r3
 80046be:	231c      	movs	r3, #28
 80046c0:	445b      	add	r3, fp
 80046c2:	469a      	mov	sl, r3
 80046c4:	465b      	mov	r3, fp
 80046c6:	9301      	str	r3, [sp, #4]
 80046c8:	2301      	movs	r3, #1
 80046ca:	0864      	lsrs	r4, r4, #1
 80046cc:	4698      	mov	r8, r3
 80046ce:	b2ef      	uxtb	r7, r5
 80046d0:	4223      	tst	r3, r4
 80046d2:	d10c      	bne.n	80046ee <interrupt_CH395+0x6a>
 80046d4:	2d07      	cmp	r5, #7
 80046d6:	d003      	beq.n	80046e0 <interrupt_CH395+0x5c>
 80046d8:	3501      	adds	r5, #1
 80046da:	36b0      	adds	r6, #176	; 0xb0
 80046dc:	2c00      	cmp	r4, #0
 80046de:	d1f3      	bne.n	80046c8 <interrupt_CH395+0x44>
 80046e0:	b011      	add	sp, #68	; 0x44
 80046e2:	bcf0      	pop	{r4, r5, r6, r7}
 80046e4:	46bb      	mov	fp, r7
 80046e6:	46b2      	mov	sl, r6
 80046e8:	46a9      	mov	r9, r5
 80046ea:	46a0      	mov	r8, r4
 80046ec:	bdf0      	pop	{r4, r5, r6, r7, pc}
 80046ee:	0038      	movs	r0, r7
 80046f0:	f7fe fb7c 	bl	8002dec <CH395GetSocketInt>
 80046f4:	4643      	mov	r3, r8
 80046f6:	4681      	mov	r9, r0
 80046f8:	4203      	tst	r3, r0
 80046fa:	d005      	beq.n	8004708 <interrupt_CH395+0x84>
 80046fc:	40ab      	lsls	r3, r5
 80046fe:	4aad      	ldr	r2, [pc, #692]	; (80049b4 <interrupt_CH395+0x330>)
 8004700:	7ed1      	ldrb	r1, [r2, #27]
 8004702:	430b      	orrs	r3, r1
 8004704:	b2db      	uxtb	r3, r3
 8004706:	76d3      	strb	r3, [r2, #27]
 8004708:	464b      	mov	r3, r9
 800470a:	075b      	lsls	r3, r3, #29
 800470c:	d42b      	bmi.n	8004766 <interrupt_CH395+0xe2>
 800470e:	464b      	mov	r3, r9
 8004710:	071b      	lsls	r3, r3, #28
 8004712:	d50b      	bpl.n	800472c <interrupt_CH395+0xa8>
 8004714:	2301      	movs	r3, #1
 8004716:	40ab      	lsls	r3, r5
 8004718:	49a6      	ldr	r1, [pc, #664]	; (80049b4 <interrupt_CH395+0x330>)
 800471a:	b25b      	sxtb	r3, r3
 800471c:	7e0a      	ldrb	r2, [r1, #24]
 800471e:	431a      	orrs	r2, r3
 8004720:	b2d2      	uxtb	r2, r2
 8004722:	760a      	strb	r2, [r1, #24]
 8004724:	7eca      	ldrb	r2, [r1, #27]
 8004726:	4313      	orrs	r3, r2
 8004728:	b2db      	uxtb	r3, r3
 800472a:	76cb      	strb	r3, [r1, #27]
 800472c:	464b      	mov	r3, r9
 800472e:	06db      	lsls	r3, r3, #27
 8004730:	d5d0      	bpl.n	80046d4 <interrupt_CH395+0x50>
 8004732:	465b      	mov	r3, fp
 8004734:	7e1a      	ldrb	r2, [r3, #24]
 8004736:	2301      	movs	r3, #1
 8004738:	40ab      	lsls	r3, r5
 800473a:	4659      	mov	r1, fp
 800473c:	b25b      	sxtb	r3, r3
 800473e:	439a      	bics	r2, r3
 8004740:	760a      	strb	r2, [r1, #24]
 8004742:	7e4a      	ldrb	r2, [r1, #25]
 8004744:	439a      	bics	r2, r3
 8004746:	764a      	strb	r2, [r1, #25]
 8004748:	7eca      	ldrb	r2, [r1, #27]
 800474a:	4313      	orrs	r3, r2
 800474c:	b2db      	uxtb	r3, r3
 800474e:	76cb      	strb	r3, [r1, #27]
 8004750:	7e8b      	ldrb	r3, [r1, #26]
 8004752:	b25b      	sxtb	r3, r3
 8004754:	429d      	cmp	r5, r3
 8004756:	d1bd      	bne.n	80046d4 <interrupt_CH395+0x50>
 8004758:	23ff      	movs	r3, #255	; 0xff
 800475a:	768b      	strb	r3, [r1, #26]
 800475c:	2d07      	cmp	r5, #7
 800475e:	d0bf      	beq.n	80046e0 <interrupt_CH395+0x5c>
 8004760:	3501      	adds	r5, #1
 8004762:	36b0      	adds	r6, #176	; 0xb0
 8004764:	e7b0      	b.n	80046c8 <interrupt_CH395+0x44>
 8004766:	0038      	movs	r0, r7
 8004768:	f7fe faa8 	bl	8002cbc <CH395GetRecvLength>
 800476c:	22c0      	movs	r2, #192	; 0xc0
 800476e:	b281      	uxth	r1, r0
 8004770:	9002      	str	r0, [sp, #8]
 8004772:	1c03      	adds	r3, r0, #0
 8004774:	00d2      	lsls	r2, r2, #3
 8004776:	4291      	cmp	r1, r2
 8004778:	d259      	bcs.n	800482e <interrupt_CH395+0x1aa>
 800477a:	b29b      	uxth	r3, r3
 800477c:	4698      	mov	r8, r3
 800477e:	4652      	mov	r2, sl
 8004780:	0019      	movs	r1, r3
 8004782:	0038      	movs	r0, r7
 8004784:	f7fe fac6 	bl	8002d14 <CH395GetRecvData>
 8004788:	2200      	movs	r2, #0
 800478a:	9b01      	ldr	r3, [sp, #4]
 800478c:	4443      	add	r3, r8
 800478e:	771a      	strb	r2, [r3, #28]
 8004790:	4653      	mov	r3, sl
 8004792:	3b0c      	subs	r3, #12
 8004794:	5d5b      	ldrb	r3, [r3, r5]
 8004796:	9303      	str	r3, [sp, #12]
 8004798:	2b02      	cmp	r3, #2
 800479a:	d052      	beq.n	8004842 <interrupt_CH395+0x1be>
 800479c:	2b03      	cmp	r3, #3
 800479e:	d100      	bne.n	80047a2 <interrupt_CH395+0x11e>
 80047a0:	e0ea      	b.n	8004978 <interrupt_CH395+0x2f4>
 80047a2:	2b01      	cmp	r3, #1
 80047a4:	d100      	bne.n	80047a8 <interrupt_CH395+0x124>
 80047a6:	e084      	b.n	80048b2 <interrupt_CH395+0x22e>
 80047a8:	0038      	movs	r0, r7
 80047aa:	f7fe faa1 	bl	8002cf0 <CH395ClearRecvBuf>
 80047ae:	e7ae      	b.n	800470e <interrupt_CH395+0x8a>
 80047b0:	f7fe f944 	bl	8002a3c <CH395CMDGetPHYStatus>
 80047b4:	4b80      	ldr	r3, [pc, #512]	; (80049b8 <interrupt_CH395+0x334>)
 80047b6:	2801      	cmp	r0, #1
 80047b8:	d03e      	beq.n	8004838 <interrupt_CH395+0x1b4>
 80047ba:	2201      	movs	r2, #1
 80047bc:	701a      	strb	r2, [r3, #0]
 80047be:	2200      	movs	r2, #0
 80047c0:	4b7e      	ldr	r3, [pc, #504]	; (80049bc <interrupt_CH395+0x338>)
 80047c2:	701a      	strb	r2, [r3, #0]
 80047c4:	e771      	b.n	80046aa <interrupt_CH395+0x26>
 80047c6:	f7fe fb4b 	bl	8002e60 <CH395GetDHCPStatus>
 80047ca:	4b7d      	ldr	r3, [pc, #500]	; (80049c0 <interrupt_CH395+0x33c>)
 80047cc:	2800      	cmp	r0, #0
 80047ce:	d130      	bne.n	8004832 <interrupt_CH395+0x1ae>
 80047d0:	2201      	movs	r2, #1
 80047d2:	701a      	strb	r2, [r3, #0]
 80047d4:	781b      	ldrb	r3, [r3, #0]
 80047d6:	2b00      	cmp	r3, #0
 80047d8:	d100      	bne.n	80047dc <interrupt_CH395+0x158>
 80047da:	e763      	b.n	80046a4 <interrupt_CH395+0x20>
 80047dc:	a806      	add	r0, sp, #24
 80047de:	f7fe fb51 	bl	8002e84 <CH395GetIPInf>
 80047e2:	4b78      	ldr	r3, [pc, #480]	; (80049c4 <interrupt_CH395+0x340>)
 80047e4:	9a06      	ldr	r2, [sp, #24]
 80047e6:	601a      	str	r2, [r3, #0]
 80047e8:	9b08      	ldr	r3, [sp, #32]
 80047ea:	9301      	str	r3, [sp, #4]
 80047ec:	9a01      	ldr	r2, [sp, #4]
 80047ee:	4b76      	ldr	r3, [pc, #472]	; (80049c8 <interrupt_CH395+0x344>)
 80047f0:	601a      	str	r2, [r3, #0]
 80047f2:	9a07      	ldr	r2, [sp, #28]
 80047f4:	4b75      	ldr	r3, [pc, #468]	; (80049cc <interrupt_CH395+0x348>)
 80047f6:	601a      	str	r2, [r3, #0]
 80047f8:	e754      	b.n	80046a4 <interrupt_CH395+0x20>
 80047fa:	a806      	add	r0, sp, #24
 80047fc:	f7fe f976 	bl	8002aec <CH395CMDGetUnreachIPPT>
 8004800:	ab04      	add	r3, sp, #16
 8004802:	7adb      	ldrb	r3, [r3, #11]
 8004804:	aa04      	add	r2, sp, #16
 8004806:	7a96      	ldrb	r6, [r2, #10]
 8004808:	021b      	lsls	r3, r3, #8
 800480a:	431e      	orrs	r6, r3
 800480c:	239a      	movs	r3, #154	; 0x9a
 800480e:	4d70      	ldr	r5, [pc, #448]	; (80049d0 <interrupt_CH395+0x34c>)
 8004810:	00db      	lsls	r3, r3, #3
 8004812:	18ef      	adds	r7, r5, r3
 8004814:	e003      	b.n	800481e <interrupt_CH395+0x19a>
 8004816:	35b0      	adds	r5, #176	; 0xb0
 8004818:	42af      	cmp	r7, r5
 800481a:	d100      	bne.n	800481e <interrupt_CH395+0x19a>
 800481c:	e73f      	b.n	800469e <interrupt_CH395+0x1a>
 800481e:	0028      	movs	r0, r5
 8004820:	882b      	ldrh	r3, [r5, #0]
 8004822:	3846      	subs	r0, #70	; 0x46
 8004824:	42b3      	cmp	r3, r6
 8004826:	d1f6      	bne.n	8004816 <interrupt_CH395+0x192>
 8004828:	f7fe fdfa 	bl	8003420 <resetHTTPParseState>
 800482c:	e7f3      	b.n	8004816 <interrupt_CH395+0x192>
 800482e:	4b69      	ldr	r3, [pc, #420]	; (80049d4 <interrupt_CH395+0x350>)
 8004830:	e7a3      	b.n	800477a <interrupt_CH395+0xf6>
 8004832:	2200      	movs	r2, #0
 8004834:	701a      	strb	r2, [r3, #0]
 8004836:	e735      	b.n	80046a4 <interrupt_CH395+0x20>
 8004838:	2200      	movs	r2, #0
 800483a:	701a      	strb	r2, [r3, #0]
 800483c:	4b5f      	ldr	r3, [pc, #380]	; (80049bc <interrupt_CH395+0x338>)
 800483e:	7018      	strb	r0, [r3, #0]
 8004840:	e733      	b.n	80046aa <interrupt_CH395+0x26>
 8004842:	0030      	movs	r0, r6
 8004844:	f7fe fdec 	bl	8003420 <resetHTTPParseState>
 8004848:	23ad      	movs	r3, #173	; 0xad
 800484a:	4642      	mov	r2, r8
 800484c:	4651      	mov	r1, sl
 800484e:	4862      	ldr	r0, [pc, #392]	; (80049d8 <interrupt_CH395+0x354>)
 8004850:	54f7      	strb	r7, [r6, r3]
 8004852:	f7ff fe49 	bl	80044e8 <execute_command_string>
 8004856:	2800      	cmp	r0, #0
 8004858:	dba6      	blt.n	80047a8 <interrupt_CH395+0x124>
 800485a:	4b5f      	ldr	r3, [pc, #380]	; (80049d8 <interrupt_CH395+0x354>)
 800485c:	785b      	ldrb	r3, [r3, #1]
 800485e:	2b00      	cmp	r3, #0
 8004860:	d0a2      	beq.n	80047a8 <interrupt_CH395+0x124>
 8004862:	2301      	movs	r3, #1
 8004864:	4698      	mov	r8, r3
 8004866:	4642      	mov	r2, r8
 8004868:	33ab      	adds	r3, #171	; 0xab
 800486a:	54f2      	strb	r2, [r6, r3]
 800486c:	4b5a      	ldr	r3, [pc, #360]	; (80049d8 <interrupt_CH395+0x354>)
 800486e:	495b      	ldr	r1, [pc, #364]	; (80049dc <interrupt_CH395+0x358>)
 8004870:	785a      	ldrb	r2, [r3, #1]
 8004872:	23a0      	movs	r3, #160	; 0xa0
 8004874:	b2d2      	uxtb	r2, r2
 8004876:	58f0      	ldr	r0, [r6, r3]
 8004878:	f000 fdb4 	bl	80053e4 <strncpy>
 800487c:	4b56      	ldr	r3, [pc, #344]	; (80049d8 <interrupt_CH395+0x354>)
 800487e:	9901      	ldr	r1, [sp, #4]
 8004880:	785a      	ldrb	r2, [r3, #1]
 8004882:	239e      	movs	r3, #158	; 0x9e
 8004884:	52f2      	strh	r2, [r6, r3]
 8004886:	2200      	movs	r2, #0
 8004888:	3306      	adds	r3, #6
 800488a:	52f2      	strh	r2, [r6, r3]
 800488c:	4642      	mov	r2, r8
 800488e:	3b08      	subs	r3, #8
 8004890:	54f2      	strb	r2, [r6, r3]
 8004892:	4643      	mov	r3, r8
 8004894:	40ab      	lsls	r3, r5
 8004896:	7e4a      	ldrb	r2, [r1, #25]
 8004898:	4313      	orrs	r3, r2
 800489a:	b2db      	uxtb	r3, r3
 800489c:	764b      	strb	r3, [r1, #25]
 800489e:	7e8b      	ldrb	r3, [r1, #26]
 80048a0:	b25b      	sxtb	r3, r3
 80048a2:	2b00      	cmp	r3, #0
 80048a4:	da01      	bge.n	80048aa <interrupt_CH395+0x226>
 80048a6:	b26b      	sxtb	r3, r5
 80048a8:	768b      	strb	r3, [r1, #26]
 80048aa:	2300      	movs	r3, #0
 80048ac:	4a4a      	ldr	r2, [pc, #296]	; (80049d8 <interrupt_CH395+0x354>)
 80048ae:	7053      	strb	r3, [r2, #1]
 80048b0:	e77a      	b.n	80047a8 <interrupt_CH395+0x124>
 80048b2:	0030      	movs	r0, r6
 80048b4:	f7fe fdb4 	bl	8003420 <resetHTTPParseState>
 80048b8:	23ad      	movs	r3, #173	; 0xad
 80048ba:	54f7      	strb	r7, [r6, r3]
 80048bc:	9b02      	ldr	r3, [sp, #8]
 80048be:	2b08      	cmp	r3, #8
 80048c0:	d800      	bhi.n	80048c4 <interrupt_CH395+0x240>
 80048c2:	e771      	b.n	80047a8 <interrupt_CH395+0x124>
 80048c4:	9b01      	ldr	r3, [sp, #4]
 80048c6:	a805      	add	r0, sp, #20
 80048c8:	8b9a      	ldrh	r2, [r3, #28]
 80048ca:	8bdb      	ldrh	r3, [r3, #30]
 80048cc:	4690      	mov	r8, r2
 80048ce:	9302      	str	r3, [sp, #8]
 80048d0:	4653      	mov	r3, sl
 80048d2:	2204      	movs	r2, #4
 80048d4:	1d19      	adds	r1, r3, #4
 80048d6:	f000 fd29 	bl	800532c <memcpy>
 80048da:	4643      	mov	r3, r8
 80048dc:	3b08      	subs	r3, #8
 80048de:	2b27      	cmp	r3, #39	; 0x27
 80048e0:	d800      	bhi.n	80048e4 <interrupt_CH395+0x260>
 80048e2:	e761      	b.n	80047a8 <interrupt_CH395+0x124>
 80048e4:	2228      	movs	r2, #40	; 0x28
 80048e6:	493e      	ldr	r1, [pc, #248]	; (80049e0 <interrupt_CH395+0x35c>)
 80048e8:	483e      	ldr	r0, [pc, #248]	; (80049e4 <interrupt_CH395+0x360>)
 80048ea:	f000 fd6a 	bl	80053c2 <strncmp>
 80048ee:	4680      	mov	r8, r0
 80048f0:	1e03      	subs	r3, r0, #0
 80048f2:	d000      	beq.n	80048f6 <interrupt_CH395+0x272>
 80048f4:	e758      	b.n	80047a8 <interrupt_CH395+0x124>
 80048f6:	226c      	movs	r2, #108	; 0x6c
 80048f8:	9803      	ldr	r0, [sp, #12]
 80048fa:	33ac      	adds	r3, #172	; 0xac
 80048fc:	54f0      	strb	r0, [r6, r3]
 80048fe:	4b3a      	ldr	r3, [pc, #232]	; (80049e8 <interrupt_CH395+0x364>)
 8004900:	a806      	add	r0, sp, #24
 8004902:	9306      	str	r3, [sp, #24]
 8004904:	4b31      	ldr	r3, [pc, #196]	; (80049cc <interrupt_CH395+0x348>)
 8004906:	4939      	ldr	r1, [pc, #228]	; (80049ec <interrupt_CH395+0x368>)
 8004908:	6043      	str	r3, [r0, #4]
 800490a:	4b2f      	ldr	r3, [pc, #188]	; (80049c8 <interrupt_CH395+0x344>)
 800490c:	6083      	str	r3, [r0, #8]
 800490e:	5a8a      	ldrh	r2, [r1, r2]
 8004910:	6183      	str	r3, [r0, #24]
 8004912:	9b03      	ldr	r3, [sp, #12]
 8004914:	8182      	strh	r2, [r0, #12]
 8004916:	7703      	strb	r3, [r0, #28]
 8004918:	23e1      	movs	r3, #225	; 0xe1
 800491a:	025b      	lsls	r3, r3, #9
 800491c:	8282      	strh	r2, [r0, #20]
 800491e:	6203      	str	r3, [r0, #32]
 8004920:	2203      	movs	r2, #3
 8004922:	2324      	movs	r3, #36	; 0x24
 8004924:	4927      	ldr	r1, [pc, #156]	; (80049c4 <interrupt_CH395+0x340>)
 8004926:	54c2      	strb	r2, [r0, r3]
 8004928:	337c      	adds	r3, #124	; 0x7c
 800492a:	6101      	str	r1, [r0, #16]
 800492c:	58f1      	ldr	r1, [r6, r3]
 800492e:	f7fd ffb7 	bl	80028a0 <prepare_USR_response_msg>
 8004932:	239e      	movs	r3, #158	; 0x9e
 8004934:	4642      	mov	r2, r8
 8004936:	52f0      	strh	r0, [r6, r3]
 8004938:	9803      	ldr	r0, [sp, #12]
 800493a:	3306      	adds	r3, #6
 800493c:	52f2      	strh	r2, [r6, r3]
 800493e:	3b08      	subs	r3, #8
 8004940:	54f0      	strb	r0, [r6, r3]
 8004942:	0003      	movs	r3, r0
 8004944:	40ab      	lsls	r3, r5
 8004946:	9901      	ldr	r1, [sp, #4]
 8004948:	b25b      	sxtb	r3, r3
 800494a:	7e4a      	ldrb	r2, [r1, #25]
 800494c:	431a      	orrs	r2, r3
 800494e:	b2d2      	uxtb	r2, r2
 8004950:	764a      	strb	r2, [r1, #25]
 8004952:	7e0a      	ldrb	r2, [r1, #24]
 8004954:	4313      	orrs	r3, r2
 8004956:	b2db      	uxtb	r3, r3
 8004958:	760b      	strb	r3, [r1, #24]
 800495a:	7e8b      	ldrb	r3, [r1, #26]
 800495c:	b25b      	sxtb	r3, r3
 800495e:	2b00      	cmp	r3, #0
 8004960:	da01      	bge.n	8004966 <interrupt_CH395+0x2e2>
 8004962:	b26b      	sxtb	r3, r5
 8004964:	768b      	strb	r3, [r1, #26]
 8004966:	0038      	movs	r0, r7
 8004968:	a905      	add	r1, sp, #20
 800496a:	f7fe f8d5 	bl	8002b18 <CH395SetSocketDesIP>
 800496e:	0038      	movs	r0, r7
 8004970:	9902      	ldr	r1, [sp, #8]
 8004972:	f7fe f905 	bl	8002b80 <CH395SetSocketDesPort>
 8004976:	e717      	b.n	80047a8 <interrupt_CH395+0x124>
 8004978:	0030      	movs	r0, r6
 800497a:	f7fe fd51 	bl	8003420 <resetHTTPParseState>
 800497e:	23ad      	movs	r3, #173	; 0xad
 8004980:	4651      	mov	r1, sl
 8004982:	0030      	movs	r0, r6
 8004984:	54f7      	strb	r7, [r6, r3]
 8004986:	f7fe fe89 	bl	800369c <parse_http>
 800498a:	2800      	cmp	r0, #0
 800498c:	d100      	bne.n	8004990 <interrupt_CH395+0x30c>
 800498e:	e70b      	b.n	80047a8 <interrupt_CH395+0x124>
 8004990:	2301      	movs	r3, #1
 8004992:	40ab      	lsls	r3, r5
 8004994:	9901      	ldr	r1, [sp, #4]
 8004996:	7e4a      	ldrb	r2, [r1, #25]
 8004998:	4313      	orrs	r3, r2
 800499a:	b2db      	uxtb	r3, r3
 800499c:	764b      	strb	r3, [r1, #25]
 800499e:	7e8b      	ldrb	r3, [r1, #26]
 80049a0:	b25b      	sxtb	r3, r3
 80049a2:	2b00      	cmp	r3, #0
 80049a4:	db00      	blt.n	80049a8 <interrupt_CH395+0x324>
 80049a6:	e6ff      	b.n	80047a8 <interrupt_CH395+0x124>
 80049a8:	b26b      	sxtb	r3, r5
 80049aa:	768b      	strb	r3, [r1, #26]
 80049ac:	e6fc      	b.n	80047a8 <interrupt_CH395+0x124>
 80049ae:	46c0      	nop			; (mov r8, r8)
 80049b0:	20000778 	.word	0x20000778
 80049b4:	20000018 	.word	0x20000018
 80049b8:	20000d77 	.word	0x20000d77
 80049bc:	20000d79 	.word	0x20000d79
 80049c0:	20000d76 	.word	0x20000d76
 80049c4:	20000d68 	.word	0x20000d68
 80049c8:	20000d6c 	.word	0x20000d6c
 80049cc:	20000698 	.word	0x20000698
 80049d0:	2000086e 	.word	0x2000086e
 80049d4:	000005ff 	.word	0x000005ff
 80049d8:	200010a4 	.word	0x200010a4
 80049dc:	200010a6 	.word	0x200010a6
 80049e0:	08005588 	.word	0x08005588
 80049e4:	2000003c 	.word	0x2000003c
 80049e8:	20000d70 	.word	0x20000d70
 80049ec:	20000d94 	.word	0x20000d94

080049f0 <switch_Antenna>:
 80049f0:	b5f0      	push	{r4, r5, r6, r7, lr}
 80049f2:	46de      	mov	lr, fp
 80049f4:	4657      	mov	r7, sl
 80049f6:	464e      	mov	r6, r9
 80049f8:	4645      	mov	r5, r8
 80049fa:	b5e0      	push	{r5, r6, r7, lr}
 80049fc:	b083      	sub	sp, #12
 80049fe:	9001      	str	r0, [sp, #4]
 8004a00:	1c0b      	adds	r3, r1, #0
 8004a02:	2902      	cmp	r1, #2
 8004a04:	d900      	bls.n	8004a08 <switch_Antenna+0x18>
 8004a06:	2302      	movs	r3, #2
 8004a08:	b2db      	uxtb	r3, r3
 8004a0a:	9300      	str	r3, [sp, #0]
 8004a0c:	2900      	cmp	r1, #0
 8004a0e:	d037      	beq.n	8004a80 <switch_Antenna+0x90>
 8004a10:	4b20      	ldr	r3, [pc, #128]	; (8004a94 <switch_Antenna+0xa4>)
 8004a12:	469b      	mov	fp, r3
 8004a14:	469a      	mov	sl, r3
 8004a16:	2300      	movs	r3, #0
 8004a18:	4698      	mov	r8, r3
 8004a1a:	3301      	adds	r3, #1
 8004a1c:	4699      	mov	r9, r3
 8004a1e:	9b01      	ldr	r3, [sp, #4]
 8004a20:	2b00      	cmp	r3, #0
 8004a22:	d034      	beq.n	8004a8e <switch_Antenna+0x9e>
 8004a24:	4642      	mov	r2, r8
 8004a26:	5c9f      	ldrb	r7, [r3, r2]
 8004a28:	4643      	mov	r3, r8
 8004a2a:	00de      	lsls	r6, r3, #3
 8004a2c:	1af3      	subs	r3, r6, r3
 8004a2e:	009b      	lsls	r3, r3, #2
 8004a30:	445b      	add	r3, fp
 8004a32:	761f      	strb	r7, [r3, #24]
 8004a34:	43ff      	mvns	r7, r7
 8004a36:	4655      	mov	r5, sl
 8004a38:	2400      	movs	r4, #0
 8004a3a:	b2ff      	uxtb	r7, r7
 8004a3c:	003a      	movs	r2, r7
 8004a3e:	464b      	mov	r3, r9
 8004a40:	4122      	asrs	r2, r4
 8004a42:	88a9      	ldrh	r1, [r5, #4]
 8004a44:	6828      	ldr	r0, [r5, #0]
 8004a46:	401a      	ands	r2, r3
 8004a48:	3401      	adds	r4, #1
 8004a4a:	f7fc f8b5 	bl	8000bb8 <HAL_GPIO_WritePin>
 8004a4e:	3508      	adds	r5, #8
 8004a50:	2c03      	cmp	r4, #3
 8004a52:	d1f3      	bne.n	8004a3c <switch_Antenna+0x4c>
 8004a54:	4642      	mov	r2, r8
 8004a56:	1ab6      	subs	r6, r6, r2
 8004a58:	00b6      	lsls	r6, r6, #2
 8004a5a:	4b0f      	ldr	r3, [pc, #60]	; (8004a98 <switch_Antenna+0xa8>)
 8004a5c:	445e      	add	r6, fp
 8004a5e:	7e32      	ldrb	r2, [r6, #24]
 8004a60:	4443      	add	r3, r8
 8004a62:	721a      	strb	r2, [r3, #8]
 8004a64:	464a      	mov	r2, r9
 8004a66:	4b0d      	ldr	r3, [pc, #52]	; (8004a9c <switch_Antenna+0xac>)
 8004a68:	701a      	strb	r2, [r3, #0]
 8004a6a:	2301      	movs	r3, #1
 8004a6c:	469c      	mov	ip, r3
 8004a6e:	331b      	adds	r3, #27
 8004a70:	44e0      	add	r8, ip
 8004a72:	469c      	mov	ip, r3
 8004a74:	4643      	mov	r3, r8
 8004a76:	9a00      	ldr	r2, [sp, #0]
 8004a78:	b2db      	uxtb	r3, r3
 8004a7a:	44e2      	add	sl, ip
 8004a7c:	429a      	cmp	r2, r3
 8004a7e:	d8ce      	bhi.n	8004a1e <switch_Antenna+0x2e>
 8004a80:	b003      	add	sp, #12
 8004a82:	bcf0      	pop	{r4, r5, r6, r7}
 8004a84:	46bb      	mov	fp, r7
 8004a86:	46b2      	mov	sl, r6
 8004a88:	46a9      	mov	r9, r5
 8004a8a:	46a0      	mov	r8, r4
 8004a8c:	bdf0      	pop	{r4, r5, r6, r7, pc}
 8004a8e:	4653      	mov	r3, sl
 8004a90:	7e1f      	ldrb	r7, [r3, #24]
 8004a92:	e7c9      	b.n	8004a28 <switch_Antenna+0x38>
 8004a94:	20001114 	.word	0x20001114
 8004a98:	20000d94 	.word	0x20000d94
 8004a9c:	200006c4 	.word	0x200006c4

08004aa0 <get_Antenna_real_BCDs>:
 8004aa0:	b5f0      	push	{r4, r5, r6, r7, lr}
 8004aa2:	464f      	mov	r7, r9
 8004aa4:	46d6      	mov	lr, sl
 8004aa6:	4646      	mov	r6, r8
 8004aa8:	4681      	mov	r9, r0
 8004aaa:	b5c0      	push	{r6, r7, lr}
 8004aac:	1c0b      	adds	r3, r1, #0
 8004aae:	2902      	cmp	r1, #2
 8004ab0:	d900      	bls.n	8004ab4 <get_Antenna_real_BCDs+0x14>
 8004ab2:	2302      	movs	r3, #2
 8004ab4:	b2db      	uxtb	r3, r3
 8004ab6:	4698      	mov	r8, r3
 8004ab8:	2900      	cmp	r1, #0
 8004aba:	d01b      	beq.n	8004af4 <get_Antenna_real_BCDs+0x54>
 8004abc:	4b10      	ldr	r3, [pc, #64]	; (8004b00 <get_Antenna_real_BCDs+0x60>)
 8004abe:	2600      	movs	r6, #0
 8004ac0:	469a      	mov	sl, r3
 8004ac2:	4655      	mov	r5, sl
 8004ac4:	2400      	movs	r4, #0
 8004ac6:	2700      	movs	r7, #0
 8004ac8:	88a9      	ldrh	r1, [r5, #4]
 8004aca:	6828      	ldr	r0, [r5, #0]
 8004acc:	f7fc f86e 	bl	8000bac <HAL_GPIO_ReadPin>
 8004ad0:	4243      	negs	r3, r0
 8004ad2:	4158      	adcs	r0, r3
 8004ad4:	40a0      	lsls	r0, r4
 8004ad6:	3401      	adds	r4, #1
 8004ad8:	4307      	orrs	r7, r0
 8004ada:	b2ff      	uxtb	r7, r7
 8004adc:	3508      	adds	r5, #8
 8004ade:	2c03      	cmp	r4, #3
 8004ae0:	d1f2      	bne.n	8004ac8 <get_Antenna_real_BCDs+0x28>
 8004ae2:	464b      	mov	r3, r9
 8004ae4:	559f      	strb	r7, [r3, r6]
 8004ae6:	231c      	movs	r3, #28
 8004ae8:	469c      	mov	ip, r3
 8004aea:	3601      	adds	r6, #1
 8004aec:	b2f3      	uxtb	r3, r6
 8004aee:	44e2      	add	sl, ip
 8004af0:	4598      	cmp	r8, r3
 8004af2:	d8e6      	bhi.n	8004ac2 <get_Antenna_real_BCDs+0x22>
 8004af4:	bce0      	pop	{r5, r6, r7}
 8004af6:	46ba      	mov	sl, r7
 8004af8:	46b1      	mov	r9, r6
 8004afa:	46a8      	mov	r8, r5
 8004afc:	bdf0      	pop	{r4, r5, r6, r7, pc}
 8004afe:	46c0      	nop			; (mov r8, r8)
 8004b00:	2000123c 	.word	0x2000123c

08004b04 <display_IP>:
 8004b04:	b510      	push	{r4, lr}
 8004b06:	2800      	cmp	r0, #0
 8004b08:	d002      	beq.n	8004b10 <display_IP+0xc>
 8004b0a:	f7ff fd09 	bl	8004520 <display_IP.part.0>
 8004b0e:	bd10      	pop	{r4, pc}
 8004b10:	4805      	ldr	r0, [pc, #20]	; (8004b28 <display_IP+0x24>)
 8004b12:	f7fd f8c5 	bl	8001ca0 <HAL_TIM_Base_Stop_IT>
 8004b16:	22ff      	movs	r2, #255	; 0xff
 8004b18:	4b04      	ldr	r3, [pc, #16]	; (8004b2c <display_IP+0x28>)
 8004b1a:	2102      	movs	r1, #2
 8004b1c:	2000      	movs	r0, #0
 8004b1e:	701a      	strb	r2, [r3, #0]
 8004b20:	f7ff ff66 	bl	80049f0 <switch_Antenna>
 8004b24:	e7f3      	b.n	8004b0e <display_IP+0xa>
 8004b26:	46c0      	nop			; (mov r8, r8)
 8004b28:	20001190 	.word	0x20001190
 8004b2c:	2000069c 	.word	0x2000069c

08004b30 <main>:
 8004b30:	b5f0      	push	{r4, r5, r6, r7, lr}
 8004b32:	46de      	mov	lr, fp
 8004b34:	4657      	mov	r7, sl
 8004b36:	464e      	mov	r6, r9
 8004b38:	4645      	mov	r5, r8
 8004b3a:	4bda      	ldr	r3, [pc, #872]	; (8004ea4 <main+0x374>)
 8004b3c:	b5e0      	push	{r5, r6, r7, lr}
 8004b3e:	0018      	movs	r0, r3
 8004b40:	4ad9      	ldr	r2, [pc, #868]	; (8004ea8 <main+0x378>)
 8004b42:	2500      	movs	r5, #0
 8004b44:	ca12      	ldmia	r2!, {r1, r4}
 8004b46:	c012      	stmia	r0!, {r1, r4}
 8004b48:	0001      	movs	r1, r0
 8004b4a:	4ad8      	ldr	r2, [pc, #864]	; (8004eac <main+0x37c>)
 8004b4c:	b08b      	sub	sp, #44	; 0x2c
 8004b4e:	ca11      	ldmia	r2!, {r0, r4}
 8004b50:	c111      	stmia	r1!, {r0, r4}
 8004b52:	4ad7      	ldr	r2, [pc, #860]	; (8004eb0 <main+0x380>)
 8004b54:	4ed7      	ldr	r6, [pc, #860]	; (8004eb4 <main+0x384>)
 8004b56:	ca11      	ldmia	r2!, {r0, r4}
 8004b58:	c111      	stmia	r1!, {r0, r4}
 8004b5a:	001a      	movs	r2, r3
 8004b5c:	49d6      	ldr	r1, [pc, #856]	; (8004eb8 <main+0x388>)
 8004b5e:	761d      	strb	r5, [r3, #24]
 8004b60:	321c      	adds	r2, #28
 8004b62:	c911      	ldmia	r1!, {r0, r4}
 8004b64:	c211      	stmia	r2!, {r0, r4}
 8004b66:	001a      	movs	r2, r3
 8004b68:	49d4      	ldr	r1, [pc, #848]	; (8004ebc <main+0x38c>)
 8004b6a:	3224      	adds	r2, #36	; 0x24
 8004b6c:	c911      	ldmia	r1!, {r0, r4}
 8004b6e:	c211      	stmia	r2!, {r0, r4}
 8004b70:	001a      	movs	r2, r3
 8004b72:	49d3      	ldr	r1, [pc, #844]	; (8004ec0 <main+0x390>)
 8004b74:	322c      	adds	r2, #44	; 0x2c
 8004b76:	c911      	ldmia	r1!, {r0, r4}
 8004b78:	c211      	stmia	r2!, {r0, r4}
 8004b7a:	4fd2      	ldr	r7, [pc, #840]	; (8004ec4 <main+0x394>)
 8004b7c:	2134      	movs	r1, #52	; 0x34
 8004b7e:	0038      	movs	r0, r7
 8004b80:	545d      	strb	r5, [r3, r1]
 8004b82:	4bd1      	ldr	r3, [pc, #836]	; (8004ec8 <main+0x398>)
 8004b84:	cb14      	ldmia	r3!, {r2, r4}
 8004b86:	c014      	stmia	r0!, {r2, r4}
 8004b88:	0002      	movs	r2, r0
 8004b8a:	4bd0      	ldr	r3, [pc, #832]	; (8004ecc <main+0x39c>)
 8004b8c:	cb11      	ldmia	r3!, {r0, r4}
 8004b8e:	c211      	stmia	r2!, {r0, r4}
 8004b90:	4bcf      	ldr	r3, [pc, #828]	; (8004ed0 <main+0x3a0>)
 8004b92:	cb11      	ldmia	r3!, {r0, r4}
 8004b94:	c211      	stmia	r2!, {r0, r4}
 8004b96:	003b      	movs	r3, r7
 8004b98:	4ace      	ldr	r2, [pc, #824]	; (8004ed4 <main+0x3a4>)
 8004b9a:	763d      	strb	r5, [r7, #24]
 8004b9c:	331c      	adds	r3, #28
 8004b9e:	ca11      	ldmia	r2!, {r0, r4}
 8004ba0:	c311      	stmia	r3!, {r0, r4}
 8004ba2:	003b      	movs	r3, r7
 8004ba4:	4acc      	ldr	r2, [pc, #816]	; (8004ed8 <main+0x3a8>)
 8004ba6:	3324      	adds	r3, #36	; 0x24
 8004ba8:	ca11      	ldmia	r2!, {r0, r4}
 8004baa:	c311      	stmia	r3!, {r0, r4}
 8004bac:	003b      	movs	r3, r7
 8004bae:	4acb      	ldr	r2, [pc, #812]	; (8004edc <main+0x3ac>)
 8004bb0:	332c      	adds	r3, #44	; 0x2c
 8004bb2:	ca11      	ldmia	r2!, {r0, r4}
 8004bb4:	c311      	stmia	r3!, {r0, r4}
 8004bb6:	ac05      	add	r4, sp, #20
 8004bb8:	547d      	strb	r5, [r7, r1]
 8004bba:	f7fb fc35 	bl	8000428 <HAL_Init>
 8004bbe:	f7ff fcdf 	bl	8004580 <SystemClock_Config>
 8004bc2:	2214      	movs	r2, #20
 8004bc4:	2100      	movs	r1, #0
 8004bc6:	0020      	movs	r0, r4
 8004bc8:	f000 fbb9 	bl	800533e <memset>
 8004bcc:	2180      	movs	r1, #128	; 0x80
 8004bce:	6972      	ldr	r2, [r6, #20]
 8004bd0:	03c9      	lsls	r1, r1, #15
 8004bd2:	430a      	orrs	r2, r1
 8004bd4:	6172      	str	r2, [r6, #20]
 8004bd6:	6973      	ldr	r3, [r6, #20]
 8004bd8:	2090      	movs	r0, #144	; 0x90
 8004bda:	400b      	ands	r3, r1
 8004bdc:	2180      	movs	r1, #128	; 0x80
 8004bde:	9302      	str	r3, [sp, #8]
 8004be0:	9b02      	ldr	r3, [sp, #8]
 8004be2:	6972      	ldr	r2, [r6, #20]
 8004be4:	0289      	lsls	r1, r1, #10
 8004be6:	430a      	orrs	r2, r1
 8004be8:	6172      	str	r2, [r6, #20]
 8004bea:	6973      	ldr	r3, [r6, #20]
 8004bec:	05c0      	lsls	r0, r0, #23
 8004bee:	400b      	ands	r3, r1
 8004bf0:	2180      	movs	r1, #128	; 0x80
 8004bf2:	9303      	str	r3, [sp, #12]
 8004bf4:	9b03      	ldr	r3, [sp, #12]
 8004bf6:	6972      	ldr	r2, [r6, #20]
 8004bf8:	02c9      	lsls	r1, r1, #11
 8004bfa:	430a      	orrs	r2, r1
 8004bfc:	6172      	str	r2, [r6, #20]
 8004bfe:	6973      	ldr	r3, [r6, #20]
 8004c00:	2201      	movs	r2, #1
 8004c02:	400b      	ands	r3, r1
 8004c04:	9304      	str	r3, [sp, #16]
 8004c06:	9b04      	ldr	r3, [sp, #16]
 8004c08:	4bb5      	ldr	r3, [pc, #724]	; (8004ee0 <main+0x3b0>)
 8004c0a:	0019      	movs	r1, r3
 8004c0c:	469a      	mov	sl, r3
 8004c0e:	f7fb ffd3 	bl	8000bb8 <HAL_GPIO_WritePin>
 8004c12:	4bb4      	ldr	r3, [pc, #720]	; (8004ee4 <main+0x3b4>)
 8004c14:	2201      	movs	r2, #1
 8004c16:	0019      	movs	r1, r3
 8004c18:	48b3      	ldr	r0, [pc, #716]	; (8004ee8 <main+0x3b8>)
 8004c1a:	469b      	mov	fp, r3
 8004c1c:	f7fb ffcc 	bl	8000bb8 <HAL_GPIO_WritePin>
 8004c20:	2303      	movs	r3, #3
 8004c22:	0021      	movs	r1, r4
 8004c24:	48b1      	ldr	r0, [pc, #708]	; (8004eec <main+0x3bc>)
 8004c26:	9305      	str	r3, [sp, #20]
 8004c28:	6065      	str	r5, [r4, #4]
 8004c2a:	60a5      	str	r5, [r4, #8]
 8004c2c:	f7fb feca 	bl	80009c4 <HAL_GPIO_Init>
 8004c30:	2302      	movs	r3, #2
 8004c32:	4699      	mov	r9, r3
 8004c34:	9305      	str	r3, [sp, #20]
 8004c36:	2384      	movs	r3, #132	; 0x84
 8004c38:	2090      	movs	r0, #144	; 0x90
 8004c3a:	039b      	lsls	r3, r3, #14
 8004c3c:	6063      	str	r3, [r4, #4]
 8004c3e:	2301      	movs	r3, #1
 8004c40:	0021      	movs	r1, r4
 8004c42:	05c0      	lsls	r0, r0, #23
 8004c44:	4698      	mov	r8, r3
 8004c46:	60a3      	str	r3, [r4, #8]
 8004c48:	f7fb febc 	bl	80009c4 <HAL_GPIO_Init>
 8004c4c:	4653      	mov	r3, sl
 8004c4e:	9305      	str	r3, [sp, #20]
 8004c50:	2311      	movs	r3, #17
 8004c52:	2090      	movs	r0, #144	; 0x90
 8004c54:	469a      	mov	sl, r3
 8004c56:	6063      	str	r3, [r4, #4]
 8004c58:	4643      	mov	r3, r8
 8004c5a:	0021      	movs	r1, r4
 8004c5c:	05c0      	lsls	r0, r0, #23
 8004c5e:	60a3      	str	r3, [r4, #8]
 8004c60:	60e5      	str	r5, [r4, #12]
 8004c62:	f7fb feaf 	bl	80009c4 <HAL_GPIO_Init>
 8004c66:	465b      	mov	r3, fp
 8004c68:	9305      	str	r3, [sp, #20]
 8004c6a:	4653      	mov	r3, sl
 8004c6c:	6063      	str	r3, [r4, #4]
 8004c6e:	4643      	mov	r3, r8
 8004c70:	0021      	movs	r1, r4
 8004c72:	489d      	ldr	r0, [pc, #628]	; (8004ee8 <main+0x3b8>)
 8004c74:	60a3      	str	r3, [r4, #8]
 8004c76:	60e5      	str	r5, [r4, #12]
 8004c78:	f7fb fea4 	bl	80009c4 <HAL_GPIO_Init>
 8004c7c:	2380      	movs	r3, #128	; 0x80
 8004c7e:	021b      	lsls	r3, r3, #8
 8004c80:	9305      	str	r3, [sp, #20]
 8004c82:	4643      	mov	r3, r8
 8004c84:	0021      	movs	r1, r4
 8004c86:	4898      	ldr	r0, [pc, #608]	; (8004ee8 <main+0x3b8>)
 8004c88:	60a3      	str	r3, [r4, #8]
 8004c8a:	6065      	str	r5, [r4, #4]
 8004c8c:	f7fb fe9a 	bl	80009c4 <HAL_GPIO_Init>
 8004c90:	23c0      	movs	r3, #192	; 0xc0
 8004c92:	2090      	movs	r0, #144	; 0x90
 8004c94:	009b      	lsls	r3, r3, #2
 8004c96:	9305      	str	r3, [sp, #20]
 8004c98:	4643      	mov	r3, r8
 8004c9a:	0021      	movs	r1, r4
 8004c9c:	05c0      	lsls	r0, r0, #23
 8004c9e:	60a3      	str	r3, [r4, #8]
 8004ca0:	6065      	str	r5, [r4, #4]
 8004ca2:	f7fb fe8f 	bl	80009c4 <HAL_GPIO_Init>
 8004ca6:	4892      	ldr	r0, [pc, #584]	; (8004ef0 <main+0x3c0>)
 8004ca8:	4b92      	ldr	r3, [pc, #584]	; (8004ef4 <main+0x3c4>)
 8004caa:	6085      	str	r5, [r0, #8]
 8004cac:	6003      	str	r3, [r0, #0]
 8004cae:	2382      	movs	r3, #130	; 0x82
 8004cb0:	005b      	lsls	r3, r3, #1
 8004cb2:	6043      	str	r3, [r0, #4]
 8004cb4:	23e0      	movs	r3, #224	; 0xe0
 8004cb6:	00db      	lsls	r3, r3, #3
 8004cb8:	60c3      	str	r3, [r0, #12]
 8004cba:	464b      	mov	r3, r9
 8004cbc:	6103      	str	r3, [r0, #16]
 8004cbe:	4643      	mov	r3, r8
 8004cc0:	6143      	str	r3, [r0, #20]
 8004cc2:	2380      	movs	r3, #128	; 0x80
 8004cc4:	009b      	lsls	r3, r3, #2
 8004cc6:	6183      	str	r3, [r0, #24]
 8004cc8:	3bfa      	subs	r3, #250	; 0xfa
 8004cca:	3bff      	subs	r3, #255	; 0xff
 8004ccc:	62c3      	str	r3, [r0, #44]	; 0x2c
 8004cce:	61c5      	str	r5, [r0, #28]
 8004cd0:	6205      	str	r5, [r0, #32]
 8004cd2:	6245      	str	r5, [r0, #36]	; 0x24
 8004cd4:	6285      	str	r5, [r0, #40]	; 0x28
 8004cd6:	6305      	str	r5, [r0, #48]	; 0x30
 8004cd8:	6345      	str	r5, [r0, #52]	; 0x34
 8004cda:	f7fc fc49 	bl	8001570 <HAL_SPI_Init>
 8004cde:	4886      	ldr	r0, [pc, #536]	; (8004ef8 <main+0x3c8>)
 8004ce0:	4b86      	ldr	r3, [pc, #536]	; (8004efc <main+0x3cc>)
 8004ce2:	6085      	str	r5, [r0, #8]
 8004ce4:	6003      	str	r3, [r0, #0]
 8004ce6:	2396      	movs	r3, #150	; 0x96
 8004ce8:	019b      	lsls	r3, r3, #6
 8004cea:	6043      	str	r3, [r0, #4]
 8004cec:	230c      	movs	r3, #12
 8004cee:	60c5      	str	r5, [r0, #12]
 8004cf0:	6143      	str	r3, [r0, #20]
 8004cf2:	6105      	str	r5, [r0, #16]
 8004cf4:	6185      	str	r5, [r0, #24]
 8004cf6:	61c5      	str	r5, [r0, #28]
 8004cf8:	6205      	str	r5, [r0, #32]
 8004cfa:	6245      	str	r5, [r0, #36]	; 0x24
 8004cfc:	f7fd fd18 	bl	8002730 <HAL_UART_Init>
 8004d00:	4642      	mov	r2, r8
 8004d02:	6973      	ldr	r3, [r6, #20]
 8004d04:	2100      	movs	r1, #0
 8004d06:	4313      	orrs	r3, r2
 8004d08:	6173      	str	r3, [r6, #20]
 8004d0a:	6973      	ldr	r3, [r6, #20]
 8004d0c:	200b      	movs	r0, #11
 8004d0e:	4013      	ands	r3, r2
 8004d10:	9301      	str	r3, [sp, #4]
 8004d12:	2200      	movs	r2, #0
 8004d14:	9b01      	ldr	r3, [sp, #4]
 8004d16:	f7fb fbbb 	bl	8000490 <HAL_NVIC_SetPriority>
 8004d1a:	200b      	movs	r0, #11
 8004d1c:	f7fb fbea 	bl	80004f4 <HAL_NVIC_EnableIRQ>
 8004d20:	4b77      	ldr	r3, [pc, #476]	; (8004f00 <main+0x3d0>)
 8004d22:	469a      	mov	sl, r3
 8004d24:	4652      	mov	r2, sl
 8004d26:	4b77      	ldr	r3, [pc, #476]	; (8004f04 <main+0x3d4>)
 8004d28:	4650      	mov	r0, sl
 8004d2a:	6013      	str	r3, [r2, #0]
 8004d2c:	2305      	movs	r3, #5
 8004d2e:	6053      	str	r3, [r2, #4]
 8004d30:	2380      	movs	r3, #128	; 0x80
 8004d32:	00db      	lsls	r3, r3, #3
 8004d34:	60d3      	str	r3, [r2, #12]
 8004d36:	6093      	str	r3, [r2, #8]
 8004d38:	f7fb ff44 	bl	8000bc4 <HAL_IWDG_Init>
 8004d3c:	4872      	ldr	r0, [pc, #456]	; (8004f08 <main+0x3d8>)
 8004d3e:	4b73      	ldr	r3, [pc, #460]	; (8004f0c <main+0x3dc>)
 8004d40:	6085      	str	r5, [r0, #8]
 8004d42:	6003      	str	r3, [r0, #0]
 8004d44:	23fa      	movs	r3, #250	; 0xfa
 8004d46:	019b      	lsls	r3, r3, #6
 8004d48:	6043      	str	r3, [r0, #4]
 8004d4a:	23fa      	movs	r3, #250	; 0xfa
 8004d4c:	005b      	lsls	r3, r3, #1
 8004d4e:	60c3      	str	r3, [r0, #12]
 8004d50:	3b75      	subs	r3, #117	; 0x75
 8004d52:	3bff      	subs	r3, #255	; 0xff
 8004d54:	6183      	str	r3, [r0, #24]
 8004d56:	f7fd f8bb 	bl	8001ed0 <HAL_TIM_Base_Init>
 8004d5a:	486d      	ldr	r0, [pc, #436]	; (8004f10 <main+0x3e0>)
 8004d5c:	f7fb fa72 	bl	8000244 <load_config>
 8004d60:	486b      	ldr	r0, [pc, #428]	; (8004f10 <main+0x3e0>)
 8004d62:	f7fb fa87 	bl	8000274 <config_check_valid>
 8004d66:	2800      	cmp	r0, #0
 8004d68:	d100      	bne.n	8004d6c <main+0x23c>
 8004d6a:	e096      	b.n	8004e9a <main+0x36a>
 8004d6c:	466a      	mov	r2, sp
 8004d6e:	4b68      	ldr	r3, [pc, #416]	; (8004f10 <main+0x3e0>)
 8004d70:	2102      	movs	r1, #2
 8004d72:	891b      	ldrh	r3, [r3, #8]
 8004d74:	4668      	mov	r0, sp
 8004d76:	8013      	strh	r3, [r2, #0]
 8004d78:	f7ff fe3a 	bl	80049f0 <switch_Antenna>
 8004d7c:	0022      	movs	r2, r4
 8004d7e:	4b65      	ldr	r3, [pc, #404]	; (8004f14 <main+0x3e4>)
 8004d80:	cb23      	ldmia	r3!, {r0, r1, r5}
 8004d82:	c223      	stmia	r2!, {r0, r1, r5}
 8004d84:	4b64      	ldr	r3, [pc, #400]	; (8004f18 <main+0x3e8>)
 8004d86:	0021      	movs	r1, r4
 8004d88:	6818      	ldr	r0, [r3, #0]
 8004d8a:	f7ff f9d7 	bl	800413c <begin_serial485>
 8004d8e:	4963      	ldr	r1, [pc, #396]	; (8004f1c <main+0x3ec>)
 8004d90:	4863      	ldr	r0, [pc, #396]	; (8004f20 <main+0x3f0>)
 8004d92:	f7fe f94d 	bl	8003030 <FS_begin>
 8004d96:	4650      	mov	r0, sl
 8004d98:	f7fb ff4a 	bl	8000c30 <HAL_IWDG_Refresh>
 8004d9c:	20c8      	movs	r0, #200	; 0xc8
 8004d9e:	f7fb fb65 	bl	800046c <HAL_Delay>
 8004da2:	2400      	movs	r4, #0
 8004da4:	e006      	b.n	8004db4 <main+0x284>
 8004da6:	3401      	adds	r4, #1
 8004da8:	2032      	movs	r0, #50	; 0x32
 8004daa:	b2e4      	uxtb	r4, r4
 8004dac:	f7fb fb5e 	bl	800046c <HAL_Delay>
 8004db0:	2cff      	cmp	r4, #255	; 0xff
 8004db2:	d006      	beq.n	8004dc2 <main+0x292>
 8004db4:	0020      	movs	r0, r4
 8004db6:	f7fd fe2b 	bl	8002a10 <CH395CMDCheckExist>
 8004dba:	43e3      	mvns	r3, r4
 8004dbc:	b2db      	uxtb	r3, r3
 8004dbe:	4298      	cmp	r0, r3
 8004dc0:	d1f1      	bne.n	8004da6 <main+0x276>
 8004dc2:	4b58      	ldr	r3, [pc, #352]	; (8004f24 <main+0x3f4>)
 8004dc4:	4699      	mov	r9, r3
 8004dc6:	4b58      	ldr	r3, [pc, #352]	; (8004f28 <main+0x3f8>)
 8004dc8:	469b      	mov	fp, r3
 8004dca:	4b58      	ldr	r3, [pc, #352]	; (8004f2c <main+0x3fc>)
 8004dcc:	4698      	mov	r8, r3
 8004dce:	f7ff fc03 	bl	80045d8 <reset_CH395>
 8004dd2:	f7fb fb45 	bl	8000460 <HAL_GetTick>
 8004dd6:	464b      	mov	r3, r9
 8004dd8:	6018      	str	r0, [r3, #0]
 8004dda:	4650      	mov	r0, sl
 8004ddc:	f7fb ff28 	bl	8000c30 <HAL_IWDG_Refresh>
 8004de0:	465b      	mov	r3, fp
 8004de2:	781b      	ldrb	r3, [r3, #0]
 8004de4:	2b00      	cmp	r3, #0
 8004de6:	d004      	beq.n	8004df2 <main+0x2c2>
 8004de8:	4643      	mov	r3, r8
 8004dea:	781b      	ldrb	r3, [r3, #0]
 8004dec:	b2da      	uxtb	r2, r3
 8004dee:	2b00      	cmp	r3, #0
 8004df0:	d050      	beq.n	8004e94 <main+0x364>
 8004df2:	4643      	mov	r3, r8
 8004df4:	781b      	ldrb	r3, [r3, #0]
 8004df6:	2b00      	cmp	r3, #0
 8004df8:	d006      	beq.n	8004e08 <main+0x2d8>
 8004dfa:	4b4d      	ldr	r3, [pc, #308]	; (8004f30 <main+0x400>)
 8004dfc:	7e5b      	ldrb	r3, [r3, #25]
 8004dfe:	2b00      	cmp	r3, #0
 8004e00:	d002      	beq.n	8004e08 <main+0x2d8>
 8004e02:	e03b      	b.n	8004e7c <main+0x34c>
 8004e04:	f7ff fc3e 	bl	8004684 <interrupt_CH395>
 8004e08:	2090      	movs	r0, #144	; 0x90
 8004e0a:	2102      	movs	r1, #2
 8004e0c:	05c0      	lsls	r0, r0, #23
 8004e0e:	f7fb fecd 	bl	8000bac <HAL_GPIO_ReadPin>
 8004e12:	2800      	cmp	r0, #0
 8004e14:	d0f6      	beq.n	8004e04 <main+0x2d4>
 8004e16:	f7fb fb23 	bl	8000460 <HAL_GetTick>
 8004e1a:	464b      	mov	r3, r9
 8004e1c:	4a45      	ldr	r2, [pc, #276]	; (8004f34 <main+0x404>)
 8004e1e:	681b      	ldr	r3, [r3, #0]
 8004e20:	0004      	movs	r4, r0
 8004e22:	1ac3      	subs	r3, r0, r3
 8004e24:	4293      	cmp	r3, r2
 8004e26:	d903      	bls.n	8004e30 <main+0x300>
 8004e28:	4b43      	ldr	r3, [pc, #268]	; (8004f38 <main+0x408>)
 8004e2a:	781b      	ldrb	r3, [r3, #0]
 8004e2c:	2b00      	cmp	r3, #0
 8004e2e:	d11c      	bne.n	8004e6a <main+0x33a>
 8004e30:	003e      	movs	r6, r7
 8004e32:	003d      	movs	r5, r7
 8004e34:	003c      	movs	r4, r7
 8004e36:	3618      	adds	r6, #24
 8004e38:	88a1      	ldrh	r1, [r4, #4]
 8004e3a:	6820      	ldr	r0, [r4, #0]
 8004e3c:	f7fb feb6 	bl	8000bac <HAL_GPIO_ReadPin>
 8004e40:	2800      	cmp	r0, #0
 8004e42:	d11f      	bne.n	8004e84 <main+0x354>
 8004e44:	3408      	adds	r4, #8
 8004e46:	42a6      	cmp	r6, r4
 8004e48:	d1f6      	bne.n	8004e38 <main+0x308>
 8004e4a:	8c29      	ldrh	r1, [r5, #32]
 8004e4c:	69e8      	ldr	r0, [r5, #28]
 8004e4e:	f7fb fead 	bl	8000bac <HAL_GPIO_ReadPin>
 8004e52:	2800      	cmp	r0, #0
 8004e54:	d116      	bne.n	8004e84 <main+0x354>
 8004e56:	3508      	adds	r5, #8
 8004e58:	42b5      	cmp	r5, r6
 8004e5a:	d1f6      	bne.n	8004e4a <main+0x31a>
 8004e5c:	4b37      	ldr	r3, [pc, #220]	; (8004f3c <main+0x40c>)
 8004e5e:	781b      	ldrb	r3, [r3, #0]
 8004e60:	2b7f      	cmp	r3, #127	; 0x7f
 8004e62:	d9ba      	bls.n	8004dda <main+0x2aa>
 8004e64:	f7ff fb5c 	bl	8004520 <display_IP.part.0>
 8004e68:	e7b7      	b.n	8004dda <main+0x2aa>
 8004e6a:	4829      	ldr	r0, [pc, #164]	; (8004f10 <main+0x3e0>)
 8004e6c:	f7fb f9f4 	bl	8000258 <save_config>
 8004e70:	2200      	movs	r2, #0
 8004e72:	4b31      	ldr	r3, [pc, #196]	; (8004f38 <main+0x408>)
 8004e74:	701a      	strb	r2, [r3, #0]
 8004e76:	464b      	mov	r3, r9
 8004e78:	601c      	str	r4, [r3, #0]
 8004e7a:	e7d9      	b.n	8004e30 <main+0x300>
 8004e7c:	482c      	ldr	r0, [pc, #176]	; (8004f30 <main+0x400>)
 8004e7e:	f7fe ff8f 	bl	8003da0 <HTTPHandle>
 8004e82:	e7c1      	b.n	8004e08 <main+0x2d8>
 8004e84:	4b2d      	ldr	r3, [pc, #180]	; (8004f3c <main+0x40c>)
 8004e86:	781b      	ldrb	r3, [r3, #0]
 8004e88:	2b7f      	cmp	r3, #127	; 0x7f
 8004e8a:	d8a6      	bhi.n	8004dda <main+0x2aa>
 8004e8c:	2000      	movs	r0, #0
 8004e8e:	f7ff fe39 	bl	8004b04 <display_IP>
 8004e92:	e7a2      	b.n	8004dda <main+0x2aa>
 8004e94:	465b      	mov	r3, fp
 8004e96:	701a      	strb	r2, [r3, #0]
 8004e98:	e799      	b.n	8004dce <main+0x29e>
 8004e9a:	481d      	ldr	r0, [pc, #116]	; (8004f10 <main+0x3e0>)
 8004e9c:	f7fe f898 	bl	8002fd0 <init_config>
 8004ea0:	e764      	b.n	8004d6c <main+0x23c>
 8004ea2:	46c0      	nop			; (mov r8, r8)
 8004ea4:	20001114 	.word	0x20001114
 8004ea8:	080058e0 	.word	0x080058e0
 8004eac:	080058e8 	.word	0x080058e8
 8004eb0:	080058f0 	.word	0x080058f0
 8004eb4:	40021000 	.word	0x40021000
 8004eb8:	080058f8 	.word	0x080058f8
 8004ebc:	08005900 	.word	0x08005900
 8004ec0:	08005908 	.word	0x08005908
 8004ec4:	2000123c 	.word	0x2000123c
 8004ec8:	08005910 	.word	0x08005910
 8004ecc:	08005918 	.word	0x08005918
 8004ed0:	08005920 	.word	0x08005920
 8004ed4:	08005928 	.word	0x08005928
 8004ed8:	08005930 	.word	0x08005930
 8004edc:	08005938 	.word	0x08005938
 8004ee0:	00009c10 	.word	0x00009c10
 8004ee4:	00007c18 	.word	0x00007c18
 8004ee8:	48000400 	.word	0x48000400
 8004eec:	48001400 	.word	0x48001400
 8004ef0:	200011d8 	.word	0x200011d8
 8004ef4:	40013000 	.word	0x40013000
 8004ef8:	20001274 	.word	0x20001274
 8004efc:	40004400 	.word	0x40004400
 8004f00:	20001104 	.word	0x20001104
 8004f04:	40003000 	.word	0x40003000
 8004f08:	20001190 	.word	0x20001190
 8004f0c:	40001000 	.word	0x40001000
 8004f10:	20000d94 	.word	0x20000d94
 8004f14:	08005558 	.word	0x08005558
 8004f18:	20000680 	.word	0x20000680
 8004f1c:	0800c000 	.word	0x0800c000
 8004f20:	20000e28 	.word	0x20000e28
 8004f24:	20000d7c 	.word	0x20000d7c
 8004f28:	20000d79 	.word	0x20000d79
 8004f2c:	20000d77 	.word	0x20000d77
 8004f30:	20000018 	.word	0x20000018
 8004f34:	00000bb7 	.word	0x00000bb7
 8004f38:	200006c4 	.word	0x200006c4
 8004f3c:	2000069c 	.word	0x2000069c

08004f40 <HAL_TIM_PeriodElapsedCallback>:
 8004f40:	b5f0      	push	{r4, r5, r6, r7, lr}
 8004f42:	46c6      	mov	lr, r8
 8004f44:	4b31      	ldr	r3, [pc, #196]	; (800500c <HAL_TIM_PeriodElapsedCallback+0xcc>)
 8004f46:	b500      	push	{lr}
 8004f48:	4298      	cmp	r0, r3
 8004f4a:	d002      	beq.n	8004f52 <HAL_TIM_PeriodElapsedCallback+0x12>
 8004f4c:	bc80      	pop	{r7}
 8004f4e:	46b8      	mov	r8, r7
 8004f50:	bdf0      	pop	{r4, r5, r6, r7, pc}
 8004f52:	2300      	movs	r3, #0
 8004f54:	4d2e      	ldr	r5, [pc, #184]	; (8005010 <HAL_TIM_PeriodElapsedCallback+0xd0>)
 8004f56:	56eb      	ldrsb	r3, [r5, r3]
 8004f58:	2b00      	cmp	r3, #0
 8004f5a:	db4b      	blt.n	8004ff4 <HAL_TIM_PeriodElapsedCallback+0xb4>
 8004f5c:	4a2d      	ldr	r2, [pc, #180]	; (8005014 <HAL_TIM_PeriodElapsedCallback+0xd4>)
 8004f5e:	7812      	ldrb	r2, [r2, #0]
 8004f60:	4293      	cmp	r3, r2
 8004f62:	da29      	bge.n	8004fb8 <HAL_TIM_PeriodElapsedCallback+0x78>
 8004f64:	4a2c      	ldr	r2, [pc, #176]	; (8005018 <HAL_TIM_PeriodElapsedCallback+0xd8>)
 8004f66:	5cd2      	ldrb	r2, [r2, r3]
 8004f68:	0013      	movs	r3, r2
 8004f6a:	3b30      	subs	r3, #48	; 0x30
 8004f6c:	b2db      	uxtb	r3, r3
 8004f6e:	2b09      	cmp	r3, #9
 8004f70:	d843      	bhi.n	8004ffa <HAL_TIM_PeriodElapsedCallback+0xba>
 8004f72:	43da      	mvns	r2, r3
 8004f74:	2101      	movs	r1, #1
 8004f76:	b2d3      	uxtb	r3, r2
 8004f78:	085f      	lsrs	r7, r3, #1
 8004f7a:	089e      	lsrs	r6, r3, #2
 8004f7c:	08db      	lsrs	r3, r3, #3
 8004f7e:	400a      	ands	r2, r1
 8004f80:	400f      	ands	r7, r1
 8004f82:	400e      	ands	r6, r1
 8004f84:	4019      	ands	r1, r3
 8004f86:	4688      	mov	r8, r1
 8004f88:	4c24      	ldr	r4, [pc, #144]	; (800501c <HAL_TIM_PeriodElapsedCallback+0xdc>)
 8004f8a:	88a1      	ldrh	r1, [r4, #4]
 8004f8c:	6820      	ldr	r0, [r4, #0]
 8004f8e:	f7fb fe13 	bl	8000bb8 <HAL_GPIO_WritePin>
 8004f92:	003a      	movs	r2, r7
 8004f94:	89a1      	ldrh	r1, [r4, #12]
 8004f96:	68a0      	ldr	r0, [r4, #8]
 8004f98:	f7fb fe0e 	bl	8000bb8 <HAL_GPIO_WritePin>
 8004f9c:	0032      	movs	r2, r6
 8004f9e:	8aa1      	ldrh	r1, [r4, #20]
 8004fa0:	6920      	ldr	r0, [r4, #16]
 8004fa2:	f7fb fe09 	bl	8000bb8 <HAL_GPIO_WritePin>
 8004fa6:	4642      	mov	r2, r8
 8004fa8:	8c21      	ldrh	r1, [r4, #32]
 8004faa:	69e0      	ldr	r0, [r4, #28]
 8004fac:	f7fb fe04 	bl	8000bb8 <HAL_GPIO_WritePin>
 8004fb0:	782b      	ldrb	r3, [r5, #0]
 8004fb2:	3301      	adds	r3, #1
 8004fb4:	702b      	strb	r3, [r5, #0]
 8004fb6:	e7c9      	b.n	8004f4c <HAL_TIM_PeriodElapsedCallback+0xc>
 8004fb8:	3202      	adds	r2, #2
 8004fba:	4293      	cmp	r3, r2
 8004fbc:	dc18      	bgt.n	8004ff0 <HAL_TIM_PeriodElapsedCallback+0xb0>
 8004fbe:	4c17      	ldr	r4, [pc, #92]	; (800501c <HAL_TIM_PeriodElapsedCallback+0xdc>)
 8004fc0:	2201      	movs	r2, #1
 8004fc2:	88a1      	ldrh	r1, [r4, #4]
 8004fc4:	6820      	ldr	r0, [r4, #0]
 8004fc6:	f7fb fdf7 	bl	8000bb8 <HAL_GPIO_WritePin>
 8004fca:	2200      	movs	r2, #0
 8004fcc:	89a1      	ldrh	r1, [r4, #12]
 8004fce:	68a0      	ldr	r0, [r4, #8]
 8004fd0:	f7fb fdf2 	bl	8000bb8 <HAL_GPIO_WritePin>
 8004fd4:	2200      	movs	r2, #0
 8004fd6:	8aa1      	ldrh	r1, [r4, #20]
 8004fd8:	6920      	ldr	r0, [r4, #16]
 8004fda:	f7fb fded 	bl	8000bb8 <HAL_GPIO_WritePin>
 8004fde:	2200      	movs	r2, #0
 8004fe0:	8c21      	ldrh	r1, [r4, #32]
 8004fe2:	69e0      	ldr	r0, [r4, #28]
 8004fe4:	f7fb fde8 	bl	8000bb8 <HAL_GPIO_WritePin>
 8004fe8:	782b      	ldrb	r3, [r5, #0]
 8004fea:	3301      	adds	r3, #1
 8004fec:	702b      	strb	r3, [r5, #0]
 8004fee:	e7ad      	b.n	8004f4c <HAL_TIM_PeriodElapsedCallback+0xc>
 8004ff0:	23ff      	movs	r3, #255	; 0xff
 8004ff2:	702b      	strb	r3, [r5, #0]
 8004ff4:	f7fc fe54 	bl	8001ca0 <HAL_TIM_Base_Stop_IT>
 8004ff8:	e7a8      	b.n	8004f4c <HAL_TIM_PeriodElapsedCallback+0xc>
 8004ffa:	3a2e      	subs	r2, #46	; 0x2e
 8004ffc:	1e53      	subs	r3, r2, #1
 8004ffe:	419a      	sbcs	r2, r3
 8005000:	2300      	movs	r3, #0
 8005002:	2600      	movs	r6, #0
 8005004:	4698      	mov	r8, r3
 8005006:	2700      	movs	r7, #0
 8005008:	b2d2      	uxtb	r2, r2
 800500a:	e7bd      	b.n	8004f88 <HAL_TIM_PeriodElapsedCallback+0x48>
 800500c:	20001190 	.word	0x20001190
 8005010:	2000069c 	.word	0x2000069c
 8005014:	20000d80 	.word	0x20000d80
 8005018:	20000d84 	.word	0x20000d84
 800501c:	20001114 	.word	0x20001114

08005020 <Error_Handler>:
 8005020:	4770      	bx	lr
 8005022:	46c0      	nop			; (mov r8, r8)

08005024 <HAL_MspInit>:
 8005024:	2201      	movs	r2, #1
 8005026:	4b0a      	ldr	r3, [pc, #40]	; (8005050 <HAL_MspInit+0x2c>)
 8005028:	b082      	sub	sp, #8
 800502a:	6999      	ldr	r1, [r3, #24]
 800502c:	4311      	orrs	r1, r2
 800502e:	6199      	str	r1, [r3, #24]
 8005030:	6999      	ldr	r1, [r3, #24]
 8005032:	400a      	ands	r2, r1
 8005034:	2180      	movs	r1, #128	; 0x80
 8005036:	9200      	str	r2, [sp, #0]
 8005038:	9a00      	ldr	r2, [sp, #0]
 800503a:	69da      	ldr	r2, [r3, #28]
 800503c:	0549      	lsls	r1, r1, #21
 800503e:	430a      	orrs	r2, r1
 8005040:	61da      	str	r2, [r3, #28]
 8005042:	69db      	ldr	r3, [r3, #28]
 8005044:	400b      	ands	r3, r1
 8005046:	9301      	str	r3, [sp, #4]
 8005048:	9b01      	ldr	r3, [sp, #4]
 800504a:	b002      	add	sp, #8
 800504c:	4770      	bx	lr
 800504e:	46c0      	nop			; (mov r8, r8)
 8005050:	40021000 	.word	0x40021000

08005054 <HAL_SPI_MspInit>:
 8005054:	b510      	push	{r4, lr}
 8005056:	0004      	movs	r4, r0
 8005058:	b088      	sub	sp, #32
 800505a:	2214      	movs	r2, #20
 800505c:	2100      	movs	r1, #0
 800505e:	a803      	add	r0, sp, #12
 8005060:	f000 f96d 	bl	800533e <memset>
 8005064:	4b14      	ldr	r3, [pc, #80]	; (80050b8 <HAL_SPI_MspInit+0x64>)
 8005066:	6822      	ldr	r2, [r4, #0]
 8005068:	429a      	cmp	r2, r3
 800506a:	d001      	beq.n	8005070 <HAL_SPI_MspInit+0x1c>
 800506c:	b008      	add	sp, #32
 800506e:	bd10      	pop	{r4, pc}
 8005070:	2080      	movs	r0, #128	; 0x80
 8005072:	4b12      	ldr	r3, [pc, #72]	; (80050bc <HAL_SPI_MspInit+0x68>)
 8005074:	0140      	lsls	r0, r0, #5
 8005076:	6999      	ldr	r1, [r3, #24]
 8005078:	4301      	orrs	r1, r0
 800507a:	6199      	str	r1, [r3, #24]
 800507c:	2180      	movs	r1, #128	; 0x80
 800507e:	699a      	ldr	r2, [r3, #24]
 8005080:	0289      	lsls	r1, r1, #10
 8005082:	4002      	ands	r2, r0
 8005084:	9201      	str	r2, [sp, #4]
 8005086:	9a01      	ldr	r2, [sp, #4]
 8005088:	695a      	ldr	r2, [r3, #20]
 800508a:	2090      	movs	r0, #144	; 0x90
 800508c:	430a      	orrs	r2, r1
 800508e:	615a      	str	r2, [r3, #20]
 8005090:	695b      	ldr	r3, [r3, #20]
 8005092:	05c0      	lsls	r0, r0, #23
 8005094:	400b      	ands	r3, r1
 8005096:	9302      	str	r3, [sp, #8]
 8005098:	9b02      	ldr	r3, [sp, #8]
 800509a:	23e0      	movs	r3, #224	; 0xe0
 800509c:	9303      	str	r3, [sp, #12]
 800509e:	3bde      	subs	r3, #222	; 0xde
 80050a0:	9304      	str	r3, [sp, #16]
 80050a2:	3b01      	subs	r3, #1
 80050a4:	9305      	str	r3, [sp, #20]
 80050a6:	3302      	adds	r3, #2
 80050a8:	9306      	str	r3, [sp, #24]
 80050aa:	2300      	movs	r3, #0
 80050ac:	a903      	add	r1, sp, #12
 80050ae:	9307      	str	r3, [sp, #28]
 80050b0:	f7fb fc88 	bl	80009c4 <HAL_GPIO_Init>
 80050b4:	e7da      	b.n	800506c <HAL_SPI_MspInit+0x18>
 80050b6:	46c0      	nop			; (mov r8, r8)
 80050b8:	40013000 	.word	0x40013000
 80050bc:	40021000 	.word	0x40021000

080050c0 <HAL_TIM_Base_MspInit>:
 80050c0:	b500      	push	{lr}
 80050c2:	4b0c      	ldr	r3, [pc, #48]	; (80050f4 <HAL_TIM_Base_MspInit+0x34>)
 80050c4:	6802      	ldr	r2, [r0, #0]
 80050c6:	b083      	sub	sp, #12
 80050c8:	429a      	cmp	r2, r3
 80050ca:	d001      	beq.n	80050d0 <HAL_TIM_Base_MspInit+0x10>
 80050cc:	b003      	add	sp, #12
 80050ce:	bd00      	pop	{pc}
 80050d0:	2310      	movs	r3, #16
 80050d2:	4a09      	ldr	r2, [pc, #36]	; (80050f8 <HAL_TIM_Base_MspInit+0x38>)
 80050d4:	2011      	movs	r0, #17
 80050d6:	69d1      	ldr	r1, [r2, #28]
 80050d8:	4319      	orrs	r1, r3
 80050da:	61d1      	str	r1, [r2, #28]
 80050dc:	69d2      	ldr	r2, [r2, #28]
 80050de:	2100      	movs	r1, #0
 80050e0:	4013      	ands	r3, r2
 80050e2:	9301      	str	r3, [sp, #4]
 80050e4:	2200      	movs	r2, #0
 80050e6:	9b01      	ldr	r3, [sp, #4]
 80050e8:	f7fb f9d2 	bl	8000490 <HAL_NVIC_SetPriority>
 80050ec:	2011      	movs	r0, #17
 80050ee:	f7fb fa01 	bl	80004f4 <HAL_NVIC_EnableIRQ>
 80050f2:	e7eb      	b.n	80050cc <HAL_TIM_Base_MspInit+0xc>
 80050f4:	40001000 	.word	0x40001000
 80050f8:	40021000 	.word	0x40021000

080050fc <HAL_UART_MspInit>:
 80050fc:	b530      	push	{r4, r5, lr}
 80050fe:	0004      	movs	r4, r0
 8005100:	b089      	sub	sp, #36	; 0x24
 8005102:	2214      	movs	r2, #20
 8005104:	2100      	movs	r1, #0
 8005106:	a803      	add	r0, sp, #12
 8005108:	f000 f919 	bl	800533e <memset>
 800510c:	4b2e      	ldr	r3, [pc, #184]	; (80051c8 <HAL_UART_MspInit+0xcc>)
 800510e:	6822      	ldr	r2, [r4, #0]
 8005110:	429a      	cmp	r2, r3
 8005112:	d001      	beq.n	8005118 <HAL_UART_MspInit+0x1c>
 8005114:	b009      	add	sp, #36	; 0x24
 8005116:	bd30      	pop	{r4, r5, pc}
 8005118:	2280      	movs	r2, #128	; 0x80
 800511a:	4b2c      	ldr	r3, [pc, #176]	; (80051cc <HAL_UART_MspInit+0xd0>)
 800511c:	0292      	lsls	r2, r2, #10
 800511e:	69d9      	ldr	r1, [r3, #28]
 8005120:	2090      	movs	r0, #144	; 0x90
 8005122:	4311      	orrs	r1, r2
 8005124:	61d9      	str	r1, [r3, #28]
 8005126:	69d9      	ldr	r1, [r3, #28]
 8005128:	05c0      	lsls	r0, r0, #23
 800512a:	4011      	ands	r1, r2
 800512c:	9101      	str	r1, [sp, #4]
 800512e:	9901      	ldr	r1, [sp, #4]
 8005130:	6959      	ldr	r1, [r3, #20]
 8005132:	4311      	orrs	r1, r2
 8005134:	6159      	str	r1, [r3, #20]
 8005136:	695b      	ldr	r3, [r3, #20]
 8005138:	a903      	add	r1, sp, #12
 800513a:	401a      	ands	r2, r3
 800513c:	9202      	str	r2, [sp, #8]
 800513e:	9b02      	ldr	r3, [sp, #8]
 8005140:	230c      	movs	r3, #12
 8005142:	2203      	movs	r2, #3
 8005144:	9303      	str	r3, [sp, #12]
 8005146:	3b0a      	subs	r3, #10
 8005148:	9304      	str	r3, [sp, #16]
 800514a:	3b01      	subs	r3, #1
 800514c:	9305      	str	r3, [sp, #20]
 800514e:	9206      	str	r2, [sp, #24]
 8005150:	9307      	str	r3, [sp, #28]
 8005152:	f7fb fc37 	bl	80009c4 <HAL_GPIO_Init>
 8005156:	4d1e      	ldr	r5, [pc, #120]	; (80051d0 <HAL_UART_MspInit+0xd4>)
 8005158:	4b1e      	ldr	r3, [pc, #120]	; (80051d4 <HAL_UART_MspInit+0xd8>)
 800515a:	2280      	movs	r2, #128	; 0x80
 800515c:	602b      	str	r3, [r5, #0]
 800515e:	2300      	movs	r3, #0
 8005160:	606b      	str	r3, [r5, #4]
 8005162:	60ab      	str	r3, [r5, #8]
 8005164:	612b      	str	r3, [r5, #16]
 8005166:	616b      	str	r3, [r5, #20]
 8005168:	61ab      	str	r3, [r5, #24]
 800516a:	2380      	movs	r3, #128	; 0x80
 800516c:	0028      	movs	r0, r5
 800516e:	015b      	lsls	r3, r3, #5
 8005170:	60ea      	str	r2, [r5, #12]
 8005172:	61eb      	str	r3, [r5, #28]
 8005174:	f7fb f9e4 	bl	8000540 <HAL_DMA_Init>
 8005178:	2800      	cmp	r0, #0
 800517a:	d11e      	bne.n	80051ba <HAL_UART_MspInit+0xbe>
 800517c:	4b16      	ldr	r3, [pc, #88]	; (80051d8 <HAL_UART_MspInit+0xdc>)
 800517e:	6765      	str	r5, [r4, #116]	; 0x74
 8005180:	626c      	str	r4, [r5, #36]	; 0x24
 8005182:	4d16      	ldr	r5, [pc, #88]	; (80051dc <HAL_UART_MspInit+0xe0>)
 8005184:	2280      	movs	r2, #128	; 0x80
 8005186:	602b      	str	r3, [r5, #0]
 8005188:	2310      	movs	r3, #16
 800518a:	606b      	str	r3, [r5, #4]
 800518c:	2300      	movs	r3, #0
 800518e:	0028      	movs	r0, r5
 8005190:	60ab      	str	r3, [r5, #8]
 8005192:	60ea      	str	r2, [r5, #12]
 8005194:	612b      	str	r3, [r5, #16]
 8005196:	616b      	str	r3, [r5, #20]
 8005198:	61ab      	str	r3, [r5, #24]
 800519a:	61eb      	str	r3, [r5, #28]
 800519c:	f7fb f9d0 	bl	8000540 <HAL_DMA_Init>
 80051a0:	2800      	cmp	r0, #0
 80051a2:	d10d      	bne.n	80051c0 <HAL_UART_MspInit+0xc4>
 80051a4:	2200      	movs	r2, #0
 80051a6:	2100      	movs	r1, #0
 80051a8:	201c      	movs	r0, #28
 80051aa:	6725      	str	r5, [r4, #112]	; 0x70
 80051ac:	626c      	str	r4, [r5, #36]	; 0x24
 80051ae:	f7fb f96f 	bl	8000490 <HAL_NVIC_SetPriority>
 80051b2:	201c      	movs	r0, #28
 80051b4:	f7fb f99e 	bl	80004f4 <HAL_NVIC_EnableIRQ>
 80051b8:	e7ac      	b.n	8005114 <HAL_UART_MspInit+0x18>
 80051ba:	f7ff ff31 	bl	8005020 <Error_Handler>
 80051be:	e7dd      	b.n	800517c <HAL_UART_MspInit+0x80>
 80051c0:	f7ff ff2e 	bl	8005020 <Error_Handler>
 80051c4:	e7ee      	b.n	80051a4 <HAL_UART_MspInit+0xa8>
 80051c6:	46c0      	nop			; (mov r8, r8)
 80051c8:	40004400 	.word	0x40004400
 80051cc:	40021000 	.word	0x40021000
 80051d0:	200010c0 	.word	0x200010c0
 80051d4:	40020058 	.word	0x40020058
 80051d8:	40020044 	.word	0x40020044
 80051dc:	2000114c 	.word	0x2000114c

080051e0 <NMI_Handler>:
 80051e0:	4770      	bx	lr
 80051e2:	46c0      	nop			; (mov r8, r8)

080051e4 <HardFault_Handler>:
 80051e4:	e7fe      	b.n	80051e4 <HardFault_Handler>
 80051e6:	46c0      	nop			; (mov r8, r8)

080051e8 <SVC_Handler>:
 80051e8:	4770      	bx	lr
 80051ea:	46c0      	nop			; (mov r8, r8)

080051ec <PendSV_Handler>:
 80051ec:	4770      	bx	lr
 80051ee:	46c0      	nop			; (mov r8, r8)

080051f0 <SysTick_Handler>:
 80051f0:	b510      	push	{r4, lr}
 80051f2:	f7fb f929 	bl	8000448 <HAL_IncTick>
 80051f6:	bd10      	pop	{r4, pc}

080051f8 <DMA1_Channel4_5_IRQHandler>:
 80051f8:	b510      	push	{r4, lr}
 80051fa:	4803      	ldr	r0, [pc, #12]	; (8005208 <DMA1_Channel4_5_IRQHandler+0x10>)
 80051fc:	f7fb fa58 	bl	80006b0 <HAL_DMA_IRQHandler>
 8005200:	4802      	ldr	r0, [pc, #8]	; (800520c <DMA1_Channel4_5_IRQHandler+0x14>)
 8005202:	f7fb fa55 	bl	80006b0 <HAL_DMA_IRQHandler>
 8005206:	bd10      	pop	{r4, pc}
 8005208:	2000114c 	.word	0x2000114c
 800520c:	200010c0 	.word	0x200010c0

08005210 <TIM6_IRQHandler>:
 8005210:	b510      	push	{r4, lr}
 8005212:	4802      	ldr	r0, [pc, #8]	; (800521c <TIM6_IRQHandler+0xc>)
 8005214:	f7fc fd66 	bl	8001ce4 <HAL_TIM_IRQHandler>
 8005218:	bd10      	pop	{r4, pc}
 800521a:	46c0      	nop			; (mov r8, r8)
 800521c:	20001190 	.word	0x20001190

08005220 <USART2_IRQHandler>:
 8005220:	b510      	push	{r4, lr}
 8005222:	4802      	ldr	r0, [pc, #8]	; (800522c <USART2_IRQHandler+0xc>)
 8005224:	f7fc fef6 	bl	8002014 <HAL_UART_IRQHandler>
 8005228:	bd10      	pop	{r4, pc}
 800522a:	46c0      	nop			; (mov r8, r8)
 800522c:	20001274 	.word	0x20001274

08005230 <SystemInit>:
 8005230:	2101      	movs	r1, #1
 8005232:	4b11      	ldr	r3, [pc, #68]	; (8005278 <SystemInit+0x48>)
 8005234:	4811      	ldr	r0, [pc, #68]	; (800527c <SystemInit+0x4c>)
 8005236:	681a      	ldr	r2, [r3, #0]
 8005238:	430a      	orrs	r2, r1
 800523a:	601a      	str	r2, [r3, #0]
 800523c:	685a      	ldr	r2, [r3, #4]
 800523e:	4002      	ands	r2, r0
 8005240:	605a      	str	r2, [r3, #4]
 8005242:	681a      	ldr	r2, [r3, #0]
 8005244:	480e      	ldr	r0, [pc, #56]	; (8005280 <SystemInit+0x50>)
 8005246:	4002      	ands	r2, r0
 8005248:	601a      	str	r2, [r3, #0]
 800524a:	681a      	ldr	r2, [r3, #0]
 800524c:	480d      	ldr	r0, [pc, #52]	; (8005284 <SystemInit+0x54>)
 800524e:	4002      	ands	r2, r0
 8005250:	601a      	str	r2, [r3, #0]
 8005252:	685a      	ldr	r2, [r3, #4]
 8005254:	480c      	ldr	r0, [pc, #48]	; (8005288 <SystemInit+0x58>)
 8005256:	4002      	ands	r2, r0
 8005258:	200f      	movs	r0, #15
 800525a:	605a      	str	r2, [r3, #4]
 800525c:	6ada      	ldr	r2, [r3, #44]	; 0x2c
 800525e:	4382      	bics	r2, r0
 8005260:	62da      	str	r2, [r3, #44]	; 0x2c
 8005262:	6b1a      	ldr	r2, [r3, #48]	; 0x30
 8005264:	4809      	ldr	r0, [pc, #36]	; (800528c <SystemInit+0x5c>)
 8005266:	4002      	ands	r2, r0
 8005268:	631a      	str	r2, [r3, #48]	; 0x30
 800526a:	6b5a      	ldr	r2, [r3, #52]	; 0x34
 800526c:	438a      	bics	r2, r1
 800526e:	635a      	str	r2, [r3, #52]	; 0x34
 8005270:	2200      	movs	r2, #0
 8005272:	609a      	str	r2, [r3, #8]
 8005274:	4770      	bx	lr
 8005276:	46c0      	nop			; (mov r8, r8)
 8005278:	40021000 	.word	0x40021000
 800527c:	08ffb80c 	.word	0x08ffb80c
 8005280:	fef6ffff 	.word	0xfef6ffff
 8005284:	fffbffff 	.word	0xfffbffff
 8005288:	ffc0ffff 	.word	0xffc0ffff
 800528c:	fffffeec 	.word	0xfffffeec

08005290 <Reset_Handler>:
 8005290:	480d      	ldr	r0, [pc, #52]	; (80052c8 <LoopForever+0x2>)
 8005292:	4685      	mov	sp, r0
 8005294:	480d      	ldr	r0, [pc, #52]	; (80052cc <LoopForever+0x6>)
 8005296:	490e      	ldr	r1, [pc, #56]	; (80052d0 <LoopForever+0xa>)
 8005298:	4a0e      	ldr	r2, [pc, #56]	; (80052d4 <LoopForever+0xe>)
 800529a:	2300      	movs	r3, #0
 800529c:	e002      	b.n	80052a4 <LoopCopyDataInit>

0800529e <CopyDataInit>:
 800529e:	58d4      	ldr	r4, [r2, r3]
 80052a0:	50c4      	str	r4, [r0, r3]
 80052a2:	3304      	adds	r3, #4

080052a4 <LoopCopyDataInit>:
 80052a4:	18c4      	adds	r4, r0, r3
 80052a6:	428c      	cmp	r4, r1
 80052a8:	d3f9      	bcc.n	800529e <CopyDataInit>
 80052aa:	4a0b      	ldr	r2, [pc, #44]	; (80052d8 <LoopForever+0x12>)
 80052ac:	4c0b      	ldr	r4, [pc, #44]	; (80052dc <LoopForever+0x16>)
 80052ae:	2300      	movs	r3, #0
 80052b0:	e001      	b.n	80052b6 <LoopFillZerobss>

080052b2 <FillZerobss>:
 80052b2:	6013      	str	r3, [r2, #0]
 80052b4:	3204      	adds	r2, #4

080052b6 <LoopFillZerobss>:
 80052b6:	42a2      	cmp	r2, r4
 80052b8:	d3fb      	bcc.n	80052b2 <FillZerobss>
 80052ba:	f7ff ffb9 	bl	8005230 <SystemInit>
 80052be:	f000 f811 	bl	80052e4 <__libc_init_array>
 80052c2:	f7ff fc35 	bl	8004b30 <main>

080052c6 <LoopForever>:
 80052c6:	e7fe      	b.n	80052c6 <LoopForever>
 80052c8:	20001fff 	.word	0x20001fff
 80052cc:	20000000 	.word	0x20000000
 80052d0:	200006a4 	.word	0x200006a4
 80052d4:	08005960 	.word	0x08005960
 80052d8:	200006a8 	.word	0x200006a8
 80052dc:	200012fc 	.word	0x200012fc

080052e0 <ADC1_IRQHandler>:
 80052e0:	e7fe      	b.n	80052e0 <ADC1_IRQHandler>
	...

080052e4 <__libc_init_array>:
 80052e4:	b570      	push	{r4, r5, r6, lr}
 80052e6:	2600      	movs	r6, #0
 80052e8:	4d0c      	ldr	r5, [pc, #48]	; (800531c <__libc_init_array+0x38>)
 80052ea:	4c0d      	ldr	r4, [pc, #52]	; (8005320 <__libc_init_array+0x3c>)
 80052ec:	1b64      	subs	r4, r4, r5
 80052ee:	10a4      	asrs	r4, r4, #2
 80052f0:	42a6      	cmp	r6, r4
 80052f2:	d109      	bne.n	8005308 <__libc_init_array+0x24>
 80052f4:	2600      	movs	r6, #0
 80052f6:	f000 f923 	bl	8005540 <_init>
 80052fa:	4d0a      	ldr	r5, [pc, #40]	; (8005324 <__libc_init_array+0x40>)
 80052fc:	4c0a      	ldr	r4, [pc, #40]	; (8005328 <__libc_init_array+0x44>)
 80052fe:	1b64      	subs	r4, r4, r5
 8005300:	10a4      	asrs	r4, r4, #2
 8005302:	42a6      	cmp	r6, r4
 8005304:	d105      	bne.n	8005312 <__libc_init_array+0x2e>
 8005306:	bd70      	pop	{r4, r5, r6, pc}
 8005308:	00b3      	lsls	r3, r6, #2
 800530a:	58eb      	ldr	r3, [r5, r3]
 800530c:	4798      	blx	r3
 800530e:	3601      	adds	r6, #1
 8005310:	e7ee      	b.n	80052f0 <__libc_init_array+0xc>
 8005312:	00b3      	lsls	r3, r6, #2
 8005314:	58eb      	ldr	r3, [r5, r3]
 8005316:	4798      	blx	r3
 8005318:	3601      	adds	r6, #1
 800531a:	e7f2      	b.n	8005302 <__libc_init_array+0x1e>
 800531c:	08005958 	.word	0x08005958
 8005320:	08005958 	.word	0x08005958
 8005324:	08005958 	.word	0x08005958
 8005328:	0800595c 	.word	0x0800595c

0800532c <memcpy>:
 800532c:	2300      	movs	r3, #0
 800532e:	b510      	push	{r4, lr}
 8005330:	429a      	cmp	r2, r3
 8005332:	d100      	bne.n	8005336 <memcpy+0xa>
 8005334:	bd10      	pop	{r4, pc}
 8005336:	5ccc      	ldrb	r4, [r1, r3]
 8005338:	54c4      	strb	r4, [r0, r3]
 800533a:	3301      	adds	r3, #1
 800533c:	e7f8      	b.n	8005330 <memcpy+0x4>

0800533e <memset>:
 800533e:	0003      	movs	r3, r0
 8005340:	1882      	adds	r2, r0, r2
 8005342:	4293      	cmp	r3, r2
 8005344:	d100      	bne.n	8005348 <memset+0xa>
 8005346:	4770      	bx	lr
 8005348:	7019      	strb	r1, [r3, #0]
 800534a:	3301      	adds	r3, #1
 800534c:	e7f9      	b.n	8005342 <memset+0x4>

0800534e <stpcpy>:
 800534e:	0003      	movs	r3, r0
 8005350:	780a      	ldrb	r2, [r1, #0]
 8005352:	0018      	movs	r0, r3
 8005354:	701a      	strb	r2, [r3, #0]
 8005356:	3101      	adds	r1, #1
 8005358:	3301      	adds	r3, #1
 800535a:	2a00      	cmp	r2, #0
 800535c:	d1f8      	bne.n	8005350 <stpcpy+0x2>
 800535e:	4770      	bx	lr

08005360 <strcat>:
 8005360:	0002      	movs	r2, r0
 8005362:	b510      	push	{r4, lr}
 8005364:	7813      	ldrb	r3, [r2, #0]
 8005366:	0014      	movs	r4, r2
 8005368:	3201      	adds	r2, #1
 800536a:	2b00      	cmp	r3, #0
 800536c:	d1fa      	bne.n	8005364 <strcat+0x4>
 800536e:	5cca      	ldrb	r2, [r1, r3]
 8005370:	54e2      	strb	r2, [r4, r3]
 8005372:	3301      	adds	r3, #1
 8005374:	2a00      	cmp	r2, #0
 8005376:	d1fa      	bne.n	800536e <strcat+0xe>
 8005378:	bd10      	pop	{r4, pc}

0800537a <strchr>:
 800537a:	b2c9      	uxtb	r1, r1
 800537c:	7803      	ldrb	r3, [r0, #0]
 800537e:	2b00      	cmp	r3, #0
 8005380:	d004      	beq.n	800538c <strchr+0x12>
 8005382:	428b      	cmp	r3, r1
 8005384:	d100      	bne.n	8005388 <strchr+0xe>
 8005386:	4770      	bx	lr
 8005388:	3001      	adds	r0, #1
 800538a:	e7f7      	b.n	800537c <strchr+0x2>
 800538c:	424b      	negs	r3, r1
 800538e:	4159      	adcs	r1, r3
 8005390:	4249      	negs	r1, r1
 8005392:	4008      	ands	r0, r1
 8005394:	e7f7      	b.n	8005386 <strchr+0xc>

08005396 <strncat>:
 8005396:	0003      	movs	r3, r0
 8005398:	b530      	push	{r4, r5, lr}
 800539a:	781c      	ldrb	r4, [r3, #0]
 800539c:	2c00      	cmp	r4, #0
 800539e:	d108      	bne.n	80053b2 <strncat+0x1c>
 80053a0:	1889      	adds	r1, r1, r2
 80053a2:	2a00      	cmp	r2, #0
 80053a4:	d004      	beq.n	80053b0 <strncat+0x1a>
 80053a6:	4255      	negs	r5, r2
 80053a8:	5d4d      	ldrb	r5, [r1, r5]
 80053aa:	701d      	strb	r5, [r3, #0]
 80053ac:	2d00      	cmp	r5, #0
 80053ae:	d102      	bne.n	80053b6 <strncat+0x20>
 80053b0:	bd30      	pop	{r4, r5, pc}
 80053b2:	3301      	adds	r3, #1
 80053b4:	e7f1      	b.n	800539a <strncat+0x4>
 80053b6:	2a01      	cmp	r2, #1
 80053b8:	d100      	bne.n	80053bc <strncat+0x26>
 80053ba:	705c      	strb	r4, [r3, #1]
 80053bc:	3301      	adds	r3, #1
 80053be:	3a01      	subs	r2, #1
 80053c0:	e7ef      	b.n	80053a2 <strncat+0xc>

080053c2 <strncmp>:
 80053c2:	b530      	push	{r4, r5, lr}
 80053c4:	0005      	movs	r5, r0
 80053c6:	1e10      	subs	r0, r2, #0
 80053c8:	d00b      	beq.n	80053e2 <strncmp+0x20>
 80053ca:	2400      	movs	r4, #0
 80053cc:	3a01      	subs	r2, #1
 80053ce:	5d2b      	ldrb	r3, [r5, r4]
 80053d0:	5d08      	ldrb	r0, [r1, r4]
 80053d2:	4283      	cmp	r3, r0
 80053d4:	d104      	bne.n	80053e0 <strncmp+0x1e>
 80053d6:	4294      	cmp	r4, r2
 80053d8:	d002      	beq.n	80053e0 <strncmp+0x1e>
 80053da:	3401      	adds	r4, #1
 80053dc:	2b00      	cmp	r3, #0
 80053de:	d1f6      	bne.n	80053ce <strncmp+0xc>
 80053e0:	1a18      	subs	r0, r3, r0
 80053e2:	bd30      	pop	{r4, r5, pc}

080053e4 <strncpy>:
 80053e4:	0003      	movs	r3, r0
 80053e6:	b530      	push	{r4, r5, lr}
 80053e8:	001d      	movs	r5, r3
 80053ea:	2a00      	cmp	r2, #0
 80053ec:	d006      	beq.n	80053fc <strncpy+0x18>
 80053ee:	780c      	ldrb	r4, [r1, #0]
 80053f0:	3a01      	subs	r2, #1
 80053f2:	3301      	adds	r3, #1
 80053f4:	702c      	strb	r4, [r5, #0]
 80053f6:	3101      	adds	r1, #1
 80053f8:	2c00      	cmp	r4, #0
 80053fa:	d1f5      	bne.n	80053e8 <strncpy+0x4>
 80053fc:	2100      	movs	r1, #0
 80053fe:	189a      	adds	r2, r3, r2
 8005400:	4293      	cmp	r3, r2
 8005402:	d100      	bne.n	8005406 <strncpy+0x22>
 8005404:	bd30      	pop	{r4, r5, pc}
 8005406:	7019      	strb	r1, [r3, #0]
 8005408:	3301      	adds	r3, #1
 800540a:	e7f9      	b.n	8005400 <strncpy+0x1c>

0800540c <strnlen>:
 800540c:	0003      	movs	r3, r0
 800540e:	1841      	adds	r1, r0, r1
 8005410:	428b      	cmp	r3, r1
 8005412:	d101      	bne.n	8005418 <strnlen+0xc>
 8005414:	1a18      	subs	r0, r3, r0
 8005416:	4770      	bx	lr
 8005418:	781a      	ldrb	r2, [r3, #0]
 800541a:	2a00      	cmp	r2, #0
 800541c:	d0fa      	beq.n	8005414 <strnlen+0x8>
 800541e:	3301      	adds	r3, #1
 8005420:	e7f6      	b.n	8005410 <strnlen+0x4>

08005422 <strnstr>:
 8005422:	b570      	push	{r4, r5, r6, lr}
 8005424:	000e      	movs	r6, r1
 8005426:	0005      	movs	r5, r0
 8005428:	0011      	movs	r1, r2
 800542a:	0030      	movs	r0, r6
 800542c:	0014      	movs	r4, r2
 800542e:	f7ff ffed 	bl	800540c <strnlen>
 8005432:	0003      	movs	r3, r0
 8005434:	4284      	cmp	r4, r0
 8005436:	d805      	bhi.n	8005444 <strnstr+0x22>
 8005438:	5c32      	ldrb	r2, [r6, r0]
 800543a:	2a00      	cmp	r2, #0
 800543c:	d002      	beq.n	8005444 <strnstr+0x22>
 800543e:	2400      	movs	r4, #0
 8005440:	0020      	movs	r0, r4
 8005442:	bd70      	pop	{r4, r5, r6, pc}
 8005444:	0021      	movs	r1, r4
 8005446:	0032      	movs	r2, r6
 8005448:	0028      	movs	r0, r5
 800544a:	f000 f85f 	bl	800550c <memmem>
 800544e:	1e04      	subs	r4, r0, #0
 8005450:	d0f5      	beq.n	800543e <strnstr+0x1c>
 8005452:	1b42      	subs	r2, r0, r5
 8005454:	2100      	movs	r1, #0
 8005456:	0028      	movs	r0, r5
 8005458:	f000 f84d 	bl	80054f6 <memchr>
 800545c:	2800      	cmp	r0, #0
 800545e:	d1ee      	bne.n	800543e <strnstr+0x1c>
 8005460:	e7ee      	b.n	8005440 <strnstr+0x1e>

08005462 <strstr>:
 8005462:	780a      	ldrb	r2, [r1, #0]
 8005464:	b530      	push	{r4, r5, lr}
 8005466:	2a00      	cmp	r2, #0
 8005468:	d10c      	bne.n	8005484 <strstr+0x22>
 800546a:	bd30      	pop	{r4, r5, pc}
 800546c:	429a      	cmp	r2, r3
 800546e:	d108      	bne.n	8005482 <strstr+0x20>
 8005470:	2301      	movs	r3, #1
 8005472:	5ccc      	ldrb	r4, [r1, r3]
 8005474:	2c00      	cmp	r4, #0
 8005476:	d0f8      	beq.n	800546a <strstr+0x8>
 8005478:	5cc5      	ldrb	r5, [r0, r3]
 800547a:	42a5      	cmp	r5, r4
 800547c:	d101      	bne.n	8005482 <strstr+0x20>
 800547e:	3301      	adds	r3, #1
 8005480:	e7f7      	b.n	8005472 <strstr+0x10>
 8005482:	3001      	adds	r0, #1
 8005484:	7803      	ldrb	r3, [r0, #0]
 8005486:	2b00      	cmp	r3, #0
 8005488:	d1f0      	bne.n	800546c <strstr+0xa>
 800548a:	0018      	movs	r0, r3
 800548c:	e7ed      	b.n	800546a <strstr+0x8>

0800548e <__strtok_r>:
 800548e:	b5f0      	push	{r4, r5, r6, r7, lr}
 8005490:	2800      	cmp	r0, #0
 8005492:	d102      	bne.n	800549a <__strtok_r+0xc>
 8005494:	6810      	ldr	r0, [r2, #0]
 8005496:	2800      	cmp	r0, #0
 8005498:	d013      	beq.n	80054c2 <__strtok_r+0x34>
 800549a:	0004      	movs	r4, r0
 800549c:	0020      	movs	r0, r4
 800549e:	000e      	movs	r6, r1
 80054a0:	7805      	ldrb	r5, [r0, #0]
 80054a2:	3401      	adds	r4, #1
 80054a4:	7837      	ldrb	r7, [r6, #0]
 80054a6:	2f00      	cmp	r7, #0
 80054a8:	d104      	bne.n	80054b4 <__strtok_r+0x26>
 80054aa:	2d00      	cmp	r5, #0
 80054ac:	d10f      	bne.n	80054ce <__strtok_r+0x40>
 80054ae:	0028      	movs	r0, r5
 80054b0:	6015      	str	r5, [r2, #0]
 80054b2:	e006      	b.n	80054c2 <__strtok_r+0x34>
 80054b4:	3601      	adds	r6, #1
 80054b6:	42bd      	cmp	r5, r7
 80054b8:	d1f4      	bne.n	80054a4 <__strtok_r+0x16>
 80054ba:	2b00      	cmp	r3, #0
 80054bc:	d1ee      	bne.n	800549c <__strtok_r+0xe>
 80054be:	6014      	str	r4, [r2, #0]
 80054c0:	7003      	strb	r3, [r0, #0]
 80054c2:	bdf0      	pop	{r4, r5, r6, r7, pc}
 80054c4:	002f      	movs	r7, r5
 80054c6:	e00f      	b.n	80054e8 <__strtok_r+0x5a>
 80054c8:	3301      	adds	r3, #1
 80054ca:	2e00      	cmp	r6, #0
 80054cc:	d104      	bne.n	80054d8 <__strtok_r+0x4a>
 80054ce:	0023      	movs	r3, r4
 80054d0:	3401      	adds	r4, #1
 80054d2:	781d      	ldrb	r5, [r3, #0]
 80054d4:	0027      	movs	r7, r4
 80054d6:	000b      	movs	r3, r1
 80054d8:	781e      	ldrb	r6, [r3, #0]
 80054da:	42b5      	cmp	r5, r6
 80054dc:	d1f4      	bne.n	80054c8 <__strtok_r+0x3a>
 80054de:	2d00      	cmp	r5, #0
 80054e0:	d0f0      	beq.n	80054c4 <__strtok_r+0x36>
 80054e2:	2300      	movs	r3, #0
 80054e4:	3c01      	subs	r4, #1
 80054e6:	7023      	strb	r3, [r4, #0]
 80054e8:	6017      	str	r7, [r2, #0]
 80054ea:	e7ea      	b.n	80054c2 <__strtok_r+0x34>

080054ec <strtok_r>:
 80054ec:	b510      	push	{r4, lr}
 80054ee:	2301      	movs	r3, #1
 80054f0:	f7ff ffcd 	bl	800548e <__strtok_r>
 80054f4:	bd10      	pop	{r4, pc}

080054f6 <memchr>:
 80054f6:	b2c9      	uxtb	r1, r1
 80054f8:	1882      	adds	r2, r0, r2
 80054fa:	4290      	cmp	r0, r2
 80054fc:	d101      	bne.n	8005502 <memchr+0xc>
 80054fe:	2000      	movs	r0, #0
 8005500:	4770      	bx	lr
 8005502:	7803      	ldrb	r3, [r0, #0]
 8005504:	428b      	cmp	r3, r1
 8005506:	d0fb      	beq.n	8005500 <memchr+0xa>
 8005508:	3001      	adds	r0, #1
 800550a:	e7f6      	b.n	80054fa <memchr+0x4>

0800550c <memmem>:
 800550c:	b5f0      	push	{r4, r5, r6, r7, lr}
 800550e:	2b00      	cmp	r3, #0
 8005510:	d00c      	beq.n	800552c <memmem+0x20>
 8005512:	1ac9      	subs	r1, r1, r3
 8005514:	7815      	ldrb	r5, [r2, #0]
 8005516:	1841      	adds	r1, r0, r1
 8005518:	4288      	cmp	r0, r1
 800551a:	d901      	bls.n	8005520 <memmem+0x14>
 800551c:	2000      	movs	r0, #0
 800551e:	e005      	b.n	800552c <memmem+0x20>
 8005520:	7804      	ldrb	r4, [r0, #0]
 8005522:	42ac      	cmp	r4, r5
 8005524:	d109      	bne.n	800553a <memmem+0x2e>
 8005526:	1e5c      	subs	r4, r3, #1
 8005528:	2c00      	cmp	r4, #0
 800552a:	d100      	bne.n	800552e <memmem+0x22>
 800552c:	bdf0      	pop	{r4, r5, r6, r7, pc}
 800552e:	5d07      	ldrb	r7, [r0, r4]
 8005530:	5d16      	ldrb	r6, [r2, r4]
 8005532:	42b7      	cmp	r7, r6
 8005534:	d101      	bne.n	800553a <memmem+0x2e>
 8005536:	3c01      	subs	r4, #1
 8005538:	e7f6      	b.n	8005528 <memmem+0x1c>
 800553a:	3001      	adds	r0, #1
 800553c:	e7ec      	b.n	8005518 <memmem+0xc>
	...

08005540 <_init>:
 8005540:	b5f8      	push	{r3, r4, r5, r6, r7, lr}
 8005542:	46c0      	nop			; (mov r8, r8)
 8005544:	bcf8      	pop	{r3, r4, r5, r6, r7}
 8005546:	bc08      	pop	{r3}
 8005548:	469e      	mov	lr, r3
 800554a:	4770      	bx	lr

0800554c <_fini>:
 800554c:	b5f8      	push	{r3, r4, r5, r6, r7, lr}
 800554e:	46c0      	nop			; (mov r8, r8)
 8005550:	bcf8      	pop	{r3, r4, r5, r6, r7}
 8005552:	bc08      	pop	{r3}
 8005554:	469e      	mov	lr, r3
 8005556:	4770      	bx	lr
