
Antenna Switch 6x2 New.elf:     file format elf32-littlearm

Sections:
Idx Name          Size      VMA       LMA       File off  Algn
  0 .isr_vector   000000c0  08000000  08000000  00010000  2**0
                  CONTENTS, ALLOC, LOAD, READONLY, DATA
  1 .text         000064b4  080000c0  080000c0  000100c0  2**2
                  CONTENTS, ALLOC, LOAD, READONLY, CODE
  2 .rodata       000002e0  08006574  08006574  00016574  2**2
                  CONTENTS, ALLOC, LOAD, READONLY, DATA
  3 .ARM.extab    00000000  08006854  08006854  000208d8  2**0
                  CONTENTS
  4 .ARM          00000000  08006854  08006854  000208d8  2**0
                  CONTENTS
  5 .preinit_array 00000000  08006854  08006854  000208d8  2**0
                  CONTENTS, ALLOC, LOAD, DATA
  6 .init_array   00000004  08006854  08006854  00016854  2**2
                  CONTENTS, ALLOC, LOAD, DATA
  7 .fini_array   00000004  08006858  08006858  00016858  2**2
                  CONTENTS, ALLOC, LOAD, DATA
  8 .data         000008d8  20000000  0800685c  00020000  2**2
                  CONTENTS, ALLOC, LOAD, DATA
  9 .bss          00001094  200008d8  08007134  000208d8  2**3
                  ALLOC
 10 ._user_heap_stack 00000604  2000196c  08007134  0002196c  2**0
                  ALLOC
 11 .ARM.attributes 00000028  00000000  00000000  000208d8  2**0
                  CONTENTS, READONLY
 12 .comment      0000007b  00000000  00000000  00020900  2**0
                  CONTENTS, READONLY
 13 .debug_frame  00000440  00000000  00000000  0002097c  2**2
                  CONTENTS, READONLY, DEBUGGING

Disassembly of section .text:

080000c0 <__do_global_dtors_aux>:
 80000c0:	b510      	push	{r4, lr}
 80000c2:	4c06      	ldr	r4, [pc, #24]	; (80000dc <__do_global_dtors_aux+0x1c>)
 80000c4:	7823      	ldrb	r3, [r4, #0]
 80000c6:	2b00      	cmp	r3, #0
 80000c8:	d107      	bne.n	80000da <__do_global_dtors_aux+0x1a>
 80000ca:	4b05      	ldr	r3, [pc, #20]	; (80000e0 <__do_global_dtors_aux+0x20>)
 80000cc:	2b00      	cmp	r3, #0
 80000ce:	d002      	beq.n	80000d6 <__do_global_dtors_aux+0x16>
 80000d0:	4804      	ldr	r0, [pc, #16]	; (80000e4 <__do_global_dtors_aux+0x24>)
 80000d2:	e000      	b.n	80000d6 <__do_global_dtors_aux+0x16>
 80000d4:	bf00      	nop
 80000d6:	2301      	movs	r3, #1
 80000d8:	7023      	strb	r3, [r4, #0]
 80000da:	bd10      	pop	{r4, pc}
 80000dc:	200008d8 	.word	0x200008d8
 80000e0:	00000000 	.word	0x00000000
 80000e4:	0800655c 	.word	0x0800655c

080000e8 <frame_dummy>:
 80000e8:	4b04      	ldr	r3, [pc, #16]	; (80000fc <frame_dummy+0x14>)
 80000ea:	b510      	push	{r4, lr}
 80000ec:	2b00      	cmp	r3, #0
 80000ee:	d003      	beq.n	80000f8 <frame_dummy+0x10>
 80000f0:	4903      	ldr	r1, [pc, #12]	; (8000100 <frame_dummy+0x18>)
 80000f2:	4804      	ldr	r0, [pc, #16]	; (8000104 <frame_dummy+0x1c>)
 80000f4:	e000      	b.n	80000f8 <frame_dummy+0x10>
 80000f6:	bf00      	nop
 80000f8:	bd10      	pop	{r4, pc}
 80000fa:	46c0      	nop			; (mov r8, r8)
 80000fc:	00000000 	.word	0x00000000
 8000100:	200008dc 	.word	0x200008dc
 8000104:	0800655c 	.word	0x0800655c

08000108 <strcmp>:
 8000108:	7802      	ldrb	r2, [r0, #0]
 800010a:	780b      	ldrb	r3, [r1, #0]
 800010c:	2a00      	cmp	r2, #0
 800010e:	d003      	beq.n	8000118 <strcmp+0x10>
 8000110:	3001      	adds	r0, #1
 8000112:	3101      	adds	r1, #1
 8000114:	429a      	cmp	r2, r3
 8000116:	d0f7      	beq.n	8000108 <strcmp>
 8000118:	1ad0      	subs	r0, r2, r3
 800011a:	4770      	bx	lr

0800011c <strlen>:
 800011c:	2300      	movs	r3, #0
 800011e:	5cc2      	ldrb	r2, [r0, r3]
 8000120:	3301      	adds	r3, #1
 8000122:	2a00      	cmp	r2, #0
 8000124:	d1fb      	bne.n	800011e <strlen+0x2>
 8000126:	1e58      	subs	r0, r3, #1
 8000128:	4770      	bx	lr
	...

0800012c <__udivsi3>:
 800012c:	2200      	movs	r2, #0
 800012e:	0843      	lsrs	r3, r0, #1
 8000130:	428b      	cmp	r3, r1
 8000132:	d374      	bcc.n	800021e <__udivsi3+0xf2>
 8000134:	0903      	lsrs	r3, r0, #4
 8000136:	428b      	cmp	r3, r1
 8000138:	d35f      	bcc.n	80001fa <__udivsi3+0xce>
 800013a:	0a03      	lsrs	r3, r0, #8
 800013c:	428b      	cmp	r3, r1
 800013e:	d344      	bcc.n	80001ca <__udivsi3+0x9e>
 8000140:	0b03      	lsrs	r3, r0, #12
 8000142:	428b      	cmp	r3, r1
 8000144:	d328      	bcc.n	8000198 <__udivsi3+0x6c>
 8000146:	0c03      	lsrs	r3, r0, #16
 8000148:	428b      	cmp	r3, r1
 800014a:	d30d      	bcc.n	8000168 <__udivsi3+0x3c>
 800014c:	22ff      	movs	r2, #255	; 0xff
 800014e:	0209      	lsls	r1, r1, #8
 8000150:	ba12      	rev	r2, r2
 8000152:	0c03      	lsrs	r3, r0, #16
 8000154:	428b      	cmp	r3, r1
 8000156:	d302      	bcc.n	800015e <__udivsi3+0x32>
 8000158:	1212      	asrs	r2, r2, #8
 800015a:	0209      	lsls	r1, r1, #8
 800015c:	d065      	beq.n	800022a <__udivsi3+0xfe>
 800015e:	0b03      	lsrs	r3, r0, #12
 8000160:	428b      	cmp	r3, r1
 8000162:	d319      	bcc.n	8000198 <__udivsi3+0x6c>
 8000164:	e000      	b.n	8000168 <__udivsi3+0x3c>
 8000166:	0a09      	lsrs	r1, r1, #8
 8000168:	0bc3      	lsrs	r3, r0, #15
 800016a:	428b      	cmp	r3, r1
 800016c:	d301      	bcc.n	8000172 <__udivsi3+0x46>
 800016e:	03cb      	lsls	r3, r1, #15
 8000170:	1ac0      	subs	r0, r0, r3
 8000172:	4152      	adcs	r2, r2
 8000174:	0b83      	lsrs	r3, r0, #14
 8000176:	428b      	cmp	r3, r1
 8000178:	d301      	bcc.n	800017e <__udivsi3+0x52>
 800017a:	038b      	lsls	r3, r1, #14
 800017c:	1ac0      	subs	r0, r0, r3
 800017e:	4152      	adcs	r2, r2
 8000180:	0b43      	lsrs	r3, r0, #13
 8000182:	428b      	cmp	r3, r1
 8000184:	d301      	bcc.n	800018a <__udivsi3+0x5e>
 8000186:	034b      	lsls	r3, r1, #13
 8000188:	1ac0      	subs	r0, r0, r3
 800018a:	4152      	adcs	r2, r2
 800018c:	0b03      	lsrs	r3, r0, #12
 800018e:	428b      	cmp	r3, r1
 8000190:	d301      	bcc.n	8000196 <__udivsi3+0x6a>
 8000192:	030b      	lsls	r3, r1, #12
 8000194:	1ac0      	subs	r0, r0, r3
 8000196:	4152      	adcs	r2, r2
 8000198:	0ac3      	lsrs	r3, r0, #11
 800019a:	428b      	cmp	r3, r1
 800019c:	d301      	bcc.n	80001a2 <__udivsi3+0x76>
 800019e:	02cb      	lsls	r3, r1, #11
 80001a0:	1ac0      	subs	r0, r0, r3
 80001a2:	4152      	adcs	r2, r2
 80001a4:	0a83      	lsrs	r3, r0, #10
 80001a6:	428b      	cmp	r3, r1
 80001a8:	d301      	bcc.n	80001ae <__udivsi3+0x82>
 80001aa:	028b      	lsls	r3, r1, #10
 80001ac:	1ac0      	subs	r0, r0, r3
 80001ae:	4152      	adcs	r2, r2
 80001b0:	0a43      	lsrs	r3, r0, #9
 80001b2:	428b      	cmp	r3, r1
 80001b4:	d301      	bcc.n	80001ba <__udivsi3+0x8e>
 80001b6:	024b      	lsls	r3, r1, #9
 80001b8:	1ac0      	subs	r0, r0, r3
 80001ba:	4152      	adcs	r2, r2
 80001bc:	0a03      	lsrs	r3, r0, #8
 80001be:	428b      	cmp	r3, r1
 80001c0:	d301      	bcc.n	80001c6 <__udivsi3+0x9a>
 80001c2:	020b      	lsls	r3, r1, #8
 80001c4:	1ac0      	subs	r0, r0, r3
 80001c6:	4152      	adcs	r2, r2
 80001c8:	d2cd      	bcs.n	8000166 <__udivsi3+0x3a>
 80001ca:	09c3      	lsrs	r3, r0, #7
 80001cc:	428b      	cmp	r3, r1
 80001ce:	d301      	bcc.n	80001d4 <__udivsi3+0xa8>
 80001d0:	01cb      	lsls	r3, r1, #7
 80001d2:	1ac0      	subs	r0, r0, r3
 80001d4:	4152      	adcs	r2, r2
 80001d6:	0983      	lsrs	r3, r0, #6
 80001d8:	428b      	cmp	r3, r1
 80001da:	d301      	bcc.n	80001e0 <__udivsi3+0xb4>
 80001dc:	018b      	lsls	r3, r1, #6
 80001de:	1ac0      	subs	r0, r0, r3
 80001e0:	4152      	adcs	r2, r2
 80001e2:	0943      	lsrs	r3, r0, #5
 80001e4:	428b      	cmp	r3, r1
 80001e6:	d301      	bcc.n	80001ec <__udivsi3+0xc0>
 80001e8:	014b      	lsls	r3, r1, #5
 80001ea:	1ac0      	subs	r0, r0, r3
 80001ec:	4152      	adcs	r2, r2
 80001ee:	0903      	lsrs	r3, r0, #4
 80001f0:	428b      	cmp	r3, r1
 80001f2:	d301      	bcc.n	80001f8 <__udivsi3+0xcc>
 80001f4:	010b      	lsls	r3, r1, #4
 80001f6:	1ac0      	subs	r0, r0, r3
 80001f8:	4152      	adcs	r2, r2
 80001fa:	08c3      	lsrs	r3, r0, #3
 80001fc:	428b      	cmp	r3, r1
 80001fe:	d301      	bcc.n	8000204 <__udivsi3+0xd8>
 8000200:	00cb      	lsls	r3, r1, #3
 8000202:	1ac0      	subs	r0, r0, r3
 8000204:	4152      	adcs	r2, r2
 8000206:	0883      	lsrs	r3, r0, #2
 8000208:	428b      	cmp	r3, r1
 800020a:	d301      	bcc.n	8000210 <__udivsi3+0xe4>
 800020c:	008b      	lsls	r3, r1, #2
 800020e:	1ac0      	subs	r0, r0, r3
 8000210:	4152      	adcs	r2, r2
 8000212:	0843      	lsrs	r3, r0, #1
 8000214:	428b      	cmp	r3, r1
 8000216:	d301      	bcc.n	800021c <__udivsi3+0xf0>
 8000218:	004b      	lsls	r3, r1, #1
 800021a:	1ac0      	subs	r0, r0, r3
 800021c:	4152      	adcs	r2, r2
 800021e:	1a41      	subs	r1, r0, r1
 8000220:	d200      	bcs.n	8000224 <__udivsi3+0xf8>
 8000222:	4601      	mov	r1, r0
 8000224:	4152      	adcs	r2, r2
 8000226:	4610      	mov	r0, r2
 8000228:	4770      	bx	lr
 800022a:	e7ff      	b.n	800022c <__udivsi3+0x100>
 800022c:	b501      	push	{r0, lr}
 800022e:	2000      	movs	r0, #0
 8000230:	f000 f806 	bl	8000240 <__aeabi_idiv0>
 8000234:	bd02      	pop	{r1, pc}
 8000236:	46c0      	nop			; (mov r8, r8)

08000238 <__aeabi_uidivmod>:
 8000238:	2900      	cmp	r1, #0
 800023a:	d0f7      	beq.n	800022c <__udivsi3+0x100>
 800023c:	e776      	b.n	800012c <__udivsi3>
 800023e:	4770      	bx	lr

08000240 <__aeabi_idiv0>:
 8000240:	4770      	bx	lr
 8000242:	46c0      	nop			; (mov r8, r8)

08000244 <HAL_Init>:
 8000244:	b580      	push	{r7, lr}
 8000246:	af00      	add	r7, sp, #0
 8000248:	4b07      	ldr	r3, [pc, #28]	; (8000268 <HAL_Init+0x24>)
 800024a:	681a      	ldr	r2, [r3, #0]
 800024c:	4b06      	ldr	r3, [pc, #24]	; (8000268 <HAL_Init+0x24>)
 800024e:	2110      	movs	r1, #16
 8000250:	430a      	orrs	r2, r1
 8000252:	601a      	str	r2, [r3, #0]
 8000254:	2000      	movs	r0, #0
 8000256:	f000 f809 	bl	800026c <HAL_InitTick>
 800025a:	f005 fe21 	bl	8005ea0 <HAL_MspInit>
 800025e:	2300      	movs	r3, #0
 8000260:	0018      	movs	r0, r3
 8000262:	46bd      	mov	sp, r7
 8000264:	bd80      	pop	{r7, pc}
 8000266:	46c0      	nop			; (mov r8, r8)
 8000268:	40022000 	.word	0x40022000

0800026c <HAL_InitTick>:
 800026c:	b580      	push	{r7, lr}
 800026e:	b082      	sub	sp, #8
 8000270:	af00      	add	r7, sp, #0
 8000272:	6078      	str	r0, [r7, #4]
 8000274:	f001 f92a 	bl	80014cc <HAL_RCC_GetHCLKFreq>
 8000278:	0002      	movs	r2, r0
 800027a:	23fa      	movs	r3, #250	; 0xfa
 800027c:	0099      	lsls	r1, r3, #2
 800027e:	0010      	movs	r0, r2
 8000280:	f7ff ff54 	bl	800012c <__udivsi3>
 8000284:	0003      	movs	r3, r0
 8000286:	0018      	movs	r0, r3
 8000288:	f000 f8c9 	bl	800041e <HAL_SYSTICK_Config>
 800028c:	6879      	ldr	r1, [r7, #4]
 800028e:	2301      	movs	r3, #1
 8000290:	425b      	negs	r3, r3
 8000292:	2200      	movs	r2, #0
 8000294:	0018      	movs	r0, r3
 8000296:	f000 f8ad 	bl	80003f4 <HAL_NVIC_SetPriority>
 800029a:	2300      	movs	r3, #0
 800029c:	0018      	movs	r0, r3
 800029e:	46bd      	mov	sp, r7
 80002a0:	b002      	add	sp, #8
 80002a2:	bd80      	pop	{r7, pc}

080002a4 <HAL_IncTick>:
 80002a4:	b580      	push	{r7, lr}
 80002a6:	af00      	add	r7, sp, #0
 80002a8:	4b03      	ldr	r3, [pc, #12]	; (80002b8 <HAL_IncTick+0x14>)
 80002aa:	681b      	ldr	r3, [r3, #0]
 80002ac:	1c5a      	adds	r2, r3, #1
 80002ae:	4b02      	ldr	r3, [pc, #8]	; (80002b8 <HAL_IncTick+0x14>)
 80002b0:	601a      	str	r2, [r3, #0]
 80002b2:	46c0      	nop			; (mov r8, r8)
 80002b4:	46bd      	mov	sp, r7
 80002b6:	bd80      	pop	{r7, pc}
 80002b8:	20001540 	.word	0x20001540

080002bc <HAL_GetTick>:
 80002bc:	b580      	push	{r7, lr}
 80002be:	af00      	add	r7, sp, #0
 80002c0:	4b02      	ldr	r3, [pc, #8]	; (80002cc <HAL_GetTick+0x10>)
 80002c2:	681b      	ldr	r3, [r3, #0]
 80002c4:	0018      	movs	r0, r3
 80002c6:	46bd      	mov	sp, r7
 80002c8:	bd80      	pop	{r7, pc}
 80002ca:	46c0      	nop			; (mov r8, r8)
 80002cc:	20001540 	.word	0x20001540

080002d0 <NVIC_SetPriority>:
 80002d0:	b590      	push	{r4, r7, lr}
 80002d2:	b083      	sub	sp, #12
 80002d4:	af00      	add	r7, sp, #0
 80002d6:	0002      	movs	r2, r0
 80002d8:	6039      	str	r1, [r7, #0]
 80002da:	1dfb      	adds	r3, r7, #7
 80002dc:	701a      	strb	r2, [r3, #0]
 80002de:	1dfb      	adds	r3, r7, #7
 80002e0:	781b      	ldrb	r3, [r3, #0]
 80002e2:	2b7f      	cmp	r3, #127	; 0x7f
 80002e4:	d932      	bls.n	800034c <NVIC_SetPriority+0x7c>
 80002e6:	4a2f      	ldr	r2, [pc, #188]	; (80003a4 <NVIC_SetPriority+0xd4>)
 80002e8:	1dfb      	adds	r3, r7, #7
 80002ea:	781b      	ldrb	r3, [r3, #0]
 80002ec:	0019      	movs	r1, r3
 80002ee:	230f      	movs	r3, #15
 80002f0:	400b      	ands	r3, r1
 80002f2:	3b08      	subs	r3, #8
 80002f4:	089b      	lsrs	r3, r3, #2
 80002f6:	3306      	adds	r3, #6
 80002f8:	009b      	lsls	r3, r3, #2
 80002fa:	18d3      	adds	r3, r2, r3
 80002fc:	3304      	adds	r3, #4
 80002fe:	681b      	ldr	r3, [r3, #0]
 8000300:	1dfa      	adds	r2, r7, #7
 8000302:	7812      	ldrb	r2, [r2, #0]
 8000304:	0011      	movs	r1, r2
 8000306:	2203      	movs	r2, #3
 8000308:	400a      	ands	r2, r1
 800030a:	00d2      	lsls	r2, r2, #3
 800030c:	21ff      	movs	r1, #255	; 0xff
 800030e:	4091      	lsls	r1, r2
 8000310:	000a      	movs	r2, r1
 8000312:	43d2      	mvns	r2, r2
 8000314:	401a      	ands	r2, r3
 8000316:	0011      	movs	r1, r2
 8000318:	683b      	ldr	r3, [r7, #0]
 800031a:	019b      	lsls	r3, r3, #6
 800031c:	22ff      	movs	r2, #255	; 0xff
 800031e:	401a      	ands	r2, r3
 8000320:	1dfb      	adds	r3, r7, #7
 8000322:	781b      	ldrb	r3, [r3, #0]
 8000324:	0018      	movs	r0, r3
 8000326:	2303      	movs	r3, #3
 8000328:	4003      	ands	r3, r0
 800032a:	00db      	lsls	r3, r3, #3
 800032c:	409a      	lsls	r2, r3
 800032e:	481d      	ldr	r0, [pc, #116]	; (80003a4 <NVIC_SetPriority+0xd4>)
 8000330:	1dfb      	adds	r3, r7, #7
 8000332:	781b      	ldrb	r3, [r3, #0]
 8000334:	001c      	movs	r4, r3
 8000336:	230f      	movs	r3, #15
 8000338:	4023      	ands	r3, r4
 800033a:	3b08      	subs	r3, #8
 800033c:	089b      	lsrs	r3, r3, #2
 800033e:	430a      	orrs	r2, r1
 8000340:	3306      	adds	r3, #6
 8000342:	009b      	lsls	r3, r3, #2
 8000344:	18c3      	adds	r3, r0, r3
 8000346:	3304      	adds	r3, #4
 8000348:	601a      	str	r2, [r3, #0]
 800034a:	e027      	b.n	800039c <NVIC_SetPriority+0xcc>
 800034c:	4a16      	ldr	r2, [pc, #88]	; (80003a8 <NVIC_SetPriority+0xd8>)
 800034e:	1dfb      	adds	r3, r7, #7
 8000350:	781b      	ldrb	r3, [r3, #0]
 8000352:	b25b      	sxtb	r3, r3
 8000354:	089b      	lsrs	r3, r3, #2
 8000356:	33c0      	adds	r3, #192	; 0xc0
 8000358:	009b      	lsls	r3, r3, #2
 800035a:	589b      	ldr	r3, [r3, r2]
 800035c:	1dfa      	adds	r2, r7, #7
 800035e:	7812      	ldrb	r2, [r2, #0]
 8000360:	0011      	movs	r1, r2
 8000362:	2203      	movs	r2, #3
 8000364:	400a      	ands	r2, r1
 8000366:	00d2      	lsls	r2, r2, #3
 8000368:	21ff      	movs	r1, #255	; 0xff
 800036a:	4091      	lsls	r1, r2
 800036c:	000a      	movs	r2, r1
 800036e:	43d2      	mvns	r2, r2
 8000370:	401a      	ands	r2, r3
 8000372:	0011      	movs	r1, r2
 8000374:	683b      	ldr	r3, [r7, #0]
 8000376:	019b      	lsls	r3, r3, #6
 8000378:	22ff      	movs	r2, #255	; 0xff
 800037a:	401a      	ands	r2, r3
 800037c:	1dfb      	adds	r3, r7, #7
 800037e:	781b      	ldrb	r3, [r3, #0]
 8000380:	0018      	movs	r0, r3
 8000382:	2303      	movs	r3, #3
 8000384:	4003      	ands	r3, r0
 8000386:	00db      	lsls	r3, r3, #3
 8000388:	409a      	lsls	r2, r3
 800038a:	4807      	ldr	r0, [pc, #28]	; (80003a8 <NVIC_SetPriority+0xd8>)
 800038c:	1dfb      	adds	r3, r7, #7
 800038e:	781b      	ldrb	r3, [r3, #0]
 8000390:	b25b      	sxtb	r3, r3
 8000392:	089b      	lsrs	r3, r3, #2
 8000394:	430a      	orrs	r2, r1
 8000396:	33c0      	adds	r3, #192	; 0xc0
 8000398:	009b      	lsls	r3, r3, #2
 800039a:	501a      	str	r2, [r3, r0]
 800039c:	46c0      	nop			; (mov r8, r8)
 800039e:	46bd      	mov	sp, r7
 80003a0:	b003      	add	sp, #12
 80003a2:	bd90      	pop	{r4, r7, pc}
 80003a4:	e000ed00 	.word	0xe000ed00
 80003a8:	e000e100 	.word	0xe000e100

080003ac <SysTick_Config>:
 80003ac:	b580      	push	{r7, lr}
 80003ae:	b082      	sub	sp, #8
 80003b0:	af00      	add	r7, sp, #0
 80003b2:	6078      	str	r0, [r7, #4]
 80003b4:	687b      	ldr	r3, [r7, #4]
 80003b6:	3b01      	subs	r3, #1
 80003b8:	4a0c      	ldr	r2, [pc, #48]	; (80003ec <SysTick_Config+0x40>)
 80003ba:	4293      	cmp	r3, r2
 80003bc:	d901      	bls.n	80003c2 <SysTick_Config+0x16>
 80003be:	2301      	movs	r3, #1
 80003c0:	e010      	b.n	80003e4 <SysTick_Config+0x38>
 80003c2:	4b0b      	ldr	r3, [pc, #44]	; (80003f0 <SysTick_Config+0x44>)
 80003c4:	687a      	ldr	r2, [r7, #4]
 80003c6:	3a01      	subs	r2, #1
 80003c8:	605a      	str	r2, [r3, #4]
 80003ca:	2301      	movs	r3, #1
 80003cc:	425b      	negs	r3, r3
 80003ce:	2103      	movs	r1, #3
 80003d0:	0018      	movs	r0, r3
 80003d2:	f7ff ff7d 	bl	80002d0 <NVIC_SetPriority>
 80003d6:	4b06      	ldr	r3, [pc, #24]	; (80003f0 <SysTick_Config+0x44>)
 80003d8:	2200      	movs	r2, #0
 80003da:	609a      	str	r2, [r3, #8]
 80003dc:	4b04      	ldr	r3, [pc, #16]	; (80003f0 <SysTick_Config+0x44>)
 80003de:	2207      	movs	r2, #7
 80003e0:	601a      	str	r2, [r3, #0]
 80003e2:	2300      	movs	r3, #0
 80003e4:	0018      	movs	r0, r3
 80003e6:	46bd      	mov	sp, r7
 80003e8:	b002      	add	sp, #8
 80003ea:	bd80      	pop	{r7, pc}
 80003ec:	00ffffff 	.word	0x00ffffff
 80003f0:	e000e010 	.word	0xe000e010

080003f4 <HAL_NVIC_SetPriority>:
 80003f4:	b580      	push	{r7, lr}
 80003f6:	b084      	sub	sp, #16
 80003f8:	af00      	add	r7, sp, #0
 80003fa:	60b9      	str	r1, [r7, #8]
 80003fc:	607a      	str	r2, [r7, #4]
 80003fe:	210f      	movs	r1, #15
 8000400:	187b      	adds	r3, r7, r1
 8000402:	1c02      	adds	r2, r0, #0
 8000404:	701a      	strb	r2, [r3, #0]
 8000406:	68ba      	ldr	r2, [r7, #8]
 8000408:	187b      	adds	r3, r7, r1
 800040a:	781b      	ldrb	r3, [r3, #0]
 800040c:	b25b      	sxtb	r3, r3
 800040e:	0011      	movs	r1, r2
 8000410:	0018      	movs	r0, r3
 8000412:	f7ff ff5d 	bl	80002d0 <NVIC_SetPriority>
 8000416:	46c0      	nop			; (mov r8, r8)
 8000418:	46bd      	mov	sp, r7
 800041a:	b004      	add	sp, #16
 800041c:	bd80      	pop	{r7, pc}

0800041e <HAL_SYSTICK_Config>:
 800041e:	b580      	push	{r7, lr}
 8000420:	b082      	sub	sp, #8
 8000422:	af00      	add	r7, sp, #0
 8000424:	6078      	str	r0, [r7, #4]
 8000426:	687b      	ldr	r3, [r7, #4]
 8000428:	0018      	movs	r0, r3
 800042a:	f7ff ffbf 	bl	80003ac <SysTick_Config>
 800042e:	0003      	movs	r3, r0
 8000430:	0018      	movs	r0, r3
 8000432:	46bd      	mov	sp, r7
 8000434:	b002      	add	sp, #8
 8000436:	bd80      	pop	{r7, pc}

08000438 <HAL_FLASH_Program>:
 8000438:	b5f0      	push	{r4, r5, r6, r7, lr}
 800043a:	b087      	sub	sp, #28
 800043c:	af00      	add	r7, sp, #0
 800043e:	60f8      	str	r0, [r7, #12]
 8000440:	60b9      	str	r1, [r7, #8]
 8000442:	603a      	str	r2, [r7, #0]
 8000444:	607b      	str	r3, [r7, #4]
 8000446:	2317      	movs	r3, #23
 8000448:	18fb      	adds	r3, r7, r3
 800044a:	2201      	movs	r2, #1
 800044c:	701a      	strb	r2, [r3, #0]
 800044e:	2316      	movs	r3, #22
 8000450:	18fb      	adds	r3, r7, r3
 8000452:	2200      	movs	r2, #0
 8000454:	701a      	strb	r2, [r3, #0]
 8000456:	2315      	movs	r3, #21
 8000458:	18fb      	adds	r3, r7, r3
 800045a:	2200      	movs	r2, #0
 800045c:	701a      	strb	r2, [r3, #0]
 800045e:	4b3e      	ldr	r3, [pc, #248]	; (8000558 <HAL_FLASH_Program+0x120>)
 8000460:	7e1b      	ldrb	r3, [r3, #24]
 8000462:	2b01      	cmp	r3, #1
 8000464:	d101      	bne.n	800046a <HAL_FLASH_Program+0x32>
 8000466:	2302      	movs	r3, #2
 8000468:	e072      	b.n	8000550 <HAL_FLASH_Program+0x118>
 800046a:	4b3b      	ldr	r3, [pc, #236]	; (8000558 <HAL_FLASH_Program+0x120>)
 800046c:	2201      	movs	r2, #1
 800046e:	761a      	strb	r2, [r3, #24]
 8000470:	2317      	movs	r3, #23
 8000472:	18fe      	adds	r6, r7, r3
 8000474:	4b39      	ldr	r3, [pc, #228]	; (800055c <HAL_FLASH_Program+0x124>)
 8000476:	0018      	movs	r0, r3
 8000478:	f000 f8c4 	bl	8000604 <FLASH_WaitForLastOperation>
 800047c:	0003      	movs	r3, r0
 800047e:	7033      	strb	r3, [r6, #0]
 8000480:	2317      	movs	r3, #23
 8000482:	18fb      	adds	r3, r7, r3
 8000484:	781b      	ldrb	r3, [r3, #0]
 8000486:	2b00      	cmp	r3, #0
 8000488:	d15c      	bne.n	8000544 <HAL_FLASH_Program+0x10c>
 800048a:	68fb      	ldr	r3, [r7, #12]
 800048c:	2b01      	cmp	r3, #1
 800048e:	d104      	bne.n	800049a <HAL_FLASH_Program+0x62>
 8000490:	2315      	movs	r3, #21
 8000492:	18fb      	adds	r3, r7, r3
 8000494:	2201      	movs	r2, #1
 8000496:	701a      	strb	r2, [r3, #0]
 8000498:	e00b      	b.n	80004b2 <HAL_FLASH_Program+0x7a>
 800049a:	68fb      	ldr	r3, [r7, #12]
 800049c:	2b02      	cmp	r3, #2
 800049e:	d104      	bne.n	80004aa <HAL_FLASH_Program+0x72>
 80004a0:	2315      	movs	r3, #21
 80004a2:	18fb      	adds	r3, r7, r3
 80004a4:	2202      	movs	r2, #2
 80004a6:	701a      	strb	r2, [r3, #0]
 80004a8:	e003      	b.n	80004b2 <HAL_FLASH_Program+0x7a>
 80004aa:	2315      	movs	r3, #21
 80004ac:	18fb      	adds	r3, r7, r3
 80004ae:	2204      	movs	r2, #4
 80004b0:	701a      	strb	r2, [r3, #0]
 80004b2:	2316      	movs	r3, #22
 80004b4:	18fb      	adds	r3, r7, r3
 80004b6:	2200      	movs	r2, #0
 80004b8:	701a      	strb	r2, [r3, #0]
 80004ba:	e039      	b.n	8000530 <HAL_FLASH_Program+0xf8>
 80004bc:	2116      	movs	r1, #22
 80004be:	187b      	adds	r3, r7, r1
 80004c0:	781b      	ldrb	r3, [r3, #0]
 80004c2:	005a      	lsls	r2, r3, #1
 80004c4:	68bb      	ldr	r3, [r7, #8]
 80004c6:	18d0      	adds	r0, r2, r3
 80004c8:	187b      	adds	r3, r7, r1
 80004ca:	781b      	ldrb	r3, [r3, #0]
 80004cc:	011b      	lsls	r3, r3, #4
 80004ce:	001a      	movs	r2, r3
 80004d0:	3a20      	subs	r2, #32
 80004d2:	2a00      	cmp	r2, #0
 80004d4:	db03      	blt.n	80004de <HAL_FLASH_Program+0xa6>
 80004d6:	6879      	ldr	r1, [r7, #4]
 80004d8:	40d1      	lsrs	r1, r2
 80004da:	000c      	movs	r4, r1
 80004dc:	e008      	b.n	80004f0 <HAL_FLASH_Program+0xb8>
 80004de:	2220      	movs	r2, #32
 80004e0:	1ad2      	subs	r2, r2, r3
 80004e2:	6879      	ldr	r1, [r7, #4]
 80004e4:	4091      	lsls	r1, r2
 80004e6:	000a      	movs	r2, r1
 80004e8:	6839      	ldr	r1, [r7, #0]
 80004ea:	40d9      	lsrs	r1, r3
 80004ec:	000c      	movs	r4, r1
 80004ee:	4314      	orrs	r4, r2
 80004f0:	687a      	ldr	r2, [r7, #4]
 80004f2:	40da      	lsrs	r2, r3
 80004f4:	0015      	movs	r5, r2
 80004f6:	b2a3      	uxth	r3, r4
 80004f8:	0019      	movs	r1, r3
 80004fa:	f000 f867 	bl	80005cc <FLASH_Program_HalfWord>
 80004fe:	2317      	movs	r3, #23
 8000500:	18fe      	adds	r6, r7, r3
 8000502:	4b16      	ldr	r3, [pc, #88]	; (800055c <HAL_FLASH_Program+0x124>)
 8000504:	0018      	movs	r0, r3
 8000506:	f000 f87d 	bl	8000604 <FLASH_WaitForLastOperation>
 800050a:	0003      	movs	r3, r0
 800050c:	7033      	strb	r3, [r6, #0]
 800050e:	4b14      	ldr	r3, [pc, #80]	; (8000560 <HAL_FLASH_Program+0x128>)
 8000510:	691a      	ldr	r2, [r3, #16]
 8000512:	4b13      	ldr	r3, [pc, #76]	; (8000560 <HAL_FLASH_Program+0x128>)
 8000514:	2101      	movs	r1, #1
 8000516:	438a      	bics	r2, r1
 8000518:	611a      	str	r2, [r3, #16]
 800051a:	2317      	movs	r3, #23
 800051c:	18fb      	adds	r3, r7, r3
 800051e:	781b      	ldrb	r3, [r3, #0]
 8000520:	2b00      	cmp	r3, #0
 8000522:	d10e      	bne.n	8000542 <HAL_FLASH_Program+0x10a>
 8000524:	2116      	movs	r1, #22
 8000526:	187b      	adds	r3, r7, r1
 8000528:	781a      	ldrb	r2, [r3, #0]
 800052a:	187b      	adds	r3, r7, r1
 800052c:	3201      	adds	r2, #1
 800052e:	701a      	strb	r2, [r3, #0]
 8000530:	2316      	movs	r3, #22
 8000532:	18fa      	adds	r2, r7, r3
 8000534:	2315      	movs	r3, #21
 8000536:	18fb      	adds	r3, r7, r3
 8000538:	7812      	ldrb	r2, [r2, #0]
 800053a:	781b      	ldrb	r3, [r3, #0]
 800053c:	429a      	cmp	r2, r3
 800053e:	d3bd      	bcc.n	80004bc <HAL_FLASH_Program+0x84>
 8000540:	e000      	b.n	8000544 <HAL_FLASH_Program+0x10c>
 8000542:	46c0      	nop			; (mov r8, r8)
 8000544:	4b04      	ldr	r3, [pc, #16]	; (8000558 <HAL_FLASH_Program+0x120>)
 8000546:	2200      	movs	r2, #0
 8000548:	761a      	strb	r2, [r3, #24]
 800054a:	2317      	movs	r3, #23
 800054c:	18fb      	adds	r3, r7, r3
 800054e:	781b      	ldrb	r3, [r3, #0]
 8000550:	0018      	movs	r0, r3
 8000552:	46bd      	mov	sp, r7
 8000554:	b007      	add	sp, #28
 8000556:	bdf0      	pop	{r4, r5, r6, r7, pc}
 8000558:	20001548 	.word	0x20001548
 800055c:	0000c350 	.word	0x0000c350
 8000560:	40022000 	.word	0x40022000

08000564 <HAL_FLASH_Unlock>:
 8000564:	b580      	push	{r7, lr}
 8000566:	b082      	sub	sp, #8
 8000568:	af00      	add	r7, sp, #0
 800056a:	1dfb      	adds	r3, r7, #7
 800056c:	2200      	movs	r2, #0
 800056e:	701a      	strb	r2, [r3, #0]
 8000570:	4b0c      	ldr	r3, [pc, #48]	; (80005a4 <HAL_FLASH_Unlock+0x40>)
 8000572:	691b      	ldr	r3, [r3, #16]
 8000574:	2280      	movs	r2, #128	; 0x80
 8000576:	4013      	ands	r3, r2
 8000578:	d00d      	beq.n	8000596 <HAL_FLASH_Unlock+0x32>
 800057a:	4b0a      	ldr	r3, [pc, #40]	; (80005a4 <HAL_FLASH_Unlock+0x40>)
 800057c:	4a0a      	ldr	r2, [pc, #40]	; (80005a8 <HAL_FLASH_Unlock+0x44>)
 800057e:	605a      	str	r2, [r3, #4]
 8000580:	4b08      	ldr	r3, [pc, #32]	; (80005a4 <HAL_FLASH_Unlock+0x40>)
 8000582:	4a0a      	ldr	r2, [pc, #40]	; (80005ac <HAL_FLASH_Unlock+0x48>)
 8000584:	605a      	str	r2, [r3, #4]
 8000586:	4b07      	ldr	r3, [pc, #28]	; (80005a4 <HAL_FLASH_Unlock+0x40>)
 8000588:	691b      	ldr	r3, [r3, #16]
 800058a:	2280      	movs	r2, #128	; 0x80
 800058c:	4013      	ands	r3, r2
 800058e:	d002      	beq.n	8000596 <HAL_FLASH_Unlock+0x32>
 8000590:	1dfb      	adds	r3, r7, #7
 8000592:	2201      	movs	r2, #1
 8000594:	701a      	strb	r2, [r3, #0]
 8000596:	1dfb      	adds	r3, r7, #7
 8000598:	781b      	ldrb	r3, [r3, #0]
 800059a:	0018      	movs	r0, r3
 800059c:	46bd      	mov	sp, r7
 800059e:	b002      	add	sp, #8
 80005a0:	bd80      	pop	{r7, pc}
 80005a2:	46c0      	nop			; (mov r8, r8)
 80005a4:	40022000 	.word	0x40022000
 80005a8:	45670123 	.word	0x45670123
 80005ac:	cdef89ab 	.word	0xcdef89ab

080005b0 <HAL_FLASH_Lock>:
 80005b0:	b580      	push	{r7, lr}
 80005b2:	af00      	add	r7, sp, #0
 80005b4:	4b04      	ldr	r3, [pc, #16]	; (80005c8 <HAL_FLASH_Lock+0x18>)
 80005b6:	691a      	ldr	r2, [r3, #16]
 80005b8:	4b03      	ldr	r3, [pc, #12]	; (80005c8 <HAL_FLASH_Lock+0x18>)
 80005ba:	2180      	movs	r1, #128	; 0x80
 80005bc:	430a      	orrs	r2, r1
 80005be:	611a      	str	r2, [r3, #16]
 80005c0:	2300      	movs	r3, #0
 80005c2:	0018      	movs	r0, r3
 80005c4:	46bd      	mov	sp, r7
 80005c6:	bd80      	pop	{r7, pc}
 80005c8:	40022000 	.word	0x40022000

080005cc <FLASH_Program_HalfWord>:
 80005cc:	b580      	push	{r7, lr}
 80005ce:	b082      	sub	sp, #8
 80005d0:	af00      	add	r7, sp, #0
 80005d2:	6078      	str	r0, [r7, #4]
 80005d4:	000a      	movs	r2, r1
 80005d6:	1cbb      	adds	r3, r7, #2
 80005d8:	801a      	strh	r2, [r3, #0]
 80005da:	4b08      	ldr	r3, [pc, #32]	; (80005fc <FLASH_Program_HalfWord+0x30>)
 80005dc:	2200      	movs	r2, #0
 80005de:	61da      	str	r2, [r3, #28]
 80005e0:	4b07      	ldr	r3, [pc, #28]	; (8000600 <FLASH_Program_HalfWord+0x34>)
 80005e2:	691a      	ldr	r2, [r3, #16]
 80005e4:	4b06      	ldr	r3, [pc, #24]	; (8000600 <FLASH_Program_HalfWord+0x34>)
 80005e6:	2101      	movs	r1, #1
 80005e8:	430a      	orrs	r2, r1
 80005ea:	611a      	str	r2, [r3, #16]
 80005ec:	687b      	ldr	r3, [r7, #4]
 80005ee:	1cba      	adds	r2, r7, #2
 80005f0:	8812      	ldrh	r2, [r2, #0]
 80005f2:	801a      	strh	r2, [r3, #0]
 80005f4:	46c0      	nop			; (mov r8, r8)
 80005f6:	46bd      	mov	sp, r7
 80005f8:	b002      	add	sp, #8
 80005fa:	bd80      	pop	{r7, pc}
 80005fc:	20001548 	.word	0x20001548
 8000600:	40022000 	.word	0x40022000

08000604 <FLASH_WaitForLastOperation>:
 8000604:	b580      	push	{r7, lr}
 8000606:	b084      	sub	sp, #16
 8000608:	af00      	add	r7, sp, #0
 800060a:	6078      	str	r0, [r7, #4]
 800060c:	f7ff fe56 	bl	80002bc <HAL_GetTick>
 8000610:	0003      	movs	r3, r0
 8000612:	60fb      	str	r3, [r7, #12]
 8000614:	e00f      	b.n	8000636 <FLASH_WaitForLastOperation+0x32>
 8000616:	687b      	ldr	r3, [r7, #4]
 8000618:	3301      	adds	r3, #1
 800061a:	d00c      	beq.n	8000636 <FLASH_WaitForLastOperation+0x32>
 800061c:	687b      	ldr	r3, [r7, #4]
 800061e:	2b00      	cmp	r3, #0
 8000620:	d007      	beq.n	8000632 <FLASH_WaitForLastOperation+0x2e>
 8000622:	f7ff fe4b 	bl	80002bc <HAL_GetTick>
 8000626:	0002      	movs	r2, r0
 8000628:	68fb      	ldr	r3, [r7, #12]
 800062a:	1ad3      	subs	r3, r2, r3
 800062c:	687a      	ldr	r2, [r7, #4]
 800062e:	429a      	cmp	r2, r3
 8000630:	d201      	bcs.n	8000636 <FLASH_WaitForLastOperation+0x32>
 8000632:	2303      	movs	r3, #3
 8000634:	e01f      	b.n	8000676 <FLASH_WaitForLastOperation+0x72>
 8000636:	4b12      	ldr	r3, [pc, #72]	; (8000680 <FLASH_WaitForLastOperation+0x7c>)
 8000638:	68db      	ldr	r3, [r3, #12]
 800063a:	2201      	movs	r2, #1
 800063c:	4013      	ands	r3, r2
 800063e:	2b01      	cmp	r3, #1
 8000640:	d0e9      	beq.n	8000616 <FLASH_WaitForLastOperation+0x12>
 8000642:	4b0f      	ldr	r3, [pc, #60]	; (8000680 <FLASH_WaitForLastOperation+0x7c>)
 8000644:	68db      	ldr	r3, [r3, #12]
 8000646:	2220      	movs	r2, #32
 8000648:	4013      	ands	r3, r2
 800064a:	2b20      	cmp	r3, #32
 800064c:	d102      	bne.n	8000654 <FLASH_WaitForLastOperation+0x50>
 800064e:	4b0c      	ldr	r3, [pc, #48]	; (8000680 <FLASH_WaitForLastOperation+0x7c>)
 8000650:	2220      	movs	r2, #32
 8000652:	60da      	str	r2, [r3, #12]
 8000654:	4b0a      	ldr	r3, [pc, #40]	; (8000680 <FLASH_WaitForLastOperation+0x7c>)
 8000656:	68db      	ldr	r3, [r3, #12]
 8000658:	2210      	movs	r2, #16
 800065a:	4013      	ands	r3, r2
 800065c:	2b10      	cmp	r3, #16
 800065e:	d005      	beq.n	800066c <FLASH_WaitForLastOperation+0x68>
 8000660:	4b07      	ldr	r3, [pc, #28]	; (8000680 <FLASH_WaitForLastOperation+0x7c>)
 8000662:	68db      	ldr	r3, [r3, #12]
 8000664:	2204      	movs	r2, #4
 8000666:	4013      	ands	r3, r2
 8000668:	2b04      	cmp	r3, #4
 800066a:	d103      	bne.n	8000674 <FLASH_WaitForLastOperation+0x70>
 800066c:	f000 f80a 	bl	8000684 <FLASH_SetErrorCode>
 8000670:	2301      	movs	r3, #1
 8000672:	e000      	b.n	8000676 <FLASH_WaitForLastOperation+0x72>
 8000674:	2300      	movs	r3, #0
 8000676:	0018      	movs	r0, r3
 8000678:	46bd      	mov	sp, r7
 800067a:	b004      	add	sp, #16
 800067c:	bd80      	pop	{r7, pc}
 800067e:	46c0      	nop			; (mov r8, r8)
 8000680:	40022000 	.word	0x40022000

08000684 <FLASH_SetErrorCode>:
 8000684:	b580      	push	{r7, lr}
 8000686:	b082      	sub	sp, #8
 8000688:	af00      	add	r7, sp, #0
 800068a:	2300      	movs	r3, #0
 800068c:	607b      	str	r3, [r7, #4]
 800068e:	4b13      	ldr	r3, [pc, #76]	; (80006dc <FLASH_SetErrorCode+0x58>)
 8000690:	68db      	ldr	r3, [r3, #12]
 8000692:	2210      	movs	r2, #16
 8000694:	4013      	ands	r3, r2
 8000696:	2b10      	cmp	r3, #16
 8000698:	d109      	bne.n	80006ae <FLASH_SetErrorCode+0x2a>
 800069a:	4b11      	ldr	r3, [pc, #68]	; (80006e0 <FLASH_SetErrorCode+0x5c>)
 800069c:	69db      	ldr	r3, [r3, #28]
 800069e:	2202      	movs	r2, #2
 80006a0:	431a      	orrs	r2, r3
 80006a2:	4b0f      	ldr	r3, [pc, #60]	; (80006e0 <FLASH_SetErrorCode+0x5c>)
 80006a4:	61da      	str	r2, [r3, #28]
 80006a6:	687b      	ldr	r3, [r7, #4]
 80006a8:	2210      	movs	r2, #16
 80006aa:	4313      	orrs	r3, r2
 80006ac:	607b      	str	r3, [r7, #4]
 80006ae:	4b0b      	ldr	r3, [pc, #44]	; (80006dc <FLASH_SetErrorCode+0x58>)
 80006b0:	68db      	ldr	r3, [r3, #12]
 80006b2:	2204      	movs	r2, #4
 80006b4:	4013      	ands	r3, r2
 80006b6:	2b04      	cmp	r3, #4
 80006b8:	d109      	bne.n	80006ce <FLASH_SetErrorCode+0x4a>
 80006ba:	4b09      	ldr	r3, [pc, #36]	; (80006e0 <FLASH_SetErrorCode+0x5c>)
 80006bc:	69db      	ldr	r3, [r3, #28]
 80006be:	2201      	movs	r2, #1
 80006c0:	431a      	orrs	r2, r3
 80006c2:	4b07      	ldr	r3, [pc, #28]	; (80006e0 <FLASH_SetErrorCode+0x5c>)
 80006c4:	61da      	str	r2, [r3, #28]
 80006c6:	687b      	ldr	r3, [r7, #4]
 80006c8:	2204      	movs	r2, #4
 80006ca:	4313      	orrs	r3, r2
 80006cc:	607b      	str	r3, [r7, #4]
 80006ce:	4b03      	ldr	r3, [pc, #12]	; (80006dc <FLASH_SetErrorCode+0x58>)
 80006d0:	687a      	ldr	r2, [r7, #4]
 80006d2:	60da      	str	r2, [r3, #12]
 80006d4:	46c0      	nop			; (mov r8, r8)
 80006d6:	46bd      	mov	sp, r7
 80006d8:	b002      	add	sp, #8
 80006da:	bd80      	pop	{r7, pc}
 80006dc:	40022000 	.word	0x40022000
 80006e0:	20001548 	.word	0x20001548

080006e4 <HAL_FLASHEx_Erase>:
 80006e4:	b5b0      	push	{r4, r5, r7, lr}
 80006e6:	b084      	sub	sp, #16
 80006e8:	af00      	add	r7, sp, #0
 80006ea:	6078      	str	r0, [r7, #4]
 80006ec:	6039      	str	r1, [r7, #0]
 80006ee:	230f      	movs	r3, #15
 80006f0:	18fb      	adds	r3, r7, r3
 80006f2:	2201      	movs	r2, #1
 80006f4:	701a      	strb	r2, [r3, #0]
 80006f6:	2300      	movs	r3, #0
 80006f8:	60bb      	str	r3, [r7, #8]
 80006fa:	4b32      	ldr	r3, [pc, #200]	; (80007c4 <HAL_FLASHEx_Erase+0xe0>)
 80006fc:	7e1b      	ldrb	r3, [r3, #24]
 80006fe:	2b01      	cmp	r3, #1
 8000700:	d101      	bne.n	8000706 <HAL_FLASHEx_Erase+0x22>
 8000702:	2302      	movs	r3, #2
 8000704:	e05a      	b.n	80007bc <HAL_FLASHEx_Erase+0xd8>
 8000706:	4b2f      	ldr	r3, [pc, #188]	; (80007c4 <HAL_FLASHEx_Erase+0xe0>)
 8000708:	2201      	movs	r2, #1
 800070a:	761a      	strb	r2, [r3, #24]
 800070c:	687b      	ldr	r3, [r7, #4]
 800070e:	681b      	ldr	r3, [r3, #0]
 8000710:	2b01      	cmp	r3, #1
 8000712:	d116      	bne.n	8000742 <HAL_FLASHEx_Erase+0x5e>
 8000714:	4b2c      	ldr	r3, [pc, #176]	; (80007c8 <HAL_FLASHEx_Erase+0xe4>)
 8000716:	0018      	movs	r0, r3
 8000718:	f7ff ff74 	bl	8000604 <FLASH_WaitForLastOperation>
 800071c:	1e03      	subs	r3, r0, #0
 800071e:	d147      	bne.n	80007b0 <HAL_FLASHEx_Erase+0xcc>
 8000720:	f000 f856 	bl	80007d0 <FLASH_MassErase>
 8000724:	230f      	movs	r3, #15
 8000726:	18fc      	adds	r4, r7, r3
 8000728:	4b27      	ldr	r3, [pc, #156]	; (80007c8 <HAL_FLASHEx_Erase+0xe4>)
 800072a:	0018      	movs	r0, r3
 800072c:	f7ff ff6a 	bl	8000604 <FLASH_WaitForLastOperation>
 8000730:	0003      	movs	r3, r0
 8000732:	7023      	strb	r3, [r4, #0]
 8000734:	4b25      	ldr	r3, [pc, #148]	; (80007cc <HAL_FLASHEx_Erase+0xe8>)
 8000736:	691a      	ldr	r2, [r3, #16]
 8000738:	4b24      	ldr	r3, [pc, #144]	; (80007cc <HAL_FLASHEx_Erase+0xe8>)
 800073a:	2104      	movs	r1, #4
 800073c:	438a      	bics	r2, r1
 800073e:	611a      	str	r2, [r3, #16]
 8000740:	e036      	b.n	80007b0 <HAL_FLASHEx_Erase+0xcc>
 8000742:	4b21      	ldr	r3, [pc, #132]	; (80007c8 <HAL_FLASHEx_Erase+0xe4>)
 8000744:	0018      	movs	r0, r3
 8000746:	f7ff ff5d 	bl	8000604 <FLASH_WaitForLastOperation>
 800074a:	1e03      	subs	r3, r0, #0
 800074c:	d130      	bne.n	80007b0 <HAL_FLASHEx_Erase+0xcc>
 800074e:	683b      	ldr	r3, [r7, #0]
 8000750:	2201      	movs	r2, #1
 8000752:	4252      	negs	r2, r2
 8000754:	601a      	str	r2, [r3, #0]
 8000756:	687b      	ldr	r3, [r7, #4]
 8000758:	685b      	ldr	r3, [r3, #4]
 800075a:	60bb      	str	r3, [r7, #8]
 800075c:	e01f      	b.n	800079e <HAL_FLASHEx_Erase+0xba>
 800075e:	68bb      	ldr	r3, [r7, #8]
 8000760:	0018      	movs	r0, r3
 8000762:	f000 f84d 	bl	8000800 <FLASH_PageErase>
 8000766:	250f      	movs	r5, #15
 8000768:	197c      	adds	r4, r7, r5
 800076a:	4b17      	ldr	r3, [pc, #92]	; (80007c8 <HAL_FLASHEx_Erase+0xe4>)
 800076c:	0018      	movs	r0, r3
 800076e:	f7ff ff49 	bl	8000604 <FLASH_WaitForLastOperation>
 8000772:	0003      	movs	r3, r0
 8000774:	7023      	strb	r3, [r4, #0]
 8000776:	4b15      	ldr	r3, [pc, #84]	; (80007cc <HAL_FLASHEx_Erase+0xe8>)
 8000778:	691a      	ldr	r2, [r3, #16]
 800077a:	4b14      	ldr	r3, [pc, #80]	; (80007cc <HAL_FLASHEx_Erase+0xe8>)
 800077c:	2102      	movs	r1, #2
 800077e:	438a      	bics	r2, r1
 8000780:	611a      	str	r2, [r3, #16]
 8000782:	197b      	adds	r3, r7, r5
 8000784:	781b      	ldrb	r3, [r3, #0]
 8000786:	2b00      	cmp	r3, #0
 8000788:	d003      	beq.n	8000792 <HAL_FLASHEx_Erase+0xae>
 800078a:	683b      	ldr	r3, [r7, #0]
 800078c:	68ba      	ldr	r2, [r7, #8]
 800078e:	601a      	str	r2, [r3, #0]
 8000790:	e00e      	b.n	80007b0 <HAL_FLASHEx_Erase+0xcc>
 8000792:	68bb      	ldr	r3, [r7, #8]
 8000794:	2280      	movs	r2, #128	; 0x80
 8000796:	00d2      	lsls	r2, r2, #3
 8000798:	4694      	mov	ip, r2
 800079a:	4463      	add	r3, ip
 800079c:	60bb      	str	r3, [r7, #8]
 800079e:	687b      	ldr	r3, [r7, #4]
 80007a0:	689b      	ldr	r3, [r3, #8]
 80007a2:	029a      	lsls	r2, r3, #10
 80007a4:	687b      	ldr	r3, [r7, #4]
 80007a6:	685b      	ldr	r3, [r3, #4]
 80007a8:	18d3      	adds	r3, r2, r3
 80007aa:	68ba      	ldr	r2, [r7, #8]
 80007ac:	429a      	cmp	r2, r3
 80007ae:	d3d6      	bcc.n	800075e <HAL_FLASHEx_Erase+0x7a>
 80007b0:	4b04      	ldr	r3, [pc, #16]	; (80007c4 <HAL_FLASHEx_Erase+0xe0>)
 80007b2:	2200      	movs	r2, #0
 80007b4:	761a      	strb	r2, [r3, #24]
 80007b6:	230f      	movs	r3, #15
 80007b8:	18fb      	adds	r3, r7, r3
 80007ba:	781b      	ldrb	r3, [r3, #0]
 80007bc:	0018      	movs	r0, r3
 80007be:	46bd      	mov	sp, r7
 80007c0:	b004      	add	sp, #16
 80007c2:	bdb0      	pop	{r4, r5, r7, pc}
 80007c4:	20001548 	.word	0x20001548
 80007c8:	0000c350 	.word	0x0000c350
 80007cc:	40022000 	.word	0x40022000

080007d0 <FLASH_MassErase>:
 80007d0:	b580      	push	{r7, lr}
 80007d2:	af00      	add	r7, sp, #0
 80007d4:	4b08      	ldr	r3, [pc, #32]	; (80007f8 <FLASH_MassErase+0x28>)
 80007d6:	2200      	movs	r2, #0
 80007d8:	61da      	str	r2, [r3, #28]
 80007da:	4b08      	ldr	r3, [pc, #32]	; (80007fc <FLASH_MassErase+0x2c>)
 80007dc:	691a      	ldr	r2, [r3, #16]
 80007de:	4b07      	ldr	r3, [pc, #28]	; (80007fc <FLASH_MassErase+0x2c>)
 80007e0:	2104      	movs	r1, #4
 80007e2:	430a      	orrs	r2, r1
 80007e4:	611a      	str	r2, [r3, #16]
 80007e6:	4b05      	ldr	r3, [pc, #20]	; (80007fc <FLASH_MassErase+0x2c>)
 80007e8:	691a      	ldr	r2, [r3, #16]
 80007ea:	4b04      	ldr	r3, [pc, #16]	; (80007fc <FLASH_MassErase+0x2c>)
 80007ec:	2140      	movs	r1, #64	; 0x40
 80007ee:	430a      	orrs	r2, r1
 80007f0:	611a      	str	r2, [r3, #16]
 80007f2:	46c0      	nop			; (mov r8, r8)
 80007f4:	46bd      	mov	sp, r7
 80007f6:	bd80      	pop	{r7, pc}
 80007f8:	20001548 	.word	0x20001548
 80007fc:	40022000 	.word	0x40022000

08000800 <FLASH_PageErase>:
 8000800:	b580      	push	{r7, lr}
 8000802:	b082      	sub	sp, #8
 8000804:	af00      	add	r7, sp, #0
 8000806:	6078      	str	r0, [r7, #4]
 8000808:	4b0a      	ldr	r3, [pc, #40]	; (8000834 <FLASH_PageErase+0x34>)
 800080a:	2200      	movs	r2, #0
 800080c:	61da      	str	r2, [r3, #28]
 800080e:	4b0a      	ldr	r3, [pc, #40]	; (8000838 <FLASH_PageErase+0x38>)
 8000810:	691a      	ldr	r2, [r3, #16]
 8000812:	4b09      	ldr	r3, [pc, #36]	; (8000838 <FLASH_PageErase+0x38>)
 8000814:	2102      	movs	r1, #2
 8000816:	430a      	orrs	r2, r1
 8000818:	611a      	str	r2, [r3, #16]
 800081a:	4b07      	ldr	r3, [pc, #28]	; (8000838 <FLASH_PageErase+0x38>)
 800081c:	687a      	ldr	r2, [r7, #4]
 800081e:	615a      	str	r2, [r3, #20]
 8000820:	4b05      	ldr	r3, [pc, #20]	; (8000838 <FLASH_PageErase+0x38>)
 8000822:	691a      	ldr	r2, [r3, #16]
 8000824:	4b04      	ldr	r3, [pc, #16]	; (8000838 <FLASH_PageErase+0x38>)
 8000826:	2140      	movs	r1, #64	; 0x40
 8000828:	430a      	orrs	r2, r1
 800082a:	611a      	str	r2, [r3, #16]
 800082c:	46c0      	nop			; (mov r8, r8)
 800082e:	46bd      	mov	sp, r7
 8000830:	b002      	add	sp, #8
 8000832:	bd80      	pop	{r7, pc}
 8000834:	20001548 	.word	0x20001548
 8000838:	40022000 	.word	0x40022000

0800083c <HAL_GPIO_Init>:
 800083c:	b580      	push	{r7, lr}
 800083e:	b086      	sub	sp, #24
 8000840:	af00      	add	r7, sp, #0
 8000842:	6078      	str	r0, [r7, #4]
 8000844:	6039      	str	r1, [r7, #0]
 8000846:	2300      	movs	r3, #0
 8000848:	617b      	str	r3, [r7, #20]
 800084a:	2300      	movs	r3, #0
 800084c:	60fb      	str	r3, [r7, #12]
 800084e:	2300      	movs	r3, #0
 8000850:	613b      	str	r3, [r7, #16]
 8000852:	e14f      	b.n	8000af4 <HAL_GPIO_Init+0x2b8>
 8000854:	683b      	ldr	r3, [r7, #0]
 8000856:	681b      	ldr	r3, [r3, #0]
 8000858:	2101      	movs	r1, #1
 800085a:	697a      	ldr	r2, [r7, #20]
 800085c:	4091      	lsls	r1, r2
 800085e:	000a      	movs	r2, r1
 8000860:	4013      	ands	r3, r2
 8000862:	60fb      	str	r3, [r7, #12]
 8000864:	68fb      	ldr	r3, [r7, #12]
 8000866:	2b00      	cmp	r3, #0
 8000868:	d100      	bne.n	800086c <HAL_GPIO_Init+0x30>
 800086a:	e140      	b.n	8000aee <HAL_GPIO_Init+0x2b2>
 800086c:	683b      	ldr	r3, [r7, #0]
 800086e:	685b      	ldr	r3, [r3, #4]
 8000870:	2b02      	cmp	r3, #2
 8000872:	d003      	beq.n	800087c <HAL_GPIO_Init+0x40>
 8000874:	683b      	ldr	r3, [r7, #0]
 8000876:	685b      	ldr	r3, [r3, #4]
 8000878:	2b12      	cmp	r3, #18
 800087a:	d123      	bne.n	80008c4 <HAL_GPIO_Init+0x88>
 800087c:	697b      	ldr	r3, [r7, #20]
 800087e:	08da      	lsrs	r2, r3, #3
 8000880:	687b      	ldr	r3, [r7, #4]
 8000882:	3208      	adds	r2, #8
 8000884:	0092      	lsls	r2, r2, #2
 8000886:	58d3      	ldr	r3, [r2, r3]
 8000888:	613b      	str	r3, [r7, #16]
 800088a:	697b      	ldr	r3, [r7, #20]
 800088c:	2207      	movs	r2, #7
 800088e:	4013      	ands	r3, r2
 8000890:	009b      	lsls	r3, r3, #2
 8000892:	220f      	movs	r2, #15
 8000894:	409a      	lsls	r2, r3
 8000896:	0013      	movs	r3, r2
 8000898:	43da      	mvns	r2, r3
 800089a:	693b      	ldr	r3, [r7, #16]
 800089c:	4013      	ands	r3, r2
 800089e:	613b      	str	r3, [r7, #16]
 80008a0:	683b      	ldr	r3, [r7, #0]
 80008a2:	691a      	ldr	r2, [r3, #16]
 80008a4:	697b      	ldr	r3, [r7, #20]
 80008a6:	2107      	movs	r1, #7
 80008a8:	400b      	ands	r3, r1
 80008aa:	009b      	lsls	r3, r3, #2
 80008ac:	409a      	lsls	r2, r3
 80008ae:	0013      	movs	r3, r2
 80008b0:	693a      	ldr	r2, [r7, #16]
 80008b2:	4313      	orrs	r3, r2
 80008b4:	613b      	str	r3, [r7, #16]
 80008b6:	697b      	ldr	r3, [r7, #20]
 80008b8:	08da      	lsrs	r2, r3, #3
 80008ba:	687b      	ldr	r3, [r7, #4]
 80008bc:	3208      	adds	r2, #8
 80008be:	0092      	lsls	r2, r2, #2
 80008c0:	6939      	ldr	r1, [r7, #16]
 80008c2:	50d1      	str	r1, [r2, r3]
 80008c4:	687b      	ldr	r3, [r7, #4]
 80008c6:	681b      	ldr	r3, [r3, #0]
 80008c8:	613b      	str	r3, [r7, #16]
 80008ca:	697b      	ldr	r3, [r7, #20]
 80008cc:	005b      	lsls	r3, r3, #1
 80008ce:	2203      	movs	r2, #3
 80008d0:	409a      	lsls	r2, r3
 80008d2:	0013      	movs	r3, r2
 80008d4:	43da      	mvns	r2, r3
 80008d6:	693b      	ldr	r3, [r7, #16]
 80008d8:	4013      	ands	r3, r2
 80008da:	613b      	str	r3, [r7, #16]
 80008dc:	683b      	ldr	r3, [r7, #0]
 80008de:	685b      	ldr	r3, [r3, #4]
 80008e0:	2203      	movs	r2, #3
 80008e2:	401a      	ands	r2, r3
 80008e4:	697b      	ldr	r3, [r7, #20]
 80008e6:	005b      	lsls	r3, r3, #1
 80008e8:	409a      	lsls	r2, r3
 80008ea:	0013      	movs	r3, r2
 80008ec:	693a      	ldr	r2, [r7, #16]
 80008ee:	4313      	orrs	r3, r2
 80008f0:	613b      	str	r3, [r7, #16]
 80008f2:	687b      	ldr	r3, [r7, #4]
 80008f4:	693a      	ldr	r2, [r7, #16]
 80008f6:	601a      	str	r2, [r3, #0]
 80008f8:	683b      	ldr	r3, [r7, #0]
 80008fa:	685b      	ldr	r3, [r3, #4]
 80008fc:	2b01      	cmp	r3, #1
 80008fe:	d00b      	beq.n	8000918 <HAL_GPIO_Init+0xdc>
 8000900:	683b      	ldr	r3, [r7, #0]
 8000902:	685b      	ldr	r3, [r3, #4]
 8000904:	2b02      	cmp	r3, #2
 8000906:	d007      	beq.n	8000918 <HAL_GPIO_Init+0xdc>
 8000908:	683b      	ldr	r3, [r7, #0]
 800090a:	685b      	ldr	r3, [r3, #4]
 800090c:	2b11      	cmp	r3, #17
 800090e:	d003      	beq.n	8000918 <HAL_GPIO_Init+0xdc>
 8000910:	683b      	ldr	r3, [r7, #0]
 8000912:	685b      	ldr	r3, [r3, #4]
 8000914:	2b12      	cmp	r3, #18
 8000916:	d130      	bne.n	800097a <HAL_GPIO_Init+0x13e>
 8000918:	687b      	ldr	r3, [r7, #4]
 800091a:	689b      	ldr	r3, [r3, #8]
 800091c:	613b      	str	r3, [r7, #16]
 800091e:	697b      	ldr	r3, [r7, #20]
 8000920:	005b      	lsls	r3, r3, #1
 8000922:	2203      	movs	r2, #3
 8000924:	409a      	lsls	r2, r3
 8000926:	0013      	movs	r3, r2
 8000928:	43da      	mvns	r2, r3
 800092a:	693b      	ldr	r3, [r7, #16]
 800092c:	4013      	ands	r3, r2
 800092e:	613b      	str	r3, [r7, #16]
 8000930:	683b      	ldr	r3, [r7, #0]
 8000932:	68da      	ldr	r2, [r3, #12]
 8000934:	697b      	ldr	r3, [r7, #20]
 8000936:	005b      	lsls	r3, r3, #1
 8000938:	409a      	lsls	r2, r3
 800093a:	0013      	movs	r3, r2
 800093c:	693a      	ldr	r2, [r7, #16]
 800093e:	4313      	orrs	r3, r2
 8000940:	613b      	str	r3, [r7, #16]
 8000942:	687b      	ldr	r3, [r7, #4]
 8000944:	693a      	ldr	r2, [r7, #16]
 8000946:	609a      	str	r2, [r3, #8]
 8000948:	687b      	ldr	r3, [r7, #4]
 800094a:	685b      	ldr	r3, [r3, #4]
 800094c:	613b      	str	r3, [r7, #16]
 800094e:	2201      	movs	r2, #1
 8000950:	697b      	ldr	r3, [r7, #20]
 8000952:	409a      	lsls	r2, r3
 8000954:	0013      	movs	r3, r2
 8000956:	43da      	mvns	r2, r3
 8000958:	693b      	ldr	r3, [r7, #16]
 800095a:	4013      	ands	r3, r2
 800095c:	613b      	str	r3, [r7, #16]
 800095e:	683b      	ldr	r3, [r7, #0]
 8000960:	685b      	ldr	r3, [r3, #4]
 8000962:	091b      	lsrs	r3, r3, #4
 8000964:	2201      	movs	r2, #1
 8000966:	401a      	ands	r2, r3
 8000968:	697b      	ldr	r3, [r7, #20]
 800096a:	409a      	lsls	r2, r3
 800096c:	0013      	movs	r3, r2
 800096e:	693a      	ldr	r2, [r7, #16]
 8000970:	4313      	orrs	r3, r2
 8000972:	613b      	str	r3, [r7, #16]
 8000974:	687b      	ldr	r3, [r7, #4]
 8000976:	693a      	ldr	r2, [r7, #16]
 8000978:	605a      	str	r2, [r3, #4]
 800097a:	687b      	ldr	r3, [r7, #4]
 800097c:	68db      	ldr	r3, [r3, #12]
 800097e:	613b      	str	r3, [r7, #16]
 8000980:	697b      	ldr	r3, [r7, #20]
 8000982:	005b      	lsls	r3, r3, #1
 8000984:	2203      	movs	r2, #3
 8000986:	409a      	lsls	r2, r3
 8000988:	0013      	movs	r3, r2
 800098a:	43da      	mvns	r2, r3
 800098c:	693b      	ldr	r3, [r7, #16]
 800098e:	4013      	ands	r3, r2
 8000990:	613b      	str	r3, [r7, #16]
 8000992:	683b      	ldr	r3, [r7, #0]
 8000994:	689a      	ldr	r2, [r3, #8]
 8000996:	697b      	ldr	r3, [r7, #20]
 8000998:	005b      	lsls	r3, r3, #1
 800099a:	409a      	lsls	r2, r3
 800099c:	0013      	movs	r3, r2
 800099e:	693a      	ldr	r2, [r7, #16]
 80009a0:	4313      	orrs	r3, r2
 80009a2:	613b      	str	r3, [r7, #16]
 80009a4:	687b      	ldr	r3, [r7, #4]
 80009a6:	693a      	ldr	r2, [r7, #16]
 80009a8:	60da      	str	r2, [r3, #12]
 80009aa:	683b      	ldr	r3, [r7, #0]
 80009ac:	685a      	ldr	r2, [r3, #4]
 80009ae:	2380      	movs	r3, #128	; 0x80
 80009b0:	055b      	lsls	r3, r3, #21
 80009b2:	4013      	ands	r3, r2
 80009b4:	d100      	bne.n	80009b8 <HAL_GPIO_Init+0x17c>
 80009b6:	e09a      	b.n	8000aee <HAL_GPIO_Init+0x2b2>
 80009b8:	4b54      	ldr	r3, [pc, #336]	; (8000b0c <HAL_GPIO_Init+0x2d0>)
 80009ba:	699a      	ldr	r2, [r3, #24]
 80009bc:	4b53      	ldr	r3, [pc, #332]	; (8000b0c <HAL_GPIO_Init+0x2d0>)
 80009be:	2101      	movs	r1, #1
 80009c0:	430a      	orrs	r2, r1
 80009c2:	619a      	str	r2, [r3, #24]
 80009c4:	4b51      	ldr	r3, [pc, #324]	; (8000b0c <HAL_GPIO_Init+0x2d0>)
 80009c6:	699b      	ldr	r3, [r3, #24]
 80009c8:	2201      	movs	r2, #1
 80009ca:	4013      	ands	r3, r2
 80009cc:	60bb      	str	r3, [r7, #8]
 80009ce:	68bb      	ldr	r3, [r7, #8]
 80009d0:	4a4f      	ldr	r2, [pc, #316]	; (8000b10 <HAL_GPIO_Init+0x2d4>)
 80009d2:	697b      	ldr	r3, [r7, #20]
 80009d4:	089b      	lsrs	r3, r3, #2
 80009d6:	3302      	adds	r3, #2
 80009d8:	009b      	lsls	r3, r3, #2
 80009da:	589b      	ldr	r3, [r3, r2]
 80009dc:	613b      	str	r3, [r7, #16]
 80009de:	697b      	ldr	r3, [r7, #20]
 80009e0:	2203      	movs	r2, #3
 80009e2:	4013      	ands	r3, r2
 80009e4:	009b      	lsls	r3, r3, #2
 80009e6:	220f      	movs	r2, #15
 80009e8:	409a      	lsls	r2, r3
 80009ea:	0013      	movs	r3, r2
 80009ec:	43da      	mvns	r2, r3
 80009ee:	693b      	ldr	r3, [r7, #16]
 80009f0:	4013      	ands	r3, r2
 80009f2:	613b      	str	r3, [r7, #16]
 80009f4:	687a      	ldr	r2, [r7, #4]
 80009f6:	2390      	movs	r3, #144	; 0x90
 80009f8:	05db      	lsls	r3, r3, #23
 80009fa:	429a      	cmp	r2, r3
 80009fc:	d013      	beq.n	8000a26 <HAL_GPIO_Init+0x1ea>
 80009fe:	687b      	ldr	r3, [r7, #4]
 8000a00:	4a44      	ldr	r2, [pc, #272]	; (8000b14 <HAL_GPIO_Init+0x2d8>)
 8000a02:	4293      	cmp	r3, r2
 8000a04:	d00d      	beq.n	8000a22 <HAL_GPIO_Init+0x1e6>
 8000a06:	687b      	ldr	r3, [r7, #4]
 8000a08:	4a43      	ldr	r2, [pc, #268]	; (8000b18 <HAL_GPIO_Init+0x2dc>)
 8000a0a:	4293      	cmp	r3, r2
 8000a0c:	d007      	beq.n	8000a1e <HAL_GPIO_Init+0x1e2>
 8000a0e:	687b      	ldr	r3, [r7, #4]
 8000a10:	4a42      	ldr	r2, [pc, #264]	; (8000b1c <HAL_GPIO_Init+0x2e0>)
 8000a12:	4293      	cmp	r3, r2
 8000a14:	d101      	bne.n	8000a1a <HAL_GPIO_Init+0x1de>
 8000a16:	2303      	movs	r3, #3
 8000a18:	e006      	b.n	8000a28 <HAL_GPIO_Init+0x1ec>
 8000a1a:	2305      	movs	r3, #5
 8000a1c:	e004      	b.n	8000a28 <HAL_GPIO_Init+0x1ec>
 8000a1e:	2302      	movs	r3, #2
 8000a20:	e002      	b.n	8000a28 <HAL_GPIO_Init+0x1ec>
 8000a22:	2301      	movs	r3, #1
 8000a24:	e000      	b.n	8000a28 <HAL_GPIO_Init+0x1ec>
 8000a26:	2300      	movs	r3, #0
 8000a28:	697a      	ldr	r2, [r7, #20]
 8000a2a:	2103      	movs	r1, #3
 8000a2c:	400a      	ands	r2, r1
 8000a2e:	0092      	lsls	r2, r2, #2
 8000a30:	4093      	lsls	r3, r2
 8000a32:	693a      	ldr	r2, [r7, #16]
 8000a34:	4313      	orrs	r3, r2
 8000a36:	613b      	str	r3, [r7, #16]
 8000a38:	4935      	ldr	r1, [pc, #212]	; (8000b10 <HAL_GPIO_Init+0x2d4>)
 8000a3a:	697b      	ldr	r3, [r7, #20]
 8000a3c:	089b      	lsrs	r3, r3, #2
 8000a3e:	3302      	adds	r3, #2
 8000a40:	009b      	lsls	r3, r3, #2
 8000a42:	693a      	ldr	r2, [r7, #16]
 8000a44:	505a      	str	r2, [r3, r1]
 8000a46:	4b36      	ldr	r3, [pc, #216]	; (8000b20 <HAL_GPIO_Init+0x2e4>)
 8000a48:	681b      	ldr	r3, [r3, #0]
 8000a4a:	613b      	str	r3, [r7, #16]
 8000a4c:	68fb      	ldr	r3, [r7, #12]
 8000a4e:	43da      	mvns	r2, r3
 8000a50:	693b      	ldr	r3, [r7, #16]
 8000a52:	4013      	ands	r3, r2
 8000a54:	613b      	str	r3, [r7, #16]
 8000a56:	683b      	ldr	r3, [r7, #0]
 8000a58:	685a      	ldr	r2, [r3, #4]
 8000a5a:	2380      	movs	r3, #128	; 0x80
 8000a5c:	025b      	lsls	r3, r3, #9
 8000a5e:	4013      	ands	r3, r2
 8000a60:	d003      	beq.n	8000a6a <HAL_GPIO_Init+0x22e>
 8000a62:	693a      	ldr	r2, [r7, #16]
 8000a64:	68fb      	ldr	r3, [r7, #12]
 8000a66:	4313      	orrs	r3, r2
 8000a68:	613b      	str	r3, [r7, #16]
 8000a6a:	4b2d      	ldr	r3, [pc, #180]	; (8000b20 <HAL_GPIO_Init+0x2e4>)
 8000a6c:	693a      	ldr	r2, [r7, #16]
 8000a6e:	601a      	str	r2, [r3, #0]
 8000a70:	4b2b      	ldr	r3, [pc, #172]	; (8000b20 <HAL_GPIO_Init+0x2e4>)
 8000a72:	685b      	ldr	r3, [r3, #4]
 8000a74:	613b      	str	r3, [r7, #16]
 8000a76:	68fb      	ldr	r3, [r7, #12]
 8000a78:	43da      	mvns	r2, r3
 8000a7a:	693b      	ldr	r3, [r7, #16]
 8000a7c:	4013      	ands	r3, r2
 8000a7e:	613b      	str	r3, [r7, #16]
 8000a80:	683b      	ldr	r3, [r7, #0]
 8000a82:	685a      	ldr	r2, [r3, #4]
 8000a84:	2380      	movs	r3, #128	; 0x80
 8000a86:	029b      	lsls	r3, r3, #10
 8000a88:	4013      	ands	r3, r2
 8000a8a:	d003      	beq.n	8000a94 <HAL_GPIO_Init+0x258>
 8000a8c:	693a      	ldr	r2, [r7, #16]
 8000a8e:	68fb      	ldr	r3, [r7, #12]
 8000a90:	4313      	orrs	r3, r2
 8000a92:	613b      	str	r3, [r7, #16]
 8000a94:	4b22      	ldr	r3, [pc, #136]	; (8000b20 <HAL_GPIO_Init+0x2e4>)
 8000a96:	693a      	ldr	r2, [r7, #16]
 8000a98:	605a      	str	r2, [r3, #4]
 8000a9a:	4b21      	ldr	r3, [pc, #132]	; (8000b20 <HAL_GPIO_Init+0x2e4>)
 8000a9c:	689b      	ldr	r3, [r3, #8]
 8000a9e:	613b      	str	r3, [r7, #16]
 8000aa0:	68fb      	ldr	r3, [r7, #12]
 8000aa2:	43da      	mvns	r2, r3
 8000aa4:	693b      	ldr	r3, [r7, #16]
 8000aa6:	4013      	ands	r3, r2
 8000aa8:	613b      	str	r3, [r7, #16]
 8000aaa:	683b      	ldr	r3, [r7, #0]
 8000aac:	685a      	ldr	r2, [r3, #4]
 8000aae:	2380      	movs	r3, #128	; 0x80
 8000ab0:	035b      	lsls	r3, r3, #13
 8000ab2:	4013      	ands	r3, r2
 8000ab4:	d003      	beq.n	8000abe <HAL_GPIO_Init+0x282>
 8000ab6:	693a      	ldr	r2, [r7, #16]
 8000ab8:	68fb      	ldr	r3, [r7, #12]
 8000aba:	4313      	orrs	r3, r2
 8000abc:	613b      	str	r3, [r7, #16]
 8000abe:	4b18      	ldr	r3, [pc, #96]	; (8000b20 <HAL_GPIO_Init+0x2e4>)
 8000ac0:	693a      	ldr	r2, [r7, #16]
 8000ac2:	609a      	str	r2, [r3, #8]
 8000ac4:	4b16      	ldr	r3, [pc, #88]	; (8000b20 <HAL_GPIO_Init+0x2e4>)
 8000ac6:	68db      	ldr	r3, [r3, #12]
 8000ac8:	613b      	str	r3, [r7, #16]
 8000aca:	68fb      	ldr	r3, [r7, #12]
 8000acc:	43da      	mvns	r2, r3
 8000ace:	693b      	ldr	r3, [r7, #16]
 8000ad0:	4013      	ands	r3, r2
 8000ad2:	613b      	str	r3, [r7, #16]
 8000ad4:	683b      	ldr	r3, [r7, #0]
 8000ad6:	685a      	ldr	r2, [r3, #4]
 8000ad8:	2380      	movs	r3, #128	; 0x80
 8000ada:	039b      	lsls	r3, r3, #14
 8000adc:	4013      	ands	r3, r2
 8000ade:	d003      	beq.n	8000ae8 <HAL_GPIO_Init+0x2ac>
 8000ae0:	693a      	ldr	r2, [r7, #16]
 8000ae2:	68fb      	ldr	r3, [r7, #12]
 8000ae4:	4313      	orrs	r3, r2
 8000ae6:	613b      	str	r3, [r7, #16]
 8000ae8:	4b0d      	ldr	r3, [pc, #52]	; (8000b20 <HAL_GPIO_Init+0x2e4>)
 8000aea:	693a      	ldr	r2, [r7, #16]
 8000aec:	60da      	str	r2, [r3, #12]
 8000aee:	697b      	ldr	r3, [r7, #20]
 8000af0:	3301      	adds	r3, #1
 8000af2:	617b      	str	r3, [r7, #20]
 8000af4:	683b      	ldr	r3, [r7, #0]
 8000af6:	681a      	ldr	r2, [r3, #0]
 8000af8:	697b      	ldr	r3, [r7, #20]
 8000afa:	40da      	lsrs	r2, r3
 8000afc:	1e13      	subs	r3, r2, #0
 8000afe:	d000      	beq.n	8000b02 <HAL_GPIO_Init+0x2c6>
 8000b00:	e6a8      	b.n	8000854 <HAL_GPIO_Init+0x18>
 8000b02:	46c0      	nop			; (mov r8, r8)
 8000b04:	46bd      	mov	sp, r7
 8000b06:	b006      	add	sp, #24
 8000b08:	bd80      	pop	{r7, pc}
 8000b0a:	46c0      	nop			; (mov r8, r8)
 8000b0c:	40021000 	.word	0x40021000
 8000b10:	40010000 	.word	0x40010000
 8000b14:	48000400 	.word	0x48000400
 8000b18:	48000800 	.word	0x48000800
 8000b1c:	48000c00 	.word	0x48000c00
 8000b20:	40010400 	.word	0x40010400

08000b24 <HAL_GPIO_ReadPin>:
 8000b24:	b580      	push	{r7, lr}
 8000b26:	b084      	sub	sp, #16
 8000b28:	af00      	add	r7, sp, #0
 8000b2a:	6078      	str	r0, [r7, #4]
 8000b2c:	000a      	movs	r2, r1
 8000b2e:	1cbb      	adds	r3, r7, #2
 8000b30:	801a      	strh	r2, [r3, #0]
 8000b32:	687b      	ldr	r3, [r7, #4]
 8000b34:	691b      	ldr	r3, [r3, #16]
 8000b36:	1cba      	adds	r2, r7, #2
 8000b38:	8812      	ldrh	r2, [r2, #0]
 8000b3a:	4013      	ands	r3, r2
 8000b3c:	d004      	beq.n	8000b48 <HAL_GPIO_ReadPin+0x24>
 8000b3e:	230f      	movs	r3, #15
 8000b40:	18fb      	adds	r3, r7, r3
 8000b42:	2201      	movs	r2, #1
 8000b44:	701a      	strb	r2, [r3, #0]
 8000b46:	e003      	b.n	8000b50 <HAL_GPIO_ReadPin+0x2c>
 8000b48:	230f      	movs	r3, #15
 8000b4a:	18fb      	adds	r3, r7, r3
 8000b4c:	2200      	movs	r2, #0
 8000b4e:	701a      	strb	r2, [r3, #0]
 8000b50:	230f      	movs	r3, #15
 8000b52:	18fb      	adds	r3, r7, r3
 8000b54:	781b      	ldrb	r3, [r3, #0]
 8000b56:	0018      	movs	r0, r3
 8000b58:	46bd      	mov	sp, r7
 8000b5a:	b004      	add	sp, #16
 8000b5c:	bd80      	pop	{r7, pc}

08000b5e <HAL_GPIO_WritePin>:
 8000b5e:	b580      	push	{r7, lr}
 8000b60:	b082      	sub	sp, #8
 8000b62:	af00      	add	r7, sp, #0
 8000b64:	6078      	str	r0, [r7, #4]
 8000b66:	0008      	movs	r0, r1
 8000b68:	0011      	movs	r1, r2
 8000b6a:	1cbb      	adds	r3, r7, #2
 8000b6c:	1c02      	adds	r2, r0, #0
 8000b6e:	801a      	strh	r2, [r3, #0]
 8000b70:	1c7b      	adds	r3, r7, #1
 8000b72:	1c0a      	adds	r2, r1, #0
 8000b74:	701a      	strb	r2, [r3, #0]
 8000b76:	1c7b      	adds	r3, r7, #1
 8000b78:	781b      	ldrb	r3, [r3, #0]
 8000b7a:	2b00      	cmp	r3, #0
 8000b7c:	d004      	beq.n	8000b88 <HAL_GPIO_WritePin+0x2a>
 8000b7e:	1cbb      	adds	r3, r7, #2
 8000b80:	881a      	ldrh	r2, [r3, #0]
 8000b82:	687b      	ldr	r3, [r7, #4]
 8000b84:	619a      	str	r2, [r3, #24]
 8000b86:	e003      	b.n	8000b90 <HAL_GPIO_WritePin+0x32>
 8000b88:	1cbb      	adds	r3, r7, #2
 8000b8a:	881a      	ldrh	r2, [r3, #0]
 8000b8c:	687b      	ldr	r3, [r7, #4]
 8000b8e:	629a      	str	r2, [r3, #40]	; 0x28
 8000b90:	46c0      	nop			; (mov r8, r8)
 8000b92:	46bd      	mov	sp, r7
 8000b94:	b002      	add	sp, #8
 8000b96:	bd80      	pop	{r7, pc}

08000b98 <HAL_IWDG_Init>:
 8000b98:	b580      	push	{r7, lr}
 8000b9a:	b084      	sub	sp, #16
 8000b9c:	af00      	add	r7, sp, #0
 8000b9e:	6078      	str	r0, [r7, #4]
 8000ba0:	687b      	ldr	r3, [r7, #4]
 8000ba2:	2b00      	cmp	r3, #0
 8000ba4:	d101      	bne.n	8000baa <HAL_IWDG_Init+0x12>
 8000ba6:	2301      	movs	r3, #1
 8000ba8:	e036      	b.n	8000c18 <HAL_IWDG_Init+0x80>
 8000baa:	687b      	ldr	r3, [r7, #4]
 8000bac:	681b      	ldr	r3, [r3, #0]
 8000bae:	4a1c      	ldr	r2, [pc, #112]	; (8000c20 <HAL_IWDG_Init+0x88>)
 8000bb0:	601a      	str	r2, [r3, #0]
 8000bb2:	687b      	ldr	r3, [r7, #4]
 8000bb4:	681b      	ldr	r3, [r3, #0]
 8000bb6:	4a1b      	ldr	r2, [pc, #108]	; (8000c24 <HAL_IWDG_Init+0x8c>)
 8000bb8:	601a      	str	r2, [r3, #0]
 8000bba:	687b      	ldr	r3, [r7, #4]
 8000bbc:	681b      	ldr	r3, [r3, #0]
 8000bbe:	687a      	ldr	r2, [r7, #4]
 8000bc0:	6852      	ldr	r2, [r2, #4]
 8000bc2:	605a      	str	r2, [r3, #4]
 8000bc4:	687b      	ldr	r3, [r7, #4]
 8000bc6:	681b      	ldr	r3, [r3, #0]
 8000bc8:	687a      	ldr	r2, [r7, #4]
 8000bca:	6892      	ldr	r2, [r2, #8]
 8000bcc:	609a      	str	r2, [r3, #8]
 8000bce:	f7ff fb75 	bl	80002bc <HAL_GetTick>
 8000bd2:	0003      	movs	r3, r0
 8000bd4:	60fb      	str	r3, [r7, #12]
 8000bd6:	e008      	b.n	8000bea <HAL_IWDG_Init+0x52>
 8000bd8:	f7ff fb70 	bl	80002bc <HAL_GetTick>
 8000bdc:	0002      	movs	r2, r0
 8000bde:	68fb      	ldr	r3, [r7, #12]
 8000be0:	1ad3      	subs	r3, r2, r3
 8000be2:	2b27      	cmp	r3, #39	; 0x27
 8000be4:	d901      	bls.n	8000bea <HAL_IWDG_Init+0x52>
 8000be6:	2303      	movs	r3, #3
 8000be8:	e016      	b.n	8000c18 <HAL_IWDG_Init+0x80>
 8000bea:	687b      	ldr	r3, [r7, #4]
 8000bec:	681b      	ldr	r3, [r3, #0]
 8000bee:	68db      	ldr	r3, [r3, #12]
 8000bf0:	2b00      	cmp	r3, #0
 8000bf2:	d1f1      	bne.n	8000bd8 <HAL_IWDG_Init+0x40>
 8000bf4:	687b      	ldr	r3, [r7, #4]
 8000bf6:	681b      	ldr	r3, [r3, #0]
 8000bf8:	691a      	ldr	r2, [r3, #16]
 8000bfa:	687b      	ldr	r3, [r7, #4]
 8000bfc:	68db      	ldr	r3, [r3, #12]
 8000bfe:	429a      	cmp	r2, r3
 8000c00:	d005      	beq.n	8000c0e <HAL_IWDG_Init+0x76>
 8000c02:	687b      	ldr	r3, [r7, #4]
 8000c04:	681b      	ldr	r3, [r3, #0]
 8000c06:	687a      	ldr	r2, [r7, #4]
 8000c08:	68d2      	ldr	r2, [r2, #12]
 8000c0a:	611a      	str	r2, [r3, #16]
 8000c0c:	e003      	b.n	8000c16 <HAL_IWDG_Init+0x7e>
 8000c0e:	687b      	ldr	r3, [r7, #4]
 8000c10:	681b      	ldr	r3, [r3, #0]
 8000c12:	4a05      	ldr	r2, [pc, #20]	; (8000c28 <HAL_IWDG_Init+0x90>)
 8000c14:	601a      	str	r2, [r3, #0]
 8000c16:	2300      	movs	r3, #0
 8000c18:	0018      	movs	r0, r3
 8000c1a:	46bd      	mov	sp, r7
 8000c1c:	b004      	add	sp, #16
 8000c1e:	bd80      	pop	{r7, pc}
 8000c20:	0000cccc 	.word	0x0000cccc
 8000c24:	00005555 	.word	0x00005555
 8000c28:	0000aaaa 	.word	0x0000aaaa

08000c2c <HAL_IWDG_Refresh>:
 8000c2c:	b580      	push	{r7, lr}
 8000c2e:	b082      	sub	sp, #8
 8000c30:	af00      	add	r7, sp, #0
 8000c32:	6078      	str	r0, [r7, #4]
 8000c34:	687b      	ldr	r3, [r7, #4]
 8000c36:	681b      	ldr	r3, [r3, #0]
 8000c38:	4a03      	ldr	r2, [pc, #12]	; (8000c48 <HAL_IWDG_Refresh+0x1c>)
 8000c3a:	601a      	str	r2, [r3, #0]
 8000c3c:	2300      	movs	r3, #0
 8000c3e:	0018      	movs	r0, r3
 8000c40:	46bd      	mov	sp, r7
 8000c42:	b002      	add	sp, #8
 8000c44:	bd80      	pop	{r7, pc}
 8000c46:	46c0      	nop			; (mov r8, r8)
 8000c48:	0000aaaa 	.word	0x0000aaaa

08000c4c <HAL_RCC_OscConfig>:
 8000c4c:	b580      	push	{r7, lr}
 8000c4e:	b086      	sub	sp, #24
 8000c50:	af00      	add	r7, sp, #0
 8000c52:	6078      	str	r0, [r7, #4]
 8000c54:	2300      	movs	r3, #0
 8000c56:	613b      	str	r3, [r7, #16]
 8000c58:	687b      	ldr	r3, [r7, #4]
 8000c5a:	681b      	ldr	r3, [r3, #0]
 8000c5c:	2201      	movs	r2, #1
 8000c5e:	4013      	ands	r3, r2
 8000c60:	d100      	bne.n	8000c64 <HAL_RCC_OscConfig+0x18>
 8000c62:	e08d      	b.n	8000d80 <HAL_RCC_OscConfig+0x134>
 8000c64:	4bc3      	ldr	r3, [pc, #780]	; (8000f74 <HAL_RCC_OscConfig+0x328>)
 8000c66:	685b      	ldr	r3, [r3, #4]
 8000c68:	220c      	movs	r2, #12
 8000c6a:	4013      	ands	r3, r2
 8000c6c:	2b04      	cmp	r3, #4
 8000c6e:	d00e      	beq.n	8000c8e <HAL_RCC_OscConfig+0x42>
 8000c70:	4bc0      	ldr	r3, [pc, #768]	; (8000f74 <HAL_RCC_OscConfig+0x328>)
 8000c72:	685b      	ldr	r3, [r3, #4]
 8000c74:	220c      	movs	r2, #12
 8000c76:	4013      	ands	r3, r2
 8000c78:	2b08      	cmp	r3, #8
 8000c7a:	d116      	bne.n	8000caa <HAL_RCC_OscConfig+0x5e>
 8000c7c:	4bbd      	ldr	r3, [pc, #756]	; (8000f74 <HAL_RCC_OscConfig+0x328>)
 8000c7e:	685a      	ldr	r2, [r3, #4]
 8000c80:	2380      	movs	r3, #128	; 0x80
 8000c82:	025b      	lsls	r3, r3, #9
 8000c84:	401a      	ands	r2, r3
 8000c86:	2380      	movs	r3, #128	; 0x80
 8000c88:	025b      	lsls	r3, r3, #9
 8000c8a:	429a      	cmp	r2, r3
 8000c8c:	d10d      	bne.n	8000caa <HAL_RCC_OscConfig+0x5e>
 8000c8e:	4bb9      	ldr	r3, [pc, #740]	; (8000f74 <HAL_RCC_OscConfig+0x328>)
 8000c90:	681a      	ldr	r2, [r3, #0]
 8000c92:	2380      	movs	r3, #128	; 0x80
 8000c94:	029b      	lsls	r3, r3, #10
 8000c96:	4013      	ands	r3, r2
 8000c98:	d100      	bne.n	8000c9c <HAL_RCC_OscConfig+0x50>
 8000c9a:	e070      	b.n	8000d7e <HAL_RCC_OscConfig+0x132>
 8000c9c:	687b      	ldr	r3, [r7, #4]
 8000c9e:	685b      	ldr	r3, [r3, #4]
 8000ca0:	2b00      	cmp	r3, #0
 8000ca2:	d000      	beq.n	8000ca6 <HAL_RCC_OscConfig+0x5a>
 8000ca4:	e06b      	b.n	8000d7e <HAL_RCC_OscConfig+0x132>
 8000ca6:	2301      	movs	r3, #1
 8000ca8:	e2b6      	b.n	8001218 <HAL_RCC_OscConfig+0x5cc>
 8000caa:	687b      	ldr	r3, [r7, #4]
 8000cac:	685b      	ldr	r3, [r3, #4]
 8000cae:	2b01      	cmp	r3, #1
 8000cb0:	d107      	bne.n	8000cc2 <HAL_RCC_OscConfig+0x76>
 8000cb2:	4bb0      	ldr	r3, [pc, #704]	; (8000f74 <HAL_RCC_OscConfig+0x328>)
 8000cb4:	681a      	ldr	r2, [r3, #0]
 8000cb6:	4baf      	ldr	r3, [pc, #700]	; (8000f74 <HAL_RCC_OscConfig+0x328>)
 8000cb8:	2180      	movs	r1, #128	; 0x80
 8000cba:	0249      	lsls	r1, r1, #9
 8000cbc:	430a      	orrs	r2, r1
 8000cbe:	601a      	str	r2, [r3, #0]
 8000cc0:	e02f      	b.n	8000d22 <HAL_RCC_OscConfig+0xd6>
 8000cc2:	687b      	ldr	r3, [r7, #4]
 8000cc4:	685b      	ldr	r3, [r3, #4]
 8000cc6:	2b00      	cmp	r3, #0
 8000cc8:	d10c      	bne.n	8000ce4 <HAL_RCC_OscConfig+0x98>
 8000cca:	4baa      	ldr	r3, [pc, #680]	; (8000f74 <HAL_RCC_OscConfig+0x328>)
 8000ccc:	681a      	ldr	r2, [r3, #0]
 8000cce:	4ba9      	ldr	r3, [pc, #676]	; (8000f74 <HAL_RCC_OscConfig+0x328>)
 8000cd0:	49a9      	ldr	r1, [pc, #676]	; (8000f78 <HAL_RCC_OscConfig+0x32c>)
 8000cd2:	400a      	ands	r2, r1
 8000cd4:	601a      	str	r2, [r3, #0]
 8000cd6:	4ba7      	ldr	r3, [pc, #668]	; (8000f74 <HAL_RCC_OscConfig+0x328>)
 8000cd8:	681a      	ldr	r2, [r3, #0]
 8000cda:	4ba6      	ldr	r3, [pc, #664]	; (8000f74 <HAL_RCC_OscConfig+0x328>)
 8000cdc:	49a7      	ldr	r1, [pc, #668]	; (8000f7c <HAL_RCC_OscConfig+0x330>)
 8000cde:	400a      	ands	r2, r1
 8000ce0:	601a      	str	r2, [r3, #0]
 8000ce2:	e01e      	b.n	8000d22 <HAL_RCC_OscConfig+0xd6>
 8000ce4:	687b      	ldr	r3, [r7, #4]
 8000ce6:	685b      	ldr	r3, [r3, #4]
 8000ce8:	2b05      	cmp	r3, #5
 8000cea:	d10e      	bne.n	8000d0a <HAL_RCC_OscConfig+0xbe>
 8000cec:	4ba1      	ldr	r3, [pc, #644]	; (8000f74 <HAL_RCC_OscConfig+0x328>)
 8000cee:	681a      	ldr	r2, [r3, #0]
 8000cf0:	4ba0      	ldr	r3, [pc, #640]	; (8000f74 <HAL_RCC_OscConfig+0x328>)
 8000cf2:	2180      	movs	r1, #128	; 0x80
 8000cf4:	02c9      	lsls	r1, r1, #11
 8000cf6:	430a      	orrs	r2, r1
 8000cf8:	601a      	str	r2, [r3, #0]
 8000cfa:	4b9e      	ldr	r3, [pc, #632]	; (8000f74 <HAL_RCC_OscConfig+0x328>)
 8000cfc:	681a      	ldr	r2, [r3, #0]
 8000cfe:	4b9d      	ldr	r3, [pc, #628]	; (8000f74 <HAL_RCC_OscConfig+0x328>)
 8000d00:	2180      	movs	r1, #128	; 0x80
 8000d02:	0249      	lsls	r1, r1, #9
 8000d04:	430a      	orrs	r2, r1
 8000d06:	601a      	str	r2, [r3, #0]
 8000d08:	e00b      	b.n	8000d22 <HAL_RCC_OscConfig+0xd6>
 8000d0a:	4b9a      	ldr	r3, [pc, #616]	; (8000f74 <HAL_RCC_OscConfig+0x328>)
 8000d0c:	681a      	ldr	r2, [r3, #0]
 8000d0e:	4b99      	ldr	r3, [pc, #612]	; (8000f74 <HAL_RCC_OscConfig+0x328>)
 8000d10:	4999      	ldr	r1, [pc, #612]	; (8000f78 <HAL_RCC_OscConfig+0x32c>)
 8000d12:	400a      	ands	r2, r1
 8000d14:	601a      	str	r2, [r3, #0]
 8000d16:	4b97      	ldr	r3, [pc, #604]	; (8000f74 <HAL_RCC_OscConfig+0x328>)
 8000d18:	681a      	ldr	r2, [r3, #0]
 8000d1a:	4b96      	ldr	r3, [pc, #600]	; (8000f74 <HAL_RCC_OscConfig+0x328>)
 8000d1c:	4997      	ldr	r1, [pc, #604]	; (8000f7c <HAL_RCC_OscConfig+0x330>)
 8000d1e:	400a      	ands	r2, r1
 8000d20:	601a      	str	r2, [r3, #0]
 8000d22:	687b      	ldr	r3, [r7, #4]
 8000d24:	685b      	ldr	r3, [r3, #4]
 8000d26:	2b00      	cmp	r3, #0
 8000d28:	d014      	beq.n	8000d54 <HAL_RCC_OscConfig+0x108>
 8000d2a:	f7ff fac7 	bl	80002bc <HAL_GetTick>
 8000d2e:	0003      	movs	r3, r0
 8000d30:	613b      	str	r3, [r7, #16]
 8000d32:	e008      	b.n	8000d46 <HAL_RCC_OscConfig+0xfa>
 8000d34:	f7ff fac2 	bl	80002bc <HAL_GetTick>
 8000d38:	0002      	movs	r2, r0
 8000d3a:	693b      	ldr	r3, [r7, #16]
 8000d3c:	1ad3      	subs	r3, r2, r3
 8000d3e:	2b64      	cmp	r3, #100	; 0x64
 8000d40:	d901      	bls.n	8000d46 <HAL_RCC_OscConfig+0xfa>
 8000d42:	2303      	movs	r3, #3
 8000d44:	e268      	b.n	8001218 <HAL_RCC_OscConfig+0x5cc>
 8000d46:	4b8b      	ldr	r3, [pc, #556]	; (8000f74 <HAL_RCC_OscConfig+0x328>)
 8000d48:	681a      	ldr	r2, [r3, #0]
 8000d4a:	2380      	movs	r3, #128	; 0x80
 8000d4c:	029b      	lsls	r3, r3, #10
 8000d4e:	4013      	ands	r3, r2
 8000d50:	d0f0      	beq.n	8000d34 <HAL_RCC_OscConfig+0xe8>
 8000d52:	e015      	b.n	8000d80 <HAL_RCC_OscConfig+0x134>
 8000d54:	f7ff fab2 	bl	80002bc <HAL_GetTick>
 8000d58:	0003      	movs	r3, r0
 8000d5a:	613b      	str	r3, [r7, #16]
 8000d5c:	e008      	b.n	8000d70 <HAL_RCC_OscConfig+0x124>
 8000d5e:	f7ff faad 	bl	80002bc <HAL_GetTick>
 8000d62:	0002      	movs	r2, r0
 8000d64:	693b      	ldr	r3, [r7, #16]
 8000d66:	1ad3      	subs	r3, r2, r3
 8000d68:	2b64      	cmp	r3, #100	; 0x64
 8000d6a:	d901      	bls.n	8000d70 <HAL_RCC_OscConfig+0x124>
 8000d6c:	2303      	movs	r3, #3
 8000d6e:	e253      	b.n	8001218 <HAL_RCC_OscConfig+0x5cc>
 8000d70:	4b80      	ldr	r3, [pc, #512]	; (8000f74 <HAL_RCC_OscConfig+0x328>)
 8000d72:	681a      	ldr	r2, [r3, #0]
 8000d74:	2380      	movs	r3, #128	; 0x80
 8000d76:	029b      	lsls	r3, r3, #10
 8000d78:	4013      	ands	r3, r2
 8000d7a:	d1f0      	bne.n	8000d5e <HAL_RCC_OscConfig+0x112>
 8000d7c:	e000      	b.n	8000d80 <HAL_RCC_OscConfig+0x134>
 8000d7e:	46c0      	nop			; (mov r8, r8)
 8000d80:	687b      	ldr	r3, [r7, #4]
 8000d82:	681b      	ldr	r3, [r3, #0]
 8000d84:	2202      	movs	r2, #2
 8000d86:	4013      	ands	r3, r2
 8000d88:	d100      	bne.n	8000d8c <HAL_RCC_OscConfig+0x140>
 8000d8a:	e069      	b.n	8000e60 <HAL_RCC_OscConfig+0x214>
 8000d8c:	4b79      	ldr	r3, [pc, #484]	; (8000f74 <HAL_RCC_OscConfig+0x328>)
 8000d8e:	685b      	ldr	r3, [r3, #4]
 8000d90:	220c      	movs	r2, #12
 8000d92:	4013      	ands	r3, r2
 8000d94:	d00b      	beq.n	8000dae <HAL_RCC_OscConfig+0x162>
 8000d96:	4b77      	ldr	r3, [pc, #476]	; (8000f74 <HAL_RCC_OscConfig+0x328>)
 8000d98:	685b      	ldr	r3, [r3, #4]
 8000d9a:	220c      	movs	r2, #12
 8000d9c:	4013      	ands	r3, r2
 8000d9e:	2b08      	cmp	r3, #8
 8000da0:	d11c      	bne.n	8000ddc <HAL_RCC_OscConfig+0x190>
 8000da2:	4b74      	ldr	r3, [pc, #464]	; (8000f74 <HAL_RCC_OscConfig+0x328>)
 8000da4:	685a      	ldr	r2, [r3, #4]
 8000da6:	2380      	movs	r3, #128	; 0x80
 8000da8:	025b      	lsls	r3, r3, #9
 8000daa:	4013      	ands	r3, r2
 8000dac:	d116      	bne.n	8000ddc <HAL_RCC_OscConfig+0x190>
 8000dae:	4b71      	ldr	r3, [pc, #452]	; (8000f74 <HAL_RCC_OscConfig+0x328>)
 8000db0:	681b      	ldr	r3, [r3, #0]
 8000db2:	2202      	movs	r2, #2
 8000db4:	4013      	ands	r3, r2
 8000db6:	d005      	beq.n	8000dc4 <HAL_RCC_OscConfig+0x178>
 8000db8:	687b      	ldr	r3, [r7, #4]
 8000dba:	68db      	ldr	r3, [r3, #12]
 8000dbc:	2b01      	cmp	r3, #1
 8000dbe:	d001      	beq.n	8000dc4 <HAL_RCC_OscConfig+0x178>
 8000dc0:	2301      	movs	r3, #1
 8000dc2:	e229      	b.n	8001218 <HAL_RCC_OscConfig+0x5cc>
 8000dc4:	4b6b      	ldr	r3, [pc, #428]	; (8000f74 <HAL_RCC_OscConfig+0x328>)
 8000dc6:	681b      	ldr	r3, [r3, #0]
 8000dc8:	22f8      	movs	r2, #248	; 0xf8
 8000dca:	4393      	bics	r3, r2
 8000dcc:	0019      	movs	r1, r3
 8000dce:	687b      	ldr	r3, [r7, #4]
 8000dd0:	691b      	ldr	r3, [r3, #16]
 8000dd2:	00da      	lsls	r2, r3, #3
 8000dd4:	4b67      	ldr	r3, [pc, #412]	; (8000f74 <HAL_RCC_OscConfig+0x328>)
 8000dd6:	430a      	orrs	r2, r1
 8000dd8:	601a      	str	r2, [r3, #0]
 8000dda:	e041      	b.n	8000e60 <HAL_RCC_OscConfig+0x214>
 8000ddc:	687b      	ldr	r3, [r7, #4]
 8000dde:	68db      	ldr	r3, [r3, #12]
 8000de0:	2b00      	cmp	r3, #0
 8000de2:	d024      	beq.n	8000e2e <HAL_RCC_OscConfig+0x1e2>
 8000de4:	4b63      	ldr	r3, [pc, #396]	; (8000f74 <HAL_RCC_OscConfig+0x328>)
 8000de6:	681a      	ldr	r2, [r3, #0]
 8000de8:	4b62      	ldr	r3, [pc, #392]	; (8000f74 <HAL_RCC_OscConfig+0x328>)
 8000dea:	2101      	movs	r1, #1
 8000dec:	430a      	orrs	r2, r1
 8000dee:	601a      	str	r2, [r3, #0]
 8000df0:	f7ff fa64 	bl	80002bc <HAL_GetTick>
 8000df4:	0003      	movs	r3, r0
 8000df6:	613b      	str	r3, [r7, #16]
 8000df8:	e008      	b.n	8000e0c <HAL_RCC_OscConfig+0x1c0>
 8000dfa:	f7ff fa5f 	bl	80002bc <HAL_GetTick>
 8000dfe:	0002      	movs	r2, r0
 8000e00:	693b      	ldr	r3, [r7, #16]
 8000e02:	1ad3      	subs	r3, r2, r3
 8000e04:	2b02      	cmp	r3, #2
 8000e06:	d901      	bls.n	8000e0c <HAL_RCC_OscConfig+0x1c0>
 8000e08:	2303      	movs	r3, #3
 8000e0a:	e205      	b.n	8001218 <HAL_RCC_OscConfig+0x5cc>
 8000e0c:	4b59      	ldr	r3, [pc, #356]	; (8000f74 <HAL_RCC_OscConfig+0x328>)
 8000e0e:	681b      	ldr	r3, [r3, #0]
 8000e10:	2202      	movs	r2, #2
 8000e12:	4013      	ands	r3, r2
 8000e14:	d0f1      	beq.n	8000dfa <HAL_RCC_OscConfig+0x1ae>
 8000e16:	4b57      	ldr	r3, [pc, #348]	; (8000f74 <HAL_RCC_OscConfig+0x328>)
 8000e18:	681b      	ldr	r3, [r3, #0]
 8000e1a:	22f8      	movs	r2, #248	; 0xf8
 8000e1c:	4393      	bics	r3, r2
 8000e1e:	0019      	movs	r1, r3
 8000e20:	687b      	ldr	r3, [r7, #4]
 8000e22:	691b      	ldr	r3, [r3, #16]
 8000e24:	00da      	lsls	r2, r3, #3
 8000e26:	4b53      	ldr	r3, [pc, #332]	; (8000f74 <HAL_RCC_OscConfig+0x328>)
 8000e28:	430a      	orrs	r2, r1
 8000e2a:	601a      	str	r2, [r3, #0]
 8000e2c:	e018      	b.n	8000e60 <HAL_RCC_OscConfig+0x214>
 8000e2e:	4b51      	ldr	r3, [pc, #324]	; (8000f74 <HAL_RCC_OscConfig+0x328>)
 8000e30:	681a      	ldr	r2, [r3, #0]
 8000e32:	4b50      	ldr	r3, [pc, #320]	; (8000f74 <HAL_RCC_OscConfig+0x328>)
 8000e34:	2101      	movs	r1, #1
 8000e36:	438a      	bics	r2, r1
 8000e38:	601a      	str	r2, [r3, #0]
 8000e3a:	f7ff fa3f 	bl	80002bc <HAL_GetTick>
 8000e3e:	0003      	movs	r3, r0
 8000e40:	613b      	str	r3, [r7, #16]
 8000e42:	e008      	b.n	8000e56 <HAL_RCC_OscConfig+0x20a>
 8000e44:	f7ff fa3a 	bl	80002bc <HAL_GetTick>
 8000e48:	0002      	movs	r2, r0
 8000e4a:	693b      	ldr	r3, [r7, #16]
 8000e4c:	1ad3      	subs	r3, r2, r3
 8000e4e:	2b02      	cmp	r3, #2
 8000e50:	d901      	bls.n	8000e56 <HAL_RCC_OscConfig+0x20a>
 8000e52:	2303      	movs	r3, #3
 8000e54:	e1e0      	b.n	8001218 <HAL_RCC_OscConfig+0x5cc>
 8000e56:	4b47      	ldr	r3, [pc, #284]	; (8000f74 <HAL_RCC_OscConfig+0x328>)
 8000e58:	681b      	ldr	r3, [r3, #0]
 8000e5a:	2202      	movs	r2, #2
 8000e5c:	4013      	ands	r3, r2
 8000e5e:	d1f1      	bne.n	8000e44 <HAL_RCC_OscConfig+0x1f8>
 8000e60:	687b      	ldr	r3, [r7, #4]
 8000e62:	681b      	ldr	r3, [r3, #0]
 8000e64:	2208      	movs	r2, #8
 8000e66:	4013      	ands	r3, r2
 8000e68:	d036      	beq.n	8000ed8 <HAL_RCC_OscConfig+0x28c>
 8000e6a:	687b      	ldr	r3, [r7, #4]
 8000e6c:	69db      	ldr	r3, [r3, #28]
 8000e6e:	2b00      	cmp	r3, #0
 8000e70:	d019      	beq.n	8000ea6 <HAL_RCC_OscConfig+0x25a>
 8000e72:	4b40      	ldr	r3, [pc, #256]	; (8000f74 <HAL_RCC_OscConfig+0x328>)
 8000e74:	6a5a      	ldr	r2, [r3, #36]	; 0x24
 8000e76:	4b3f      	ldr	r3, [pc, #252]	; (8000f74 <HAL_RCC_OscConfig+0x328>)
 8000e78:	2101      	movs	r1, #1
 8000e7a:	430a      	orrs	r2, r1
 8000e7c:	625a      	str	r2, [r3, #36]	; 0x24
 8000e7e:	f7ff fa1d 	bl	80002bc <HAL_GetTick>
 8000e82:	0003      	movs	r3, r0
 8000e84:	613b      	str	r3, [r7, #16]
 8000e86:	e008      	b.n	8000e9a <HAL_RCC_OscConfig+0x24e>
 8000e88:	f7ff fa18 	bl	80002bc <HAL_GetTick>
 8000e8c:	0002      	movs	r2, r0
 8000e8e:	693b      	ldr	r3, [r7, #16]
 8000e90:	1ad3      	subs	r3, r2, r3
 8000e92:	2b02      	cmp	r3, #2
 8000e94:	d901      	bls.n	8000e9a <HAL_RCC_OscConfig+0x24e>
 8000e96:	2303      	movs	r3, #3
 8000e98:	e1be      	b.n	8001218 <HAL_RCC_OscConfig+0x5cc>
 8000e9a:	4b36      	ldr	r3, [pc, #216]	; (8000f74 <HAL_RCC_OscConfig+0x328>)
 8000e9c:	6a5b      	ldr	r3, [r3, #36]	; 0x24
 8000e9e:	2202      	movs	r2, #2
 8000ea0:	4013      	ands	r3, r2
 8000ea2:	d0f1      	beq.n	8000e88 <HAL_RCC_OscConfig+0x23c>
 8000ea4:	e018      	b.n	8000ed8 <HAL_RCC_OscConfig+0x28c>
 8000ea6:	4b33      	ldr	r3, [pc, #204]	; (8000f74 <HAL_RCC_OscConfig+0x328>)
 8000ea8:	6a5a      	ldr	r2, [r3, #36]	; 0x24
 8000eaa:	4b32      	ldr	r3, [pc, #200]	; (8000f74 <HAL_RCC_OscConfig+0x328>)
 8000eac:	2101      	movs	r1, #1
 8000eae:	438a      	bics	r2, r1
 8000eb0:	625a      	str	r2, [r3, #36]	; 0x24
 8000eb2:	f7ff fa03 	bl	80002bc <HAL_GetTick>
 8000eb6:	0003      	movs	r3, r0
 8000eb8:	613b      	str	r3, [r7, #16]
 8000eba:	e008      	b.n	8000ece <HAL_RCC_OscConfig+0x282>
 8000ebc:	f7ff f9fe 	bl	80002bc <HAL_GetTick>
 8000ec0:	0002      	movs	r2, r0
 8000ec2:	693b      	ldr	r3, [r7, #16]
 8000ec4:	1ad3      	subs	r3, r2, r3
 8000ec6:	2b02      	cmp	r3, #2
 8000ec8:	d901      	bls.n	8000ece <HAL_RCC_OscConfig+0x282>
 8000eca:	2303      	movs	r3, #3
 8000ecc:	e1a4      	b.n	8001218 <HAL_RCC_OscConfig+0x5cc>
 8000ece:	4b29      	ldr	r3, [pc, #164]	; (8000f74 <HAL_RCC_OscConfig+0x328>)
 8000ed0:	6a5b      	ldr	r3, [r3, #36]	; 0x24
 8000ed2:	2202      	movs	r2, #2
 8000ed4:	4013      	ands	r3, r2
 8000ed6:	d1f1      	bne.n	8000ebc <HAL_RCC_OscConfig+0x270>
 8000ed8:	687b      	ldr	r3, [r7, #4]
 8000eda:	681b      	ldr	r3, [r3, #0]
 8000edc:	2204      	movs	r2, #4
 8000ede:	4013      	ands	r3, r2
 8000ee0:	d100      	bne.n	8000ee4 <HAL_RCC_OscConfig+0x298>
 8000ee2:	e0b5      	b.n	8001050 <HAL_RCC_OscConfig+0x404>
 8000ee4:	2317      	movs	r3, #23
 8000ee6:	18fb      	adds	r3, r7, r3
 8000ee8:	2200      	movs	r2, #0
 8000eea:	701a      	strb	r2, [r3, #0]
 8000eec:	4b21      	ldr	r3, [pc, #132]	; (8000f74 <HAL_RCC_OscConfig+0x328>)
 8000eee:	69da      	ldr	r2, [r3, #28]
 8000ef0:	2380      	movs	r3, #128	; 0x80
 8000ef2:	055b      	lsls	r3, r3, #21
 8000ef4:	4013      	ands	r3, r2
 8000ef6:	d111      	bne.n	8000f1c <HAL_RCC_OscConfig+0x2d0>
 8000ef8:	4b1e      	ldr	r3, [pc, #120]	; (8000f74 <HAL_RCC_OscConfig+0x328>)
 8000efa:	69da      	ldr	r2, [r3, #28]
 8000efc:	4b1d      	ldr	r3, [pc, #116]	; (8000f74 <HAL_RCC_OscConfig+0x328>)
 8000efe:	2180      	movs	r1, #128	; 0x80
 8000f00:	0549      	lsls	r1, r1, #21
 8000f02:	430a      	orrs	r2, r1
 8000f04:	61da      	str	r2, [r3, #28]
 8000f06:	4b1b      	ldr	r3, [pc, #108]	; (8000f74 <HAL_RCC_OscConfig+0x328>)
 8000f08:	69da      	ldr	r2, [r3, #28]
 8000f0a:	2380      	movs	r3, #128	; 0x80
 8000f0c:	055b      	lsls	r3, r3, #21
 8000f0e:	4013      	ands	r3, r2
 8000f10:	60fb      	str	r3, [r7, #12]
 8000f12:	68fb      	ldr	r3, [r7, #12]
 8000f14:	2317      	movs	r3, #23
 8000f16:	18fb      	adds	r3, r7, r3
 8000f18:	2201      	movs	r2, #1
 8000f1a:	701a      	strb	r2, [r3, #0]
 8000f1c:	4b18      	ldr	r3, [pc, #96]	; (8000f80 <HAL_RCC_OscConfig+0x334>)
 8000f1e:	681a      	ldr	r2, [r3, #0]
 8000f20:	2380      	movs	r3, #128	; 0x80
 8000f22:	005b      	lsls	r3, r3, #1
 8000f24:	4013      	ands	r3, r2
 8000f26:	d11a      	bne.n	8000f5e <HAL_RCC_OscConfig+0x312>
 8000f28:	4b15      	ldr	r3, [pc, #84]	; (8000f80 <HAL_RCC_OscConfig+0x334>)
 8000f2a:	681a      	ldr	r2, [r3, #0]
 8000f2c:	4b14      	ldr	r3, [pc, #80]	; (8000f80 <HAL_RCC_OscConfig+0x334>)
 8000f2e:	2180      	movs	r1, #128	; 0x80
 8000f30:	0049      	lsls	r1, r1, #1
 8000f32:	430a      	orrs	r2, r1
 8000f34:	601a      	str	r2, [r3, #0]
 8000f36:	f7ff f9c1 	bl	80002bc <HAL_GetTick>
 8000f3a:	0003      	movs	r3, r0
 8000f3c:	613b      	str	r3, [r7, #16]
 8000f3e:	e008      	b.n	8000f52 <HAL_RCC_OscConfig+0x306>
 8000f40:	f7ff f9bc 	bl	80002bc <HAL_GetTick>
 8000f44:	0002      	movs	r2, r0
 8000f46:	693b      	ldr	r3, [r7, #16]
 8000f48:	1ad3      	subs	r3, r2, r3
 8000f4a:	2b64      	cmp	r3, #100	; 0x64
 8000f4c:	d901      	bls.n	8000f52 <HAL_RCC_OscConfig+0x306>
 8000f4e:	2303      	movs	r3, #3
 8000f50:	e162      	b.n	8001218 <HAL_RCC_OscConfig+0x5cc>
 8000f52:	4b0b      	ldr	r3, [pc, #44]	; (8000f80 <HAL_RCC_OscConfig+0x334>)
 8000f54:	681a      	ldr	r2, [r3, #0]
 8000f56:	2380      	movs	r3, #128	; 0x80
 8000f58:	005b      	lsls	r3, r3, #1
 8000f5a:	4013      	ands	r3, r2
 8000f5c:	d0f0      	beq.n	8000f40 <HAL_RCC_OscConfig+0x2f4>
 8000f5e:	687b      	ldr	r3, [r7, #4]
 8000f60:	689b      	ldr	r3, [r3, #8]
 8000f62:	2b01      	cmp	r3, #1
 8000f64:	d10e      	bne.n	8000f84 <HAL_RCC_OscConfig+0x338>
 8000f66:	4b03      	ldr	r3, [pc, #12]	; (8000f74 <HAL_RCC_OscConfig+0x328>)
 8000f68:	6a1a      	ldr	r2, [r3, #32]
 8000f6a:	4b02      	ldr	r3, [pc, #8]	; (8000f74 <HAL_RCC_OscConfig+0x328>)
 8000f6c:	2101      	movs	r1, #1
 8000f6e:	430a      	orrs	r2, r1
 8000f70:	621a      	str	r2, [r3, #32]
 8000f72:	e035      	b.n	8000fe0 <HAL_RCC_OscConfig+0x394>
 8000f74:	40021000 	.word	0x40021000
 8000f78:	fffeffff 	.word	0xfffeffff
 8000f7c:	fffbffff 	.word	0xfffbffff
 8000f80:	40007000 	.word	0x40007000
 8000f84:	687b      	ldr	r3, [r7, #4]
 8000f86:	689b      	ldr	r3, [r3, #8]
 8000f88:	2b00      	cmp	r3, #0
 8000f8a:	d10c      	bne.n	8000fa6 <HAL_RCC_OscConfig+0x35a>
 8000f8c:	4ba4      	ldr	r3, [pc, #656]	; (8001220 <HAL_RCC_OscConfig+0x5d4>)
 8000f8e:	6a1a      	ldr	r2, [r3, #32]
 8000f90:	4ba3      	ldr	r3, [pc, #652]	; (8001220 <HAL_RCC_OscConfig+0x5d4>)
 8000f92:	2101      	movs	r1, #1
 8000f94:	438a      	bics	r2, r1
 8000f96:	621a      	str	r2, [r3, #32]
 8000f98:	4ba1      	ldr	r3, [pc, #644]	; (8001220 <HAL_RCC_OscConfig+0x5d4>)
 8000f9a:	6a1a      	ldr	r2, [r3, #32]
 8000f9c:	4ba0      	ldr	r3, [pc, #640]	; (8001220 <HAL_RCC_OscConfig+0x5d4>)
 8000f9e:	2104      	movs	r1, #4
 8000fa0:	438a      	bics	r2, r1
 8000fa2:	621a      	str	r2, [r3, #32]
 8000fa4:	e01c      	b.n	8000fe0 <HAL_RCC_OscConfig+0x394>
 8000fa6:	687b      	ldr	r3, [r7, #4]
 8000fa8:	689b      	ldr	r3, [r3, #8]
 8000faa:	2b05      	cmp	r3, #5
 8000fac:	d10c      	bne.n	8000fc8 <HAL_RCC_OscConfig+0x37c>
 8000fae:	4b9c      	ldr	r3, [pc, #624]	; (8001220 <HAL_RCC_OscConfig+0x5d4>)
 8000fb0:	6a1a      	ldr	r2, [r3, #32]
 8000fb2:	4b9b      	ldr	r3, [pc, #620]	; (8001220 <HAL_RCC_OscConfig+0x5d4>)
 8000fb4:	2104      	movs	r1, #4
 8000fb6:	430a      	orrs	r2, r1
 8000fb8:	621a      	str	r2, [r3, #32]
 8000fba:	4b99      	ldr	r3, [pc, #612]	; (8001220 <HAL_RCC_OscConfig+0x5d4>)
 8000fbc:	6a1a      	ldr	r2, [r3, #32]
 8000fbe:	4b98      	ldr	r3, [pc, #608]	; (8001220 <HAL_RCC_OscConfig+0x5d4>)
 8000fc0:	2101      	movs	r1, #1
 8000fc2:	430a      	orrs	r2, r1
 8000fc4:	621a      	str	r2, [r3, #32]
 8000fc6:	e00b      	b.n	8000fe0 <HAL_RCC_OscConfig+0x394>
 8000fc8:	4b95      	ldr	r3, [pc, #596]	; (8001220 <HAL_RCC_OscConfig+0x5d4>)
 8000fca:	6a1a      	ldr	r2, [r3, #32]
 8000fcc:	4b94      	ldr	r3, [pc, #592]	; (8001220 <HAL_RCC_OscConfig+0x5d4>)
 8000fce:	2101      	movs	r1, #1
 8000fd0:	438a      	bics	r2, r1
 8000fd2:	621a      	str	r2, [r3, #32]
 8000fd4:	4b92      	ldr	r3, [pc, #584]	; (8001220 <HAL_RCC_OscConfig+0x5d4>)
 8000fd6:	6a1a      	ldr	r2, [r3, #32]
 8000fd8:	4b91      	ldr	r3, [pc, #580]	; (8001220 <HAL_RCC_OscConfig+0x5d4>)
 8000fda:	2104      	movs	r1, #4
 8000fdc:	438a      	bics	r2, r1
 8000fde:	621a      	str	r2, [r3, #32]
 8000fe0:	687b      	ldr	r3, [r7, #4]
 8000fe2:	689b      	ldr	r3, [r3, #8]
 8000fe4:	2b00      	cmp	r3, #0
 8000fe6:	d014      	beq.n	8001012 <HAL_RCC_OscConfig+0x3c6>
 8000fe8:	f7ff f968 	bl	80002bc <HAL_GetTick>
 8000fec:	0003      	movs	r3, r0
 8000fee:	613b      	str	r3, [r7, #16]
 8000ff0:	e009      	b.n	8001006 <HAL_RCC_OscConfig+0x3ba>
 8000ff2:	f7ff f963 	bl	80002bc <HAL_GetTick>
 8000ff6:	0002      	movs	r2, r0
 8000ff8:	693b      	ldr	r3, [r7, #16]
 8000ffa:	1ad3      	subs	r3, r2, r3
 8000ffc:	4a89      	ldr	r2, [pc, #548]	; (8001224 <HAL_RCC_OscConfig+0x5d8>)
 8000ffe:	4293      	cmp	r3, r2
 8001000:	d901      	bls.n	8001006 <HAL_RCC_OscConfig+0x3ba>
 8001002:	2303      	movs	r3, #3
 8001004:	e108      	b.n	8001218 <HAL_RCC_OscConfig+0x5cc>
 8001006:	4b86      	ldr	r3, [pc, #536]	; (8001220 <HAL_RCC_OscConfig+0x5d4>)
 8001008:	6a1b      	ldr	r3, [r3, #32]
 800100a:	2202      	movs	r2, #2
 800100c:	4013      	ands	r3, r2
 800100e:	d0f0      	beq.n	8000ff2 <HAL_RCC_OscConfig+0x3a6>
 8001010:	e013      	b.n	800103a <HAL_RCC_OscConfig+0x3ee>
 8001012:	f7ff f953 	bl	80002bc <HAL_GetTick>
 8001016:	0003      	movs	r3, r0
 8001018:	613b      	str	r3, [r7, #16]
 800101a:	e009      	b.n	8001030 <HAL_RCC_OscConfig+0x3e4>
 800101c:	f7ff f94e 	bl	80002bc <HAL_GetTick>
 8001020:	0002      	movs	r2, r0
 8001022:	693b      	ldr	r3, [r7, #16]
 8001024:	1ad3      	subs	r3, r2, r3
 8001026:	4a7f      	ldr	r2, [pc, #508]	; (8001224 <HAL_RCC_OscConfig+0x5d8>)
 8001028:	4293      	cmp	r3, r2
 800102a:	d901      	bls.n	8001030 <HAL_RCC_OscConfig+0x3e4>
 800102c:	2303      	movs	r3, #3
 800102e:	e0f3      	b.n	8001218 <HAL_RCC_OscConfig+0x5cc>
 8001030:	4b7b      	ldr	r3, [pc, #492]	; (8001220 <HAL_RCC_OscConfig+0x5d4>)
 8001032:	6a1b      	ldr	r3, [r3, #32]
 8001034:	2202      	movs	r2, #2
 8001036:	4013      	ands	r3, r2
 8001038:	d1f0      	bne.n	800101c <HAL_RCC_OscConfig+0x3d0>
 800103a:	2317      	movs	r3, #23
 800103c:	18fb      	adds	r3, r7, r3
 800103e:	781b      	ldrb	r3, [r3, #0]
 8001040:	2b01      	cmp	r3, #1
 8001042:	d105      	bne.n	8001050 <HAL_RCC_OscConfig+0x404>
 8001044:	4b76      	ldr	r3, [pc, #472]	; (8001220 <HAL_RCC_OscConfig+0x5d4>)
 8001046:	69da      	ldr	r2, [r3, #28]
 8001048:	4b75      	ldr	r3, [pc, #468]	; (8001220 <HAL_RCC_OscConfig+0x5d4>)
 800104a:	4977      	ldr	r1, [pc, #476]	; (8001228 <HAL_RCC_OscConfig+0x5dc>)
 800104c:	400a      	ands	r2, r1
 800104e:	61da      	str	r2, [r3, #28]
 8001050:	687b      	ldr	r3, [r7, #4]
 8001052:	681b      	ldr	r3, [r3, #0]
 8001054:	2210      	movs	r2, #16
 8001056:	4013      	ands	r3, r2
 8001058:	d063      	beq.n	8001122 <HAL_RCC_OscConfig+0x4d6>
 800105a:	687b      	ldr	r3, [r7, #4]
 800105c:	695b      	ldr	r3, [r3, #20]
 800105e:	2b01      	cmp	r3, #1
 8001060:	d12a      	bne.n	80010b8 <HAL_RCC_OscConfig+0x46c>
 8001062:	4b6f      	ldr	r3, [pc, #444]	; (8001220 <HAL_RCC_OscConfig+0x5d4>)
 8001064:	6b5a      	ldr	r2, [r3, #52]	; 0x34
 8001066:	4b6e      	ldr	r3, [pc, #440]	; (8001220 <HAL_RCC_OscConfig+0x5d4>)
 8001068:	2104      	movs	r1, #4
 800106a:	430a      	orrs	r2, r1
 800106c:	635a      	str	r2, [r3, #52]	; 0x34
 800106e:	4b6c      	ldr	r3, [pc, #432]	; (8001220 <HAL_RCC_OscConfig+0x5d4>)
 8001070:	6b5a      	ldr	r2, [r3, #52]	; 0x34
 8001072:	4b6b      	ldr	r3, [pc, #428]	; (8001220 <HAL_RCC_OscConfig+0x5d4>)
 8001074:	2101      	movs	r1, #1
 8001076:	430a      	orrs	r2, r1
 8001078:	635a      	str	r2, [r3, #52]	; 0x34
 800107a:	f7ff f91f 	bl	80002bc <HAL_GetTick>
 800107e:	0003      	movs	r3, r0
 8001080:	613b      	str	r3, [r7, #16]
 8001082:	e008      	b.n	8001096 <HAL_RCC_OscConfig+0x44a>
 8001084:	f7ff f91a 	bl	80002bc <HAL_GetTick>
 8001088:	0002      	movs	r2, r0
 800108a:	693b      	ldr	r3, [r7, #16]
 800108c:	1ad3      	subs	r3, r2, r3
 800108e:	2b02      	cmp	r3, #2
 8001090:	d901      	bls.n	8001096 <HAL_RCC_OscConfig+0x44a>
 8001092:	2303      	movs	r3, #3
 8001094:	e0c0      	b.n	8001218 <HAL_RCC_OscConfig+0x5cc>
 8001096:	4b62      	ldr	r3, [pc, #392]	; (8001220 <HAL_RCC_OscConfig+0x5d4>)
 8001098:	6b5b      	ldr	r3, [r3, #52]	; 0x34
 800109a:	2202      	movs	r2, #2
 800109c:	4013      	ands	r3, r2
 800109e:	d0f1      	beq.n	8001084 <HAL_RCC_OscConfig+0x438>
 80010a0:	4b5f      	ldr	r3, [pc, #380]	; (8001220 <HAL_RCC_OscConfig+0x5d4>)
 80010a2:	6b5b      	ldr	r3, [r3, #52]	; 0x34
 80010a4:	22f8      	movs	r2, #248	; 0xf8
 80010a6:	4393      	bics	r3, r2
 80010a8:	0019      	movs	r1, r3
 80010aa:	687b      	ldr	r3, [r7, #4]
 80010ac:	699b      	ldr	r3, [r3, #24]
 80010ae:	00da      	lsls	r2, r3, #3
 80010b0:	4b5b      	ldr	r3, [pc, #364]	; (8001220 <HAL_RCC_OscConfig+0x5d4>)
 80010b2:	430a      	orrs	r2, r1
 80010b4:	635a      	str	r2, [r3, #52]	; 0x34
 80010b6:	e034      	b.n	8001122 <HAL_RCC_OscConfig+0x4d6>
 80010b8:	687b      	ldr	r3, [r7, #4]
 80010ba:	695b      	ldr	r3, [r3, #20]
 80010bc:	3305      	adds	r3, #5
 80010be:	d111      	bne.n	80010e4 <HAL_RCC_OscConfig+0x498>
 80010c0:	4b57      	ldr	r3, [pc, #348]	; (8001220 <HAL_RCC_OscConfig+0x5d4>)
 80010c2:	6b5a      	ldr	r2, [r3, #52]	; 0x34
 80010c4:	4b56      	ldr	r3, [pc, #344]	; (8001220 <HAL_RCC_OscConfig+0x5d4>)
 80010c6:	2104      	movs	r1, #4
 80010c8:	438a      	bics	r2, r1
 80010ca:	635a      	str	r2, [r3, #52]	; 0x34
 80010cc:	4b54      	ldr	r3, [pc, #336]	; (8001220 <HAL_RCC_OscConfig+0x5d4>)
 80010ce:	6b5b      	ldr	r3, [r3, #52]	; 0x34
 80010d0:	22f8      	movs	r2, #248	; 0xf8
 80010d2:	4393      	bics	r3, r2
 80010d4:	0019      	movs	r1, r3
 80010d6:	687b      	ldr	r3, [r7, #4]
 80010d8:	699b      	ldr	r3, [r3, #24]
 80010da:	00da      	lsls	r2, r3, #3
 80010dc:	4b50      	ldr	r3, [pc, #320]	; (8001220 <HAL_RCC_OscConfig+0x5d4>)
 80010de:	430a      	orrs	r2, r1
 80010e0:	635a      	str	r2, [r3, #52]	; 0x34
 80010e2:	e01e      	b.n	8001122 <HAL_RCC_OscConfig+0x4d6>
 80010e4:	4b4e      	ldr	r3, [pc, #312]	; (8001220 <HAL_RCC_OscConfig+0x5d4>)
 80010e6:	6b5a      	ldr	r2, [r3, #52]	; 0x34
 80010e8:	4b4d      	ldr	r3, [pc, #308]	; (8001220 <HAL_RCC_OscConfig+0x5d4>)
 80010ea:	2104      	movs	r1, #4
 80010ec:	430a      	orrs	r2, r1
 80010ee:	635a      	str	r2, [r3, #52]	; 0x34
 80010f0:	4b4b      	ldr	r3, [pc, #300]	; (8001220 <HAL_RCC_OscConfig+0x5d4>)
 80010f2:	6b5a      	ldr	r2, [r3, #52]	; 0x34
 80010f4:	4b4a      	ldr	r3, [pc, #296]	; (8001220 <HAL_RCC_OscConfig+0x5d4>)
 80010f6:	2101      	movs	r1, #1
 80010f8:	438a      	bics	r2, r1
 80010fa:	635a      	str	r2, [r3, #52]	; 0x34
 80010fc:	f7ff f8de 	bl	80002bc <HAL_GetTick>
 8001100:	0003      	movs	r3, r0
 8001102:	613b      	str	r3, [r7, #16]
 8001104:	e008      	b.n	8001118 <HAL_RCC_OscConfig+0x4cc>
 8001106:	f7ff f8d9 	bl	80002bc <HAL_GetTick>
 800110a:	0002      	movs	r2, r0
 800110c:	693b      	ldr	r3, [r7, #16]
 800110e:	1ad3      	subs	r3, r2, r3
 8001110:	2b02      	cmp	r3, #2
 8001112:	d901      	bls.n	8001118 <HAL_RCC_OscConfig+0x4cc>
 8001114:	2303      	movs	r3, #3
 8001116:	e07f      	b.n	8001218 <HAL_RCC_OscConfig+0x5cc>
 8001118:	4b41      	ldr	r3, [pc, #260]	; (8001220 <HAL_RCC_OscConfig+0x5d4>)
 800111a:	6b5b      	ldr	r3, [r3, #52]	; 0x34
 800111c:	2202      	movs	r2, #2
 800111e:	4013      	ands	r3, r2
 8001120:	d1f1      	bne.n	8001106 <HAL_RCC_OscConfig+0x4ba>
 8001122:	687b      	ldr	r3, [r7, #4]
 8001124:	6a1b      	ldr	r3, [r3, #32]
 8001126:	2b00      	cmp	r3, #0
 8001128:	d100      	bne.n	800112c <HAL_RCC_OscConfig+0x4e0>
 800112a:	e074      	b.n	8001216 <HAL_RCC_OscConfig+0x5ca>
 800112c:	4b3c      	ldr	r3, [pc, #240]	; (8001220 <HAL_RCC_OscConfig+0x5d4>)
 800112e:	685b      	ldr	r3, [r3, #4]
 8001130:	220c      	movs	r2, #12
 8001132:	4013      	ands	r3, r2
 8001134:	2b08      	cmp	r3, #8
 8001136:	d100      	bne.n	800113a <HAL_RCC_OscConfig+0x4ee>
 8001138:	e06b      	b.n	8001212 <HAL_RCC_OscConfig+0x5c6>
 800113a:	687b      	ldr	r3, [r7, #4]
 800113c:	6a1b      	ldr	r3, [r3, #32]
 800113e:	2b02      	cmp	r3, #2
 8001140:	d14c      	bne.n	80011dc <HAL_RCC_OscConfig+0x590>
 8001142:	4b37      	ldr	r3, [pc, #220]	; (8001220 <HAL_RCC_OscConfig+0x5d4>)
 8001144:	681a      	ldr	r2, [r3, #0]
 8001146:	4b36      	ldr	r3, [pc, #216]	; (8001220 <HAL_RCC_OscConfig+0x5d4>)
 8001148:	4938      	ldr	r1, [pc, #224]	; (800122c <HAL_RCC_OscConfig+0x5e0>)
 800114a:	400a      	ands	r2, r1
 800114c:	601a      	str	r2, [r3, #0]
 800114e:	f7ff f8b5 	bl	80002bc <HAL_GetTick>
 8001152:	0003      	movs	r3, r0
 8001154:	613b      	str	r3, [r7, #16]
 8001156:	e008      	b.n	800116a <HAL_RCC_OscConfig+0x51e>
 8001158:	f7ff f8b0 	bl	80002bc <HAL_GetTick>
 800115c:	0002      	movs	r2, r0
 800115e:	693b      	ldr	r3, [r7, #16]
 8001160:	1ad3      	subs	r3, r2, r3
 8001162:	2b02      	cmp	r3, #2
 8001164:	d901      	bls.n	800116a <HAL_RCC_OscConfig+0x51e>
 8001166:	2303      	movs	r3, #3
 8001168:	e056      	b.n	8001218 <HAL_RCC_OscConfig+0x5cc>
 800116a:	4b2d      	ldr	r3, [pc, #180]	; (8001220 <HAL_RCC_OscConfig+0x5d4>)
 800116c:	681a      	ldr	r2, [r3, #0]
 800116e:	2380      	movs	r3, #128	; 0x80
 8001170:	049b      	lsls	r3, r3, #18
 8001172:	4013      	ands	r3, r2
 8001174:	d1f0      	bne.n	8001158 <HAL_RCC_OscConfig+0x50c>
 8001176:	4b2a      	ldr	r3, [pc, #168]	; (8001220 <HAL_RCC_OscConfig+0x5d4>)
 8001178:	6adb      	ldr	r3, [r3, #44]	; 0x2c
 800117a:	220f      	movs	r2, #15
 800117c:	4393      	bics	r3, r2
 800117e:	0019      	movs	r1, r3
 8001180:	687b      	ldr	r3, [r7, #4]
 8001182:	6ada      	ldr	r2, [r3, #44]	; 0x2c
 8001184:	4b26      	ldr	r3, [pc, #152]	; (8001220 <HAL_RCC_OscConfig+0x5d4>)
 8001186:	430a      	orrs	r2, r1
 8001188:	62da      	str	r2, [r3, #44]	; 0x2c
 800118a:	4b25      	ldr	r3, [pc, #148]	; (8001220 <HAL_RCC_OscConfig+0x5d4>)
 800118c:	685b      	ldr	r3, [r3, #4]
 800118e:	4a28      	ldr	r2, [pc, #160]	; (8001230 <HAL_RCC_OscConfig+0x5e4>)
 8001190:	4013      	ands	r3, r2
 8001192:	0019      	movs	r1, r3
 8001194:	687b      	ldr	r3, [r7, #4]
 8001196:	6a9a      	ldr	r2, [r3, #40]	; 0x28
 8001198:	687b      	ldr	r3, [r7, #4]
 800119a:	6a5b      	ldr	r3, [r3, #36]	; 0x24
 800119c:	431a      	orrs	r2, r3
 800119e:	4b20      	ldr	r3, [pc, #128]	; (8001220 <HAL_RCC_OscConfig+0x5d4>)
 80011a0:	430a      	orrs	r2, r1
 80011a2:	605a      	str	r2, [r3, #4]
 80011a4:	4b1e      	ldr	r3, [pc, #120]	; (8001220 <HAL_RCC_OscConfig+0x5d4>)
 80011a6:	681a      	ldr	r2, [r3, #0]
 80011a8:	4b1d      	ldr	r3, [pc, #116]	; (8001220 <HAL_RCC_OscConfig+0x5d4>)
 80011aa:	2180      	movs	r1, #128	; 0x80
 80011ac:	0449      	lsls	r1, r1, #17
 80011ae:	430a      	orrs	r2, r1
 80011b0:	601a      	str	r2, [r3, #0]
 80011b2:	f7ff f883 	bl	80002bc <HAL_GetTick>
 80011b6:	0003      	movs	r3, r0
 80011b8:	613b      	str	r3, [r7, #16]
 80011ba:	e008      	b.n	80011ce <HAL_RCC_OscConfig+0x582>
 80011bc:	f7ff f87e 	bl	80002bc <HAL_GetTick>
 80011c0:	0002      	movs	r2, r0
 80011c2:	693b      	ldr	r3, [r7, #16]
 80011c4:	1ad3      	subs	r3, r2, r3
 80011c6:	2b02      	cmp	r3, #2
 80011c8:	d901      	bls.n	80011ce <HAL_RCC_OscConfig+0x582>
 80011ca:	2303      	movs	r3, #3
 80011cc:	e024      	b.n	8001218 <HAL_RCC_OscConfig+0x5cc>
 80011ce:	4b14      	ldr	r3, [pc, #80]	; (8001220 <HAL_RCC_OscConfig+0x5d4>)
 80011d0:	681a      	ldr	r2, [r3, #0]
 80011d2:	2380      	movs	r3, #128	; 0x80
 80011d4:	049b      	lsls	r3, r3, #18
 80011d6:	4013      	ands	r3, r2
 80011d8:	d0f0      	beq.n	80011bc <HAL_RCC_OscConfig+0x570>
 80011da:	e01c      	b.n	8001216 <HAL_RCC_OscConfig+0x5ca>
 80011dc:	4b10      	ldr	r3, [pc, #64]	; (8001220 <HAL_RCC_OscConfig+0x5d4>)
 80011de:	681a      	ldr	r2, [r3, #0]
 80011e0:	4b0f      	ldr	r3, [pc, #60]	; (8001220 <HAL_RCC_OscConfig+0x5d4>)
 80011e2:	4912      	ldr	r1, [pc, #72]	; (800122c <HAL_RCC_OscConfig+0x5e0>)
 80011e4:	400a      	ands	r2, r1
 80011e6:	601a      	str	r2, [r3, #0]
 80011e8:	f7ff f868 	bl	80002bc <HAL_GetTick>
 80011ec:	0003      	movs	r3, r0
 80011ee:	613b      	str	r3, [r7, #16]
 80011f0:	e008      	b.n	8001204 <HAL_RCC_OscConfig+0x5b8>
 80011f2:	f7ff f863 	bl	80002bc <HAL_GetTick>
 80011f6:	0002      	movs	r2, r0
 80011f8:	693b      	ldr	r3, [r7, #16]
 80011fa:	1ad3      	subs	r3, r2, r3
 80011fc:	2b02      	cmp	r3, #2
 80011fe:	d901      	bls.n	8001204 <HAL_RCC_OscConfig+0x5b8>
 8001200:	2303      	movs	r3, #3
 8001202:	e009      	b.n	8001218 <HAL_RCC_OscConfig+0x5cc>
 8001204:	4b06      	ldr	r3, [pc, #24]	; (8001220 <HAL_RCC_OscConfig+0x5d4>)
 8001206:	681a      	ldr	r2, [r3, #0]
 8001208:	2380      	movs	r3, #128	; 0x80
 800120a:	049b      	lsls	r3, r3, #18
 800120c:	4013      	ands	r3, r2
 800120e:	d1f0      	bne.n	80011f2 <HAL_RCC_OscConfig+0x5a6>
 8001210:	e001      	b.n	8001216 <HAL_RCC_OscConfig+0x5ca>
 8001212:	2301      	movs	r3, #1
 8001214:	e000      	b.n	8001218 <HAL_RCC_OscConfig+0x5cc>
 8001216:	2300      	movs	r3, #0
 8001218:	0018      	movs	r0, r3
 800121a:	46bd      	mov	sp, r7
 800121c:	b006      	add	sp, #24
 800121e:	bd80      	pop	{r7, pc}
 8001220:	40021000 	.word	0x40021000
 8001224:	00001388 	.word	0x00001388
 8001228:	efffffff 	.word	0xefffffff
 800122c:	feffffff 	.word	0xfeffffff
 8001230:	ffc2ffff 	.word	0xffc2ffff

08001234 <HAL_RCC_ClockConfig>:
 8001234:	b580      	push	{r7, lr}
 8001236:	b084      	sub	sp, #16
 8001238:	af00      	add	r7, sp, #0
 800123a:	6078      	str	r0, [r7, #4]
 800123c:	6039      	str	r1, [r7, #0]
 800123e:	2300      	movs	r3, #0
 8001240:	60fb      	str	r3, [r7, #12]
 8001242:	4b6a      	ldr	r3, [pc, #424]	; (80013ec <HAL_RCC_ClockConfig+0x1b8>)
 8001244:	681b      	ldr	r3, [r3, #0]
 8001246:	2201      	movs	r2, #1
 8001248:	4013      	ands	r3, r2
 800124a:	683a      	ldr	r2, [r7, #0]
 800124c:	429a      	cmp	r2, r3
 800124e:	d911      	bls.n	8001274 <HAL_RCC_ClockConfig+0x40>
 8001250:	4b66      	ldr	r3, [pc, #408]	; (80013ec <HAL_RCC_ClockConfig+0x1b8>)
 8001252:	681b      	ldr	r3, [r3, #0]
 8001254:	2201      	movs	r2, #1
 8001256:	4393      	bics	r3, r2
 8001258:	0019      	movs	r1, r3
 800125a:	4b64      	ldr	r3, [pc, #400]	; (80013ec <HAL_RCC_ClockConfig+0x1b8>)
 800125c:	683a      	ldr	r2, [r7, #0]
 800125e:	430a      	orrs	r2, r1
 8001260:	601a      	str	r2, [r3, #0]
 8001262:	4b62      	ldr	r3, [pc, #392]	; (80013ec <HAL_RCC_ClockConfig+0x1b8>)
 8001264:	681b      	ldr	r3, [r3, #0]
 8001266:	2201      	movs	r2, #1
 8001268:	4013      	ands	r3, r2
 800126a:	683a      	ldr	r2, [r7, #0]
 800126c:	429a      	cmp	r2, r3
 800126e:	d001      	beq.n	8001274 <HAL_RCC_ClockConfig+0x40>
 8001270:	2301      	movs	r3, #1
 8001272:	e0b6      	b.n	80013e2 <HAL_RCC_ClockConfig+0x1ae>
 8001274:	687b      	ldr	r3, [r7, #4]
 8001276:	681b      	ldr	r3, [r3, #0]
 8001278:	2202      	movs	r2, #2
 800127a:	4013      	ands	r3, r2
 800127c:	d009      	beq.n	8001292 <HAL_RCC_ClockConfig+0x5e>
 800127e:	4b5c      	ldr	r3, [pc, #368]	; (80013f0 <HAL_RCC_ClockConfig+0x1bc>)
 8001280:	685b      	ldr	r3, [r3, #4]
 8001282:	22f0      	movs	r2, #240	; 0xf0
 8001284:	4393      	bics	r3, r2
 8001286:	0019      	movs	r1, r3
 8001288:	687b      	ldr	r3, [r7, #4]
 800128a:	689a      	ldr	r2, [r3, #8]
 800128c:	4b58      	ldr	r3, [pc, #352]	; (80013f0 <HAL_RCC_ClockConfig+0x1bc>)
 800128e:	430a      	orrs	r2, r1
 8001290:	605a      	str	r2, [r3, #4]
 8001292:	687b      	ldr	r3, [r7, #4]
 8001294:	681b      	ldr	r3, [r3, #0]
 8001296:	2201      	movs	r2, #1
 8001298:	4013      	ands	r3, r2
 800129a:	d100      	bne.n	800129e <HAL_RCC_ClockConfig+0x6a>
 800129c:	e067      	b.n	800136e <HAL_RCC_ClockConfig+0x13a>
 800129e:	687b      	ldr	r3, [r7, #4]
 80012a0:	685b      	ldr	r3, [r3, #4]
 80012a2:	2b01      	cmp	r3, #1
 80012a4:	d107      	bne.n	80012b6 <HAL_RCC_ClockConfig+0x82>
 80012a6:	4b52      	ldr	r3, [pc, #328]	; (80013f0 <HAL_RCC_ClockConfig+0x1bc>)
 80012a8:	681a      	ldr	r2, [r3, #0]
 80012aa:	2380      	movs	r3, #128	; 0x80
 80012ac:	029b      	lsls	r3, r3, #10
 80012ae:	4013      	ands	r3, r2
 80012b0:	d114      	bne.n	80012dc <HAL_RCC_ClockConfig+0xa8>
 80012b2:	2301      	movs	r3, #1
 80012b4:	e095      	b.n	80013e2 <HAL_RCC_ClockConfig+0x1ae>
 80012b6:	687b      	ldr	r3, [r7, #4]
 80012b8:	685b      	ldr	r3, [r3, #4]
 80012ba:	2b02      	cmp	r3, #2
 80012bc:	d107      	bne.n	80012ce <HAL_RCC_ClockConfig+0x9a>
 80012be:	4b4c      	ldr	r3, [pc, #304]	; (80013f0 <HAL_RCC_ClockConfig+0x1bc>)
 80012c0:	681a      	ldr	r2, [r3, #0]
 80012c2:	2380      	movs	r3, #128	; 0x80
 80012c4:	049b      	lsls	r3, r3, #18
 80012c6:	4013      	ands	r3, r2
 80012c8:	d108      	bne.n	80012dc <HAL_RCC_ClockConfig+0xa8>
 80012ca:	2301      	movs	r3, #1
 80012cc:	e089      	b.n	80013e2 <HAL_RCC_ClockConfig+0x1ae>
 80012ce:	4b48      	ldr	r3, [pc, #288]	; (80013f0 <HAL_RCC_ClockConfig+0x1bc>)
 80012d0:	681b      	ldr	r3, [r3, #0]
 80012d2:	2202      	movs	r2, #2
 80012d4:	4013      	ands	r3, r2
 80012d6:	d101      	bne.n	80012dc <HAL_RCC_ClockConfig+0xa8>
 80012d8:	2301      	movs	r3, #1
 80012da:	e082      	b.n	80013e2 <HAL_RCC_ClockConfig+0x1ae>
 80012dc:	4b44      	ldr	r3, [pc, #272]	; (80013f0 <HAL_RCC_ClockConfig+0x1bc>)
 80012de:	685b      	ldr	r3, [r3, #4]
 80012e0:	2203      	movs	r2, #3
 80012e2:	4393      	bics	r3, r2
 80012e4:	0019      	movs	r1, r3
 80012e6:	687b      	ldr	r3, [r7, #4]
 80012e8:	685a      	ldr	r2, [r3, #4]
 80012ea:	4b41      	ldr	r3, [pc, #260]	; (80013f0 <HAL_RCC_ClockConfig+0x1bc>)
 80012ec:	430a      	orrs	r2, r1
 80012ee:	605a      	str	r2, [r3, #4]
 80012f0:	f7fe ffe4 	bl	80002bc <HAL_GetTick>
 80012f4:	0003      	movs	r3, r0
 80012f6:	60fb      	str	r3, [r7, #12]
 80012f8:	687b      	ldr	r3, [r7, #4]
 80012fa:	685b      	ldr	r3, [r3, #4]
 80012fc:	2b01      	cmp	r3, #1
 80012fe:	d111      	bne.n	8001324 <HAL_RCC_ClockConfig+0xf0>
 8001300:	e009      	b.n	8001316 <HAL_RCC_ClockConfig+0xe2>
 8001302:	f7fe ffdb 	bl	80002bc <HAL_GetTick>
 8001306:	0002      	movs	r2, r0
 8001308:	68fb      	ldr	r3, [r7, #12]
 800130a:	1ad3      	subs	r3, r2, r3
 800130c:	4a39      	ldr	r2, [pc, #228]	; (80013f4 <HAL_RCC_ClockConfig+0x1c0>)
 800130e:	4293      	cmp	r3, r2
 8001310:	d901      	bls.n	8001316 <HAL_RCC_ClockConfig+0xe2>
 8001312:	2303      	movs	r3, #3
 8001314:	e065      	b.n	80013e2 <HAL_RCC_ClockConfig+0x1ae>
 8001316:	4b36      	ldr	r3, [pc, #216]	; (80013f0 <HAL_RCC_ClockConfig+0x1bc>)
 8001318:	685b      	ldr	r3, [r3, #4]
 800131a:	220c      	movs	r2, #12
 800131c:	4013      	ands	r3, r2
 800131e:	2b04      	cmp	r3, #4
 8001320:	d1ef      	bne.n	8001302 <HAL_RCC_ClockConfig+0xce>
 8001322:	e024      	b.n	800136e <HAL_RCC_ClockConfig+0x13a>
 8001324:	687b      	ldr	r3, [r7, #4]
 8001326:	685b      	ldr	r3, [r3, #4]
 8001328:	2b02      	cmp	r3, #2
 800132a:	d11b      	bne.n	8001364 <HAL_RCC_ClockConfig+0x130>
 800132c:	e009      	b.n	8001342 <HAL_RCC_ClockConfig+0x10e>
 800132e:	f7fe ffc5 	bl	80002bc <HAL_GetTick>
 8001332:	0002      	movs	r2, r0
 8001334:	68fb      	ldr	r3, [r7, #12]
 8001336:	1ad3      	subs	r3, r2, r3
 8001338:	4a2e      	ldr	r2, [pc, #184]	; (80013f4 <HAL_RCC_ClockConfig+0x1c0>)
 800133a:	4293      	cmp	r3, r2
 800133c:	d901      	bls.n	8001342 <HAL_RCC_ClockConfig+0x10e>
 800133e:	2303      	movs	r3, #3
 8001340:	e04f      	b.n	80013e2 <HAL_RCC_ClockConfig+0x1ae>
 8001342:	4b2b      	ldr	r3, [pc, #172]	; (80013f0 <HAL_RCC_ClockConfig+0x1bc>)
 8001344:	685b      	ldr	r3, [r3, #4]
 8001346:	220c      	movs	r2, #12
 8001348:	4013      	ands	r3, r2
 800134a:	2b08      	cmp	r3, #8
 800134c:	d1ef      	bne.n	800132e <HAL_RCC_ClockConfig+0xfa>
 800134e:	e00e      	b.n	800136e <HAL_RCC_ClockConfig+0x13a>
 8001350:	f7fe ffb4 	bl	80002bc <HAL_GetTick>
 8001354:	0002      	movs	r2, r0
 8001356:	68fb      	ldr	r3, [r7, #12]
 8001358:	1ad3      	subs	r3, r2, r3
 800135a:	4a26      	ldr	r2, [pc, #152]	; (80013f4 <HAL_RCC_ClockConfig+0x1c0>)
 800135c:	4293      	cmp	r3, r2
 800135e:	d901      	bls.n	8001364 <HAL_RCC_ClockConfig+0x130>
 8001360:	2303      	movs	r3, #3
 8001362:	e03e      	b.n	80013e2 <HAL_RCC_ClockConfig+0x1ae>
 8001364:	4b22      	ldr	r3, [pc, #136]	; (80013f0 <HAL_RCC_ClockConfig+0x1bc>)
 8001366:	685b      	ldr	r3, [r3, #4]
 8001368:	220c      	movs	r2, #12
 800136a:	4013      	ands	r3, r2
 800136c:	d1f0      	bne.n	8001350 <HAL_RCC_ClockConfig+0x11c>
 800136e:	4b1f      	ldr	r3, [pc, #124]	; (80013ec <HAL_RCC_ClockConfig+0x1b8>)
 8001370:	681b      	ldr	r3, [r3, #0]
 8001372:	2201      	movs	r2, #1
 8001374:	4013      	ands	r3, r2
 8001376:	683a      	ldr	r2, [r7, #0]
 8001378:	429a      	cmp	r2, r3
 800137a:	d211      	bcs.n	80013a0 <HAL_RCC_ClockConfig+0x16c>
 800137c:	4b1b      	ldr	r3, [pc, #108]	; (80013ec <HAL_RCC_ClockConfig+0x1b8>)
 800137e:	681b      	ldr	r3, [r3, #0]
 8001380:	2201      	movs	r2, #1
 8001382:	4393      	bics	r3, r2
 8001384:	0019      	movs	r1, r3
 8001386:	4b19      	ldr	r3, [pc, #100]	; (80013ec <HAL_RCC_ClockConfig+0x1b8>)
 8001388:	683a      	ldr	r2, [r7, #0]
 800138a:	430a      	orrs	r2, r1
 800138c:	601a      	str	r2, [r3, #0]
 800138e:	4b17      	ldr	r3, [pc, #92]	; (80013ec <HAL_RCC_ClockConfig+0x1b8>)
 8001390:	681b      	ldr	r3, [r3, #0]
 8001392:	2201      	movs	r2, #1
 8001394:	4013      	ands	r3, r2
 8001396:	683a      	ldr	r2, [r7, #0]
 8001398:	429a      	cmp	r2, r3
 800139a:	d001      	beq.n	80013a0 <HAL_RCC_ClockConfig+0x16c>
 800139c:	2301      	movs	r3, #1
 800139e:	e020      	b.n	80013e2 <HAL_RCC_ClockConfig+0x1ae>
 80013a0:	687b      	ldr	r3, [r7, #4]
 80013a2:	681b      	ldr	r3, [r3, #0]
 80013a4:	2204      	movs	r2, #4
 80013a6:	4013      	ands	r3, r2
 80013a8:	d009      	beq.n	80013be <HAL_RCC_ClockConfig+0x18a>
 80013aa:	4b11      	ldr	r3, [pc, #68]	; (80013f0 <HAL_RCC_ClockConfig+0x1bc>)
 80013ac:	685b      	ldr	r3, [r3, #4]
 80013ae:	4a12      	ldr	r2, [pc, #72]	; (80013f8 <HAL_RCC_ClockConfig+0x1c4>)
 80013b0:	4013      	ands	r3, r2
 80013b2:	0019      	movs	r1, r3
 80013b4:	687b      	ldr	r3, [r7, #4]
 80013b6:	68da      	ldr	r2, [r3, #12]
 80013b8:	4b0d      	ldr	r3, [pc, #52]	; (80013f0 <HAL_RCC_ClockConfig+0x1bc>)
 80013ba:	430a      	orrs	r2, r1
 80013bc:	605a      	str	r2, [r3, #4]
 80013be:	f000 f821 	bl	8001404 <HAL_RCC_GetSysClockFreq>
 80013c2:	0001      	movs	r1, r0
 80013c4:	4b0a      	ldr	r3, [pc, #40]	; (80013f0 <HAL_RCC_ClockConfig+0x1bc>)
 80013c6:	685b      	ldr	r3, [r3, #4]
 80013c8:	091b      	lsrs	r3, r3, #4
 80013ca:	220f      	movs	r2, #15
 80013cc:	4013      	ands	r3, r2
 80013ce:	4a0b      	ldr	r2, [pc, #44]	; (80013fc <HAL_RCC_ClockConfig+0x1c8>)
 80013d0:	5cd3      	ldrb	r3, [r2, r3]
 80013d2:	000a      	movs	r2, r1
 80013d4:	40da      	lsrs	r2, r3
 80013d6:	4b0a      	ldr	r3, [pc, #40]	; (8001400 <HAL_RCC_ClockConfig+0x1cc>)
 80013d8:	601a      	str	r2, [r3, #0]
 80013da:	2000      	movs	r0, #0
 80013dc:	f7fe ff46 	bl	800026c <HAL_InitTick>
 80013e0:	2300      	movs	r3, #0
 80013e2:	0018      	movs	r0, r3
 80013e4:	46bd      	mov	sp, r7
 80013e6:	b004      	add	sp, #16
 80013e8:	bd80      	pop	{r7, pc}
 80013ea:	46c0      	nop			; (mov r8, r8)
 80013ec:	40022000 	.word	0x40022000
 80013f0:	40021000 	.word	0x40021000
 80013f4:	00001388 	.word	0x00001388
 80013f8:	fffff8ff 	.word	0xfffff8ff
 80013fc:	0800683c 	.word	0x0800683c
 8001400:	20000870 	.word	0x20000870

08001404 <HAL_RCC_GetSysClockFreq>:
 8001404:	b590      	push	{r4, r7, lr}
 8001406:	b08f      	sub	sp, #60	; 0x3c
 8001408:	af00      	add	r7, sp, #0
 800140a:	2314      	movs	r3, #20
 800140c:	18fb      	adds	r3, r7, r3
 800140e:	4a2b      	ldr	r2, [pc, #172]	; (80014bc <HAL_RCC_GetSysClockFreq+0xb8>)
 8001410:	ca13      	ldmia	r2!, {r0, r1, r4}
 8001412:	c313      	stmia	r3!, {r0, r1, r4}
 8001414:	6812      	ldr	r2, [r2, #0]
 8001416:	601a      	str	r2, [r3, #0]
 8001418:	1d3b      	adds	r3, r7, #4
 800141a:	4a29      	ldr	r2, [pc, #164]	; (80014c0 <HAL_RCC_GetSysClockFreq+0xbc>)
 800141c:	ca13      	ldmia	r2!, {r0, r1, r4}
 800141e:	c313      	stmia	r3!, {r0, r1, r4}
 8001420:	6812      	ldr	r2, [r2, #0]
 8001422:	601a      	str	r2, [r3, #0]
 8001424:	2300      	movs	r3, #0
 8001426:	62fb      	str	r3, [r7, #44]	; 0x2c
 8001428:	2300      	movs	r3, #0
 800142a:	62bb      	str	r3, [r7, #40]	; 0x28
 800142c:	2300      	movs	r3, #0
 800142e:	637b      	str	r3, [r7, #52]	; 0x34
 8001430:	2300      	movs	r3, #0
 8001432:	627b      	str	r3, [r7, #36]	; 0x24
 8001434:	2300      	movs	r3, #0
 8001436:	633b      	str	r3, [r7, #48]	; 0x30
 8001438:	4b22      	ldr	r3, [pc, #136]	; (80014c4 <HAL_RCC_GetSysClockFreq+0xc0>)
 800143a:	685b      	ldr	r3, [r3, #4]
 800143c:	62fb      	str	r3, [r7, #44]	; 0x2c
 800143e:	6afb      	ldr	r3, [r7, #44]	; 0x2c
 8001440:	220c      	movs	r2, #12
 8001442:	4013      	ands	r3, r2
 8001444:	2b04      	cmp	r3, #4
 8001446:	d002      	beq.n	800144e <HAL_RCC_GetSysClockFreq+0x4a>
 8001448:	2b08      	cmp	r3, #8
 800144a:	d003      	beq.n	8001454 <HAL_RCC_GetSysClockFreq+0x50>
 800144c:	e02d      	b.n	80014aa <HAL_RCC_GetSysClockFreq+0xa6>
 800144e:	4b1e      	ldr	r3, [pc, #120]	; (80014c8 <HAL_RCC_GetSysClockFreq+0xc4>)
 8001450:	633b      	str	r3, [r7, #48]	; 0x30
 8001452:	e02d      	b.n	80014b0 <HAL_RCC_GetSysClockFreq+0xac>
 8001454:	6afb      	ldr	r3, [r7, #44]	; 0x2c
 8001456:	0c9b      	lsrs	r3, r3, #18
 8001458:	220f      	movs	r2, #15
 800145a:	4013      	ands	r3, r2
 800145c:	2214      	movs	r2, #20
 800145e:	18ba      	adds	r2, r7, r2
 8001460:	5cd3      	ldrb	r3, [r2, r3]
 8001462:	627b      	str	r3, [r7, #36]	; 0x24
 8001464:	4b17      	ldr	r3, [pc, #92]	; (80014c4 <HAL_RCC_GetSysClockFreq+0xc0>)
 8001466:	6adb      	ldr	r3, [r3, #44]	; 0x2c
 8001468:	220f      	movs	r2, #15
 800146a:	4013      	ands	r3, r2
 800146c:	1d3a      	adds	r2, r7, #4
 800146e:	5cd3      	ldrb	r3, [r2, r3]
 8001470:	62bb      	str	r3, [r7, #40]	; 0x28
 8001472:	6afa      	ldr	r2, [r7, #44]	; 0x2c
 8001474:	2380      	movs	r3, #128	; 0x80
 8001476:	025b      	lsls	r3, r3, #9
 8001478:	4013      	ands	r3, r2
 800147a:	d009      	beq.n	8001490 <HAL_RCC_GetSysClockFreq+0x8c>
 800147c:	6ab9      	ldr	r1, [r7, #40]	; 0x28
 800147e:	4812      	ldr	r0, [pc, #72]	; (80014c8 <HAL_RCC_GetSysClockFreq+0xc4>)
 8001480:	f7fe fe54 	bl	800012c <__udivsi3>
 8001484:	0003      	movs	r3, r0
 8001486:	001a      	movs	r2, r3
 8001488:	6a7b      	ldr	r3, [r7, #36]	; 0x24
 800148a:	4353      	muls	r3, r2
 800148c:	637b      	str	r3, [r7, #52]	; 0x34
 800148e:	e009      	b.n	80014a4 <HAL_RCC_GetSysClockFreq+0xa0>
 8001490:	6a79      	ldr	r1, [r7, #36]	; 0x24
 8001492:	000a      	movs	r2, r1
 8001494:	0152      	lsls	r2, r2, #5
 8001496:	1a52      	subs	r2, r2, r1
 8001498:	0193      	lsls	r3, r2, #6
 800149a:	1a9b      	subs	r3, r3, r2
 800149c:	00db      	lsls	r3, r3, #3
 800149e:	185b      	adds	r3, r3, r1
 80014a0:	021b      	lsls	r3, r3, #8
 80014a2:	637b      	str	r3, [r7, #52]	; 0x34
 80014a4:	6b7b      	ldr	r3, [r7, #52]	; 0x34
 80014a6:	633b      	str	r3, [r7, #48]	; 0x30
 80014a8:	e002      	b.n	80014b0 <HAL_RCC_GetSysClockFreq+0xac>
 80014aa:	4b07      	ldr	r3, [pc, #28]	; (80014c8 <HAL_RCC_GetSysClockFreq+0xc4>)
 80014ac:	633b      	str	r3, [r7, #48]	; 0x30
 80014ae:	46c0      	nop			; (mov r8, r8)
 80014b0:	6b3b      	ldr	r3, [r7, #48]	; 0x30
 80014b2:	0018      	movs	r0, r3
 80014b4:	46bd      	mov	sp, r7
 80014b6:	b00f      	add	sp, #60	; 0x3c
 80014b8:	bd90      	pop	{r4, r7, pc}
 80014ba:	46c0      	nop			; (mov r8, r8)
 80014bc:	08006574 	.word	0x08006574
 80014c0:	08006584 	.word	0x08006584
 80014c4:	40021000 	.word	0x40021000
 80014c8:	007a1200 	.word	0x007a1200

080014cc <HAL_RCC_GetHCLKFreq>:
 80014cc:	b580      	push	{r7, lr}
 80014ce:	af00      	add	r7, sp, #0
 80014d0:	4b02      	ldr	r3, [pc, #8]	; (80014dc <HAL_RCC_GetHCLKFreq+0x10>)
 80014d2:	681b      	ldr	r3, [r3, #0]
 80014d4:	0018      	movs	r0, r3
 80014d6:	46bd      	mov	sp, r7
 80014d8:	bd80      	pop	{r7, pc}
 80014da:	46c0      	nop			; (mov r8, r8)
 80014dc:	20000870 	.word	0x20000870

080014e0 <HAL_RCC_GetPCLK1Freq>:
 80014e0:	b580      	push	{r7, lr}
 80014e2:	af00      	add	r7, sp, #0
 80014e4:	f7ff fff2 	bl	80014cc <HAL_RCC_GetHCLKFreq>
 80014e8:	0001      	movs	r1, r0
 80014ea:	4b06      	ldr	r3, [pc, #24]	; (8001504 <HAL_RCC_GetPCLK1Freq+0x24>)
 80014ec:	685b      	ldr	r3, [r3, #4]
 80014ee:	0a1b      	lsrs	r3, r3, #8
 80014f0:	2207      	movs	r2, #7
 80014f2:	4013      	ands	r3, r2
 80014f4:	4a04      	ldr	r2, [pc, #16]	; (8001508 <HAL_RCC_GetPCLK1Freq+0x28>)
 80014f6:	5cd3      	ldrb	r3, [r2, r3]
 80014f8:	40d9      	lsrs	r1, r3
 80014fa:	000b      	movs	r3, r1
 80014fc:	0018      	movs	r0, r3
 80014fe:	46bd      	mov	sp, r7
 8001500:	bd80      	pop	{r7, pc}
 8001502:	46c0      	nop			; (mov r8, r8)
 8001504:	40021000 	.word	0x40021000
 8001508:	0800684c 	.word	0x0800684c

0800150c <HAL_SPI_Init>:
 800150c:	b580      	push	{r7, lr}
 800150e:	b084      	sub	sp, #16
 8001510:	af00      	add	r7, sp, #0
 8001512:	6078      	str	r0, [r7, #4]
 8001514:	687b      	ldr	r3, [r7, #4]
 8001516:	2b00      	cmp	r3, #0
 8001518:	d101      	bne.n	800151e <HAL_SPI_Init+0x12>
 800151a:	2301      	movs	r3, #1
 800151c:	e08a      	b.n	8001634 <HAL_SPI_Init+0x128>
 800151e:	687b      	ldr	r3, [r7, #4]
 8001520:	2200      	movs	r2, #0
 8001522:	629a      	str	r2, [r3, #40]	; 0x28
 8001524:	687b      	ldr	r3, [r7, #4]
 8001526:	225d      	movs	r2, #93	; 0x5d
 8001528:	5c9b      	ldrb	r3, [r3, r2]
 800152a:	b2db      	uxtb	r3, r3
 800152c:	2b00      	cmp	r3, #0
 800152e:	d107      	bne.n	8001540 <HAL_SPI_Init+0x34>
 8001530:	687b      	ldr	r3, [r7, #4]
 8001532:	225c      	movs	r2, #92	; 0x5c
 8001534:	2100      	movs	r1, #0
 8001536:	5499      	strb	r1, [r3, r2]
 8001538:	687b      	ldr	r3, [r7, #4]
 800153a:	0018      	movs	r0, r3
 800153c:	f004 fcd4 	bl	8005ee8 <HAL_SPI_MspInit>
 8001540:	687b      	ldr	r3, [r7, #4]
 8001542:	225d      	movs	r2, #93	; 0x5d
 8001544:	2102      	movs	r1, #2
 8001546:	5499      	strb	r1, [r3, r2]
 8001548:	687b      	ldr	r3, [r7, #4]
 800154a:	681b      	ldr	r3, [r3, #0]
 800154c:	681a      	ldr	r2, [r3, #0]
 800154e:	687b      	ldr	r3, [r7, #4]
 8001550:	681b      	ldr	r3, [r3, #0]
 8001552:	2140      	movs	r1, #64	; 0x40
 8001554:	438a      	bics	r2, r1
 8001556:	601a      	str	r2, [r3, #0]
 8001558:	687b      	ldr	r3, [r7, #4]
 800155a:	68da      	ldr	r2, [r3, #12]
 800155c:	23e0      	movs	r3, #224	; 0xe0
 800155e:	00db      	lsls	r3, r3, #3
 8001560:	429a      	cmp	r2, r3
 8001562:	d902      	bls.n	800156a <HAL_SPI_Init+0x5e>
 8001564:	2300      	movs	r3, #0
 8001566:	60fb      	str	r3, [r7, #12]
 8001568:	e002      	b.n	8001570 <HAL_SPI_Init+0x64>
 800156a:	2380      	movs	r3, #128	; 0x80
 800156c:	015b      	lsls	r3, r3, #5
 800156e:	60fb      	str	r3, [r7, #12]
 8001570:	687b      	ldr	r3, [r7, #4]
 8001572:	68da      	ldr	r2, [r3, #12]
 8001574:	23f0      	movs	r3, #240	; 0xf0
 8001576:	011b      	lsls	r3, r3, #4
 8001578:	429a      	cmp	r2, r3
 800157a:	d008      	beq.n	800158e <HAL_SPI_Init+0x82>
 800157c:	687b      	ldr	r3, [r7, #4]
 800157e:	68da      	ldr	r2, [r3, #12]
 8001580:	23e0      	movs	r3, #224	; 0xe0
 8001582:	00db      	lsls	r3, r3, #3
 8001584:	429a      	cmp	r2, r3
 8001586:	d002      	beq.n	800158e <HAL_SPI_Init+0x82>
 8001588:	687b      	ldr	r3, [r7, #4]
 800158a:	2200      	movs	r2, #0
 800158c:	629a      	str	r2, [r3, #40]	; 0x28
 800158e:	687b      	ldr	r3, [r7, #4]
 8001590:	6b1b      	ldr	r3, [r3, #48]	; 0x30
 8001592:	2b00      	cmp	r3, #0
 8001594:	d10c      	bne.n	80015b0 <HAL_SPI_Init+0xa4>
 8001596:	687b      	ldr	r3, [r7, #4]
 8001598:	68da      	ldr	r2, [r3, #12]
 800159a:	23e0      	movs	r3, #224	; 0xe0
 800159c:	00db      	lsls	r3, r3, #3
 800159e:	429a      	cmp	r2, r3
 80015a0:	d903      	bls.n	80015aa <HAL_SPI_Init+0x9e>
 80015a2:	687b      	ldr	r3, [r7, #4]
 80015a4:	2202      	movs	r2, #2
 80015a6:	631a      	str	r2, [r3, #48]	; 0x30
 80015a8:	e002      	b.n	80015b0 <HAL_SPI_Init+0xa4>
 80015aa:	687b      	ldr	r3, [r7, #4]
 80015ac:	2201      	movs	r2, #1
 80015ae:	631a      	str	r2, [r3, #48]	; 0x30
 80015b0:	687b      	ldr	r3, [r7, #4]
 80015b2:	685a      	ldr	r2, [r3, #4]
 80015b4:	687b      	ldr	r3, [r7, #4]
 80015b6:	689b      	ldr	r3, [r3, #8]
 80015b8:	431a      	orrs	r2, r3
 80015ba:	687b      	ldr	r3, [r7, #4]
 80015bc:	691b      	ldr	r3, [r3, #16]
 80015be:	431a      	orrs	r2, r3
 80015c0:	687b      	ldr	r3, [r7, #4]
 80015c2:	695b      	ldr	r3, [r3, #20]
 80015c4:	431a      	orrs	r2, r3
 80015c6:	687b      	ldr	r3, [r7, #4]
 80015c8:	6999      	ldr	r1, [r3, #24]
 80015ca:	2380      	movs	r3, #128	; 0x80
 80015cc:	009b      	lsls	r3, r3, #2
 80015ce:	400b      	ands	r3, r1
 80015d0:	431a      	orrs	r2, r3
 80015d2:	687b      	ldr	r3, [r7, #4]
 80015d4:	69db      	ldr	r3, [r3, #28]
 80015d6:	431a      	orrs	r2, r3
 80015d8:	687b      	ldr	r3, [r7, #4]
 80015da:	6a1b      	ldr	r3, [r3, #32]
 80015dc:	431a      	orrs	r2, r3
 80015de:	0011      	movs	r1, r2
 80015e0:	687b      	ldr	r3, [r7, #4]
 80015e2:	6a9a      	ldr	r2, [r3, #40]	; 0x28
 80015e4:	687b      	ldr	r3, [r7, #4]
 80015e6:	681b      	ldr	r3, [r3, #0]
 80015e8:	430a      	orrs	r2, r1
 80015ea:	601a      	str	r2, [r3, #0]
 80015ec:	687b      	ldr	r3, [r7, #4]
 80015ee:	699b      	ldr	r3, [r3, #24]
 80015f0:	0c1b      	lsrs	r3, r3, #16
 80015f2:	2204      	movs	r2, #4
 80015f4:	401a      	ands	r2, r3
 80015f6:	687b      	ldr	r3, [r7, #4]
 80015f8:	6a5b      	ldr	r3, [r3, #36]	; 0x24
 80015fa:	431a      	orrs	r2, r3
 80015fc:	687b      	ldr	r3, [r7, #4]
 80015fe:	6b5b      	ldr	r3, [r3, #52]	; 0x34
 8001600:	431a      	orrs	r2, r3
 8001602:	687b      	ldr	r3, [r7, #4]
 8001604:	68db      	ldr	r3, [r3, #12]
 8001606:	431a      	orrs	r2, r3
 8001608:	0011      	movs	r1, r2
 800160a:	687b      	ldr	r3, [r7, #4]
 800160c:	681b      	ldr	r3, [r3, #0]
 800160e:	68fa      	ldr	r2, [r7, #12]
 8001610:	430a      	orrs	r2, r1
 8001612:	605a      	str	r2, [r3, #4]
 8001614:	687b      	ldr	r3, [r7, #4]
 8001616:	681b      	ldr	r3, [r3, #0]
 8001618:	69da      	ldr	r2, [r3, #28]
 800161a:	687b      	ldr	r3, [r7, #4]
 800161c:	681b      	ldr	r3, [r3, #0]
 800161e:	4907      	ldr	r1, [pc, #28]	; (800163c <HAL_SPI_Init+0x130>)
 8001620:	400a      	ands	r2, r1
 8001622:	61da      	str	r2, [r3, #28]
 8001624:	687b      	ldr	r3, [r7, #4]
 8001626:	2200      	movs	r2, #0
 8001628:	661a      	str	r2, [r3, #96]	; 0x60
 800162a:	687b      	ldr	r3, [r7, #4]
 800162c:	225d      	movs	r2, #93	; 0x5d
 800162e:	2101      	movs	r1, #1
 8001630:	5499      	strb	r1, [r3, r2]
 8001632:	2300      	movs	r3, #0
 8001634:	0018      	movs	r0, r3
 8001636:	46bd      	mov	sp, r7
 8001638:	b004      	add	sp, #16
 800163a:	bd80      	pop	{r7, pc}
 800163c:	fffff7ff 	.word	0xfffff7ff

08001640 <HAL_SPI_Transmit>:
 8001640:	b580      	push	{r7, lr}
 8001642:	b088      	sub	sp, #32
 8001644:	af00      	add	r7, sp, #0
 8001646:	60f8      	str	r0, [r7, #12]
 8001648:	60b9      	str	r1, [r7, #8]
 800164a:	603b      	str	r3, [r7, #0]
 800164c:	1dbb      	adds	r3, r7, #6
 800164e:	801a      	strh	r2, [r3, #0]
 8001650:	2300      	movs	r3, #0
 8001652:	61bb      	str	r3, [r7, #24]
 8001654:	231f      	movs	r3, #31
 8001656:	18fb      	adds	r3, r7, r3
 8001658:	2200      	movs	r2, #0
 800165a:	701a      	strb	r2, [r3, #0]
 800165c:	68fb      	ldr	r3, [r7, #12]
 800165e:	225c      	movs	r2, #92	; 0x5c
 8001660:	5c9b      	ldrb	r3, [r3, r2]
 8001662:	2b01      	cmp	r3, #1
 8001664:	d101      	bne.n	800166a <HAL_SPI_Transmit+0x2a>
 8001666:	2302      	movs	r3, #2
 8001668:	e14f      	b.n	800190a <HAL_SPI_Transmit+0x2ca>
 800166a:	68fb      	ldr	r3, [r7, #12]
 800166c:	225c      	movs	r2, #92	; 0x5c
 800166e:	2101      	movs	r1, #1
 8001670:	5499      	strb	r1, [r3, r2]
 8001672:	f7fe fe23 	bl	80002bc <HAL_GetTick>
 8001676:	0003      	movs	r3, r0
 8001678:	61bb      	str	r3, [r7, #24]
 800167a:	68fb      	ldr	r3, [r7, #12]
 800167c:	225d      	movs	r2, #93	; 0x5d
 800167e:	5c9b      	ldrb	r3, [r3, r2]
 8001680:	b2db      	uxtb	r3, r3
 8001682:	2b01      	cmp	r3, #1
 8001684:	d004      	beq.n	8001690 <HAL_SPI_Transmit+0x50>
 8001686:	231f      	movs	r3, #31
 8001688:	18fb      	adds	r3, r7, r3
 800168a:	2202      	movs	r2, #2
 800168c:	701a      	strb	r2, [r3, #0]
 800168e:	e131      	b.n	80018f4 <HAL_SPI_Transmit+0x2b4>
 8001690:	68bb      	ldr	r3, [r7, #8]
 8001692:	2b00      	cmp	r3, #0
 8001694:	d003      	beq.n	800169e <HAL_SPI_Transmit+0x5e>
 8001696:	1dbb      	adds	r3, r7, #6
 8001698:	881b      	ldrh	r3, [r3, #0]
 800169a:	2b00      	cmp	r3, #0
 800169c:	d104      	bne.n	80016a8 <HAL_SPI_Transmit+0x68>
 800169e:	231f      	movs	r3, #31
 80016a0:	18fb      	adds	r3, r7, r3
 80016a2:	2201      	movs	r2, #1
 80016a4:	701a      	strb	r2, [r3, #0]
 80016a6:	e125      	b.n	80018f4 <HAL_SPI_Transmit+0x2b4>
 80016a8:	68fb      	ldr	r3, [r7, #12]
 80016aa:	225d      	movs	r2, #93	; 0x5d
 80016ac:	2103      	movs	r1, #3
 80016ae:	5499      	strb	r1, [r3, r2]
 80016b0:	68fb      	ldr	r3, [r7, #12]
 80016b2:	2200      	movs	r2, #0
 80016b4:	661a      	str	r2, [r3, #96]	; 0x60
 80016b6:	68fb      	ldr	r3, [r7, #12]
 80016b8:	68ba      	ldr	r2, [r7, #8]
 80016ba:	639a      	str	r2, [r3, #56]	; 0x38
 80016bc:	68fb      	ldr	r3, [r7, #12]
 80016be:	1dba      	adds	r2, r7, #6
 80016c0:	8812      	ldrh	r2, [r2, #0]
 80016c2:	879a      	strh	r2, [r3, #60]	; 0x3c
 80016c4:	68fb      	ldr	r3, [r7, #12]
 80016c6:	1dba      	adds	r2, r7, #6
 80016c8:	8812      	ldrh	r2, [r2, #0]
 80016ca:	87da      	strh	r2, [r3, #62]	; 0x3e
 80016cc:	68fb      	ldr	r3, [r7, #12]
 80016ce:	2200      	movs	r2, #0
 80016d0:	641a      	str	r2, [r3, #64]	; 0x40
 80016d2:	68fb      	ldr	r3, [r7, #12]
 80016d4:	2244      	movs	r2, #68	; 0x44
 80016d6:	2100      	movs	r1, #0
 80016d8:	5299      	strh	r1, [r3, r2]
 80016da:	68fb      	ldr	r3, [r7, #12]
 80016dc:	2246      	movs	r2, #70	; 0x46
 80016de:	2100      	movs	r1, #0
 80016e0:	5299      	strh	r1, [r3, r2]
 80016e2:	68fb      	ldr	r3, [r7, #12]
 80016e4:	2200      	movs	r2, #0
 80016e6:	651a      	str	r2, [r3, #80]	; 0x50
 80016e8:	68fb      	ldr	r3, [r7, #12]
 80016ea:	2200      	movs	r2, #0
 80016ec:	64da      	str	r2, [r3, #76]	; 0x4c
 80016ee:	68fb      	ldr	r3, [r7, #12]
 80016f0:	689a      	ldr	r2, [r3, #8]
 80016f2:	2380      	movs	r3, #128	; 0x80
 80016f4:	021b      	lsls	r3, r3, #8
 80016f6:	429a      	cmp	r2, r3
 80016f8:	d108      	bne.n	800170c <HAL_SPI_Transmit+0xcc>
 80016fa:	68fb      	ldr	r3, [r7, #12]
 80016fc:	681b      	ldr	r3, [r3, #0]
 80016fe:	681a      	ldr	r2, [r3, #0]
 8001700:	68fb      	ldr	r3, [r7, #12]
 8001702:	681b      	ldr	r3, [r3, #0]
 8001704:	2180      	movs	r1, #128	; 0x80
 8001706:	01c9      	lsls	r1, r1, #7
 8001708:	430a      	orrs	r2, r1
 800170a:	601a      	str	r2, [r3, #0]
 800170c:	68fb      	ldr	r3, [r7, #12]
 800170e:	681b      	ldr	r3, [r3, #0]
 8001710:	681b      	ldr	r3, [r3, #0]
 8001712:	2240      	movs	r2, #64	; 0x40
 8001714:	4013      	ands	r3, r2
 8001716:	2b40      	cmp	r3, #64	; 0x40
 8001718:	d007      	beq.n	800172a <HAL_SPI_Transmit+0xea>
 800171a:	68fb      	ldr	r3, [r7, #12]
 800171c:	681b      	ldr	r3, [r3, #0]
 800171e:	681a      	ldr	r2, [r3, #0]
 8001720:	68fb      	ldr	r3, [r7, #12]
 8001722:	681b      	ldr	r3, [r3, #0]
 8001724:	2140      	movs	r1, #64	; 0x40
 8001726:	430a      	orrs	r2, r1
 8001728:	601a      	str	r2, [r3, #0]
 800172a:	68fb      	ldr	r3, [r7, #12]
 800172c:	68da      	ldr	r2, [r3, #12]
 800172e:	23e0      	movs	r3, #224	; 0xe0
 8001730:	00db      	lsls	r3, r3, #3
 8001732:	429a      	cmp	r2, r3
 8001734:	d948      	bls.n	80017c8 <HAL_SPI_Transmit+0x188>
 8001736:	68fb      	ldr	r3, [r7, #12]
 8001738:	685b      	ldr	r3, [r3, #4]
 800173a:	2b00      	cmp	r3, #0
 800173c:	d004      	beq.n	8001748 <HAL_SPI_Transmit+0x108>
 800173e:	68fb      	ldr	r3, [r7, #12]
 8001740:	8fdb      	ldrh	r3, [r3, #62]	; 0x3e
 8001742:	b29b      	uxth	r3, r3
 8001744:	2b01      	cmp	r3, #1
 8001746:	d139      	bne.n	80017bc <HAL_SPI_Transmit+0x17c>
 8001748:	68bb      	ldr	r3, [r7, #8]
 800174a:	881a      	ldrh	r2, [r3, #0]
 800174c:	68fb      	ldr	r3, [r7, #12]
 800174e:	681b      	ldr	r3, [r3, #0]
 8001750:	60da      	str	r2, [r3, #12]
 8001752:	68bb      	ldr	r3, [r7, #8]
 8001754:	3302      	adds	r3, #2
 8001756:	60bb      	str	r3, [r7, #8]
 8001758:	68fb      	ldr	r3, [r7, #12]
 800175a:	8fdb      	ldrh	r3, [r3, #62]	; 0x3e
 800175c:	b29b      	uxth	r3, r3
 800175e:	3b01      	subs	r3, #1
 8001760:	b29a      	uxth	r2, r3
 8001762:	68fb      	ldr	r3, [r7, #12]
 8001764:	87da      	strh	r2, [r3, #62]	; 0x3e
 8001766:	e029      	b.n	80017bc <HAL_SPI_Transmit+0x17c>
 8001768:	68fb      	ldr	r3, [r7, #12]
 800176a:	681b      	ldr	r3, [r3, #0]
 800176c:	689b      	ldr	r3, [r3, #8]
 800176e:	2202      	movs	r2, #2
 8001770:	4013      	ands	r3, r2
 8001772:	2b02      	cmp	r3, #2
 8001774:	d10f      	bne.n	8001796 <HAL_SPI_Transmit+0x156>
 8001776:	68bb      	ldr	r3, [r7, #8]
 8001778:	881a      	ldrh	r2, [r3, #0]
 800177a:	68fb      	ldr	r3, [r7, #12]
 800177c:	681b      	ldr	r3, [r3, #0]
 800177e:	60da      	str	r2, [r3, #12]
 8001780:	68bb      	ldr	r3, [r7, #8]
 8001782:	3302      	adds	r3, #2
 8001784:	60bb      	str	r3, [r7, #8]
 8001786:	68fb      	ldr	r3, [r7, #12]
 8001788:	8fdb      	ldrh	r3, [r3, #62]	; 0x3e
 800178a:	b29b      	uxth	r3, r3
 800178c:	3b01      	subs	r3, #1
 800178e:	b29a      	uxth	r2, r3
 8001790:	68fb      	ldr	r3, [r7, #12]
 8001792:	87da      	strh	r2, [r3, #62]	; 0x3e
 8001794:	e012      	b.n	80017bc <HAL_SPI_Transmit+0x17c>
 8001796:	683b      	ldr	r3, [r7, #0]
 8001798:	2b00      	cmp	r3, #0
 800179a:	d00a      	beq.n	80017b2 <HAL_SPI_Transmit+0x172>
 800179c:	683b      	ldr	r3, [r7, #0]
 800179e:	3301      	adds	r3, #1
 80017a0:	d00c      	beq.n	80017bc <HAL_SPI_Transmit+0x17c>
 80017a2:	f7fe fd8b 	bl	80002bc <HAL_GetTick>
 80017a6:	0002      	movs	r2, r0
 80017a8:	69bb      	ldr	r3, [r7, #24]
 80017aa:	1ad3      	subs	r3, r2, r3
 80017ac:	683a      	ldr	r2, [r7, #0]
 80017ae:	429a      	cmp	r2, r3
 80017b0:	d804      	bhi.n	80017bc <HAL_SPI_Transmit+0x17c>
 80017b2:	231f      	movs	r3, #31
 80017b4:	18fb      	adds	r3, r7, r3
 80017b6:	2203      	movs	r2, #3
 80017b8:	701a      	strb	r2, [r3, #0]
 80017ba:	e09b      	b.n	80018f4 <HAL_SPI_Transmit+0x2b4>
 80017bc:	68fb      	ldr	r3, [r7, #12]
 80017be:	8fdb      	ldrh	r3, [r3, #62]	; 0x3e
 80017c0:	b29b      	uxth	r3, r3
 80017c2:	2b00      	cmp	r3, #0
 80017c4:	d1d0      	bne.n	8001768 <HAL_SPI_Transmit+0x128>
 80017c6:	e071      	b.n	80018ac <HAL_SPI_Transmit+0x26c>
 80017c8:	68fb      	ldr	r3, [r7, #12]
 80017ca:	685b      	ldr	r3, [r3, #4]
 80017cc:	2b00      	cmp	r3, #0
 80017ce:	d004      	beq.n	80017da <HAL_SPI_Transmit+0x19a>
 80017d0:	68fb      	ldr	r3, [r7, #12]
 80017d2:	8fdb      	ldrh	r3, [r3, #62]	; 0x3e
 80017d4:	b29b      	uxth	r3, r3
 80017d6:	2b01      	cmp	r3, #1
 80017d8:	d163      	bne.n	80018a2 <HAL_SPI_Transmit+0x262>
 80017da:	68fb      	ldr	r3, [r7, #12]
 80017dc:	8fdb      	ldrh	r3, [r3, #62]	; 0x3e
 80017de:	b29b      	uxth	r3, r3
 80017e0:	2b01      	cmp	r3, #1
 80017e2:	d90f      	bls.n	8001804 <HAL_SPI_Transmit+0x1c4>
 80017e4:	68bb      	ldr	r3, [r7, #8]
 80017e6:	881a      	ldrh	r2, [r3, #0]
 80017e8:	68fb      	ldr	r3, [r7, #12]
 80017ea:	681b      	ldr	r3, [r3, #0]
 80017ec:	60da      	str	r2, [r3, #12]
 80017ee:	68bb      	ldr	r3, [r7, #8]
 80017f0:	3302      	adds	r3, #2
 80017f2:	60bb      	str	r3, [r7, #8]
 80017f4:	68fb      	ldr	r3, [r7, #12]
 80017f6:	8fdb      	ldrh	r3, [r3, #62]	; 0x3e
 80017f8:	b29b      	uxth	r3, r3
 80017fa:	3b02      	subs	r3, #2
 80017fc:	b29a      	uxth	r2, r3
 80017fe:	68fb      	ldr	r3, [r7, #12]
 8001800:	87da      	strh	r2, [r3, #62]	; 0x3e
 8001802:	e04e      	b.n	80018a2 <HAL_SPI_Transmit+0x262>
 8001804:	68bb      	ldr	r3, [r7, #8]
 8001806:	1c5a      	adds	r2, r3, #1
 8001808:	60ba      	str	r2, [r7, #8]
 800180a:	68fa      	ldr	r2, [r7, #12]
 800180c:	6812      	ldr	r2, [r2, #0]
 800180e:	320c      	adds	r2, #12
 8001810:	781b      	ldrb	r3, [r3, #0]
 8001812:	7013      	strb	r3, [r2, #0]
 8001814:	68fb      	ldr	r3, [r7, #12]
 8001816:	8fdb      	ldrh	r3, [r3, #62]	; 0x3e
 8001818:	b29b      	uxth	r3, r3
 800181a:	3b01      	subs	r3, #1
 800181c:	b29a      	uxth	r2, r3
 800181e:	68fb      	ldr	r3, [r7, #12]
 8001820:	87da      	strh	r2, [r3, #62]	; 0x3e
 8001822:	e03e      	b.n	80018a2 <HAL_SPI_Transmit+0x262>
 8001824:	68fb      	ldr	r3, [r7, #12]
 8001826:	681b      	ldr	r3, [r3, #0]
 8001828:	689b      	ldr	r3, [r3, #8]
 800182a:	2202      	movs	r2, #2
 800182c:	4013      	ands	r3, r2
 800182e:	2b02      	cmp	r3, #2
 8001830:	d124      	bne.n	800187c <HAL_SPI_Transmit+0x23c>
 8001832:	68fb      	ldr	r3, [r7, #12]
 8001834:	8fdb      	ldrh	r3, [r3, #62]	; 0x3e
 8001836:	b29b      	uxth	r3, r3
 8001838:	2b01      	cmp	r3, #1
 800183a:	d90f      	bls.n	800185c <HAL_SPI_Transmit+0x21c>
 800183c:	68bb      	ldr	r3, [r7, #8]
 800183e:	881a      	ldrh	r2, [r3, #0]
 8001840:	68fb      	ldr	r3, [r7, #12]
 8001842:	681b      	ldr	r3, [r3, #0]
 8001844:	60da      	str	r2, [r3, #12]
 8001846:	68bb      	ldr	r3, [r7, #8]
 8001848:	3302      	adds	r3, #2
 800184a:	60bb      	str	r3, [r7, #8]
 800184c:	68fb      	ldr	r3, [r7, #12]
 800184e:	8fdb      	ldrh	r3, [r3, #62]	; 0x3e
 8001850:	b29b      	uxth	r3, r3
 8001852:	3b02      	subs	r3, #2
 8001854:	b29a      	uxth	r2, r3
 8001856:	68fb      	ldr	r3, [r7, #12]
 8001858:	87da      	strh	r2, [r3, #62]	; 0x3e
 800185a:	e022      	b.n	80018a2 <HAL_SPI_Transmit+0x262>
 800185c:	68bb      	ldr	r3, [r7, #8]
 800185e:	1c5a      	adds	r2, r3, #1
 8001860:	60ba      	str	r2, [r7, #8]
 8001862:	68fa      	ldr	r2, [r7, #12]
 8001864:	6812      	ldr	r2, [r2, #0]
 8001866:	320c      	adds	r2, #12
 8001868:	781b      	ldrb	r3, [r3, #0]
 800186a:	7013      	strb	r3, [r2, #0]
 800186c:	68fb      	ldr	r3, [r7, #12]
 800186e:	8fdb      	ldrh	r3, [r3, #62]	; 0x3e
 8001870:	b29b      	uxth	r3, r3
 8001872:	3b01      	subs	r3, #1
 8001874:	b29a      	uxth	r2, r3
 8001876:	68fb      	ldr	r3, [r7, #12]
 8001878:	87da      	strh	r2, [r3, #62]	; 0x3e
 800187a:	e012      	b.n	80018a2 <HAL_SPI_Transmit+0x262>
 800187c:	683b      	ldr	r3, [r7, #0]
 800187e:	2b00      	cmp	r3, #0
 8001880:	d00a      	beq.n	8001898 <HAL_SPI_Transmit+0x258>
 8001882:	683b      	ldr	r3, [r7, #0]
 8001884:	3301      	adds	r3, #1
 8001886:	d00c      	beq.n	80018a2 <HAL_SPI_Transmit+0x262>
 8001888:	f7fe fd18 	bl	80002bc <HAL_GetTick>
 800188c:	0002      	movs	r2, r0
 800188e:	69bb      	ldr	r3, [r7, #24]
 8001890:	1ad3      	subs	r3, r2, r3
 8001892:	683a      	ldr	r2, [r7, #0]
 8001894:	429a      	cmp	r2, r3
 8001896:	d804      	bhi.n	80018a2 <HAL_SPI_Transmit+0x262>
 8001898:	231f      	movs	r3, #31
 800189a:	18fb      	adds	r3, r7, r3
 800189c:	2203      	movs	r2, #3
 800189e:	701a      	strb	r2, [r3, #0]
 80018a0:	e028      	b.n	80018f4 <HAL_SPI_Transmit+0x2b4>
 80018a2:	68fb      	ldr	r3, [r7, #12]
 80018a4:	8fdb      	ldrh	r3, [r3, #62]	; 0x3e
 80018a6:	b29b      	uxth	r3, r3
 80018a8:	2b00      	cmp	r3, #0
 80018aa:	d1bb      	bne.n	8001824 <HAL_SPI_Transmit+0x1e4>
 80018ac:	69ba      	ldr	r2, [r7, #24]
 80018ae:	6839      	ldr	r1, [r7, #0]
 80018b0:	68fb      	ldr	r3, [r7, #12]
 80018b2:	0018      	movs	r0, r3
 80018b4:	f000 fcc8 	bl	8002248 <SPI_EndRxTxTransaction>
 80018b8:	1e03      	subs	r3, r0, #0
 80018ba:	d002      	beq.n	80018c2 <HAL_SPI_Transmit+0x282>
 80018bc:	68fb      	ldr	r3, [r7, #12]
 80018be:	2220      	movs	r2, #32
 80018c0:	661a      	str	r2, [r3, #96]	; 0x60
 80018c2:	68fb      	ldr	r3, [r7, #12]
 80018c4:	689b      	ldr	r3, [r3, #8]
 80018c6:	2b00      	cmp	r3, #0
 80018c8:	d10a      	bne.n	80018e0 <HAL_SPI_Transmit+0x2a0>
 80018ca:	2300      	movs	r3, #0
 80018cc:	617b      	str	r3, [r7, #20]
 80018ce:	68fb      	ldr	r3, [r7, #12]
 80018d0:	681b      	ldr	r3, [r3, #0]
 80018d2:	68db      	ldr	r3, [r3, #12]
 80018d4:	617b      	str	r3, [r7, #20]
 80018d6:	68fb      	ldr	r3, [r7, #12]
 80018d8:	681b      	ldr	r3, [r3, #0]
 80018da:	689b      	ldr	r3, [r3, #8]
 80018dc:	617b      	str	r3, [r7, #20]
 80018de:	697b      	ldr	r3, [r7, #20]
 80018e0:	68fb      	ldr	r3, [r7, #12]
 80018e2:	6e1b      	ldr	r3, [r3, #96]	; 0x60
 80018e4:	2b00      	cmp	r3, #0
 80018e6:	d004      	beq.n	80018f2 <HAL_SPI_Transmit+0x2b2>
 80018e8:	231f      	movs	r3, #31
 80018ea:	18fb      	adds	r3, r7, r3
 80018ec:	2201      	movs	r2, #1
 80018ee:	701a      	strb	r2, [r3, #0]
 80018f0:	e000      	b.n	80018f4 <HAL_SPI_Transmit+0x2b4>
 80018f2:	46c0      	nop			; (mov r8, r8)
 80018f4:	68fb      	ldr	r3, [r7, #12]
 80018f6:	225d      	movs	r2, #93	; 0x5d
 80018f8:	2101      	movs	r1, #1
 80018fa:	5499      	strb	r1, [r3, r2]
 80018fc:	68fb      	ldr	r3, [r7, #12]
 80018fe:	225c      	movs	r2, #92	; 0x5c
 8001900:	2100      	movs	r1, #0
 8001902:	5499      	strb	r1, [r3, r2]
 8001904:	231f      	movs	r3, #31
 8001906:	18fb      	adds	r3, r7, r3
 8001908:	781b      	ldrb	r3, [r3, #0]
 800190a:	0018      	movs	r0, r3
 800190c:	46bd      	mov	sp, r7
 800190e:	b008      	add	sp, #32
 8001910:	bd80      	pop	{r7, pc}
	...

08001914 <HAL_SPI_Receive>:
 8001914:	b590      	push	{r4, r7, lr}
 8001916:	b089      	sub	sp, #36	; 0x24
 8001918:	af02      	add	r7, sp, #8
 800191a:	60f8      	str	r0, [r7, #12]
 800191c:	60b9      	str	r1, [r7, #8]
 800191e:	603b      	str	r3, [r7, #0]
 8001920:	1dbb      	adds	r3, r7, #6
 8001922:	801a      	strh	r2, [r3, #0]
 8001924:	2300      	movs	r3, #0
 8001926:	613b      	str	r3, [r7, #16]
 8001928:	2317      	movs	r3, #23
 800192a:	18fb      	adds	r3, r7, r3
 800192c:	2200      	movs	r2, #0
 800192e:	701a      	strb	r2, [r3, #0]
 8001930:	68fb      	ldr	r3, [r7, #12]
 8001932:	685a      	ldr	r2, [r3, #4]
 8001934:	2382      	movs	r3, #130	; 0x82
 8001936:	005b      	lsls	r3, r3, #1
 8001938:	429a      	cmp	r2, r3
 800193a:	d113      	bne.n	8001964 <HAL_SPI_Receive+0x50>
 800193c:	68fb      	ldr	r3, [r7, #12]
 800193e:	689b      	ldr	r3, [r3, #8]
 8001940:	2b00      	cmp	r3, #0
 8001942:	d10f      	bne.n	8001964 <HAL_SPI_Receive+0x50>
 8001944:	68fb      	ldr	r3, [r7, #12]
 8001946:	225d      	movs	r2, #93	; 0x5d
 8001948:	2104      	movs	r1, #4
 800194a:	5499      	strb	r1, [r3, r2]
 800194c:	1dbb      	adds	r3, r7, #6
 800194e:	881c      	ldrh	r4, [r3, #0]
 8001950:	68ba      	ldr	r2, [r7, #8]
 8001952:	68b9      	ldr	r1, [r7, #8]
 8001954:	68f8      	ldr	r0, [r7, #12]
 8001956:	683b      	ldr	r3, [r7, #0]
 8001958:	9300      	str	r3, [sp, #0]
 800195a:	0023      	movs	r3, r4
 800195c:	f000 f918 	bl	8001b90 <HAL_SPI_TransmitReceive>
 8001960:	0003      	movs	r3, r0
 8001962:	e10c      	b.n	8001b7e <HAL_SPI_Receive+0x26a>
 8001964:	68fb      	ldr	r3, [r7, #12]
 8001966:	225c      	movs	r2, #92	; 0x5c
 8001968:	5c9b      	ldrb	r3, [r3, r2]
 800196a:	2b01      	cmp	r3, #1
 800196c:	d101      	bne.n	8001972 <HAL_SPI_Receive+0x5e>
 800196e:	2302      	movs	r3, #2
 8001970:	e105      	b.n	8001b7e <HAL_SPI_Receive+0x26a>
 8001972:	68fb      	ldr	r3, [r7, #12]
 8001974:	225c      	movs	r2, #92	; 0x5c
 8001976:	2101      	movs	r1, #1
 8001978:	5499      	strb	r1, [r3, r2]
 800197a:	f7fe fc9f 	bl	80002bc <HAL_GetTick>
 800197e:	0003      	movs	r3, r0
 8001980:	613b      	str	r3, [r7, #16]
 8001982:	68fb      	ldr	r3, [r7, #12]
 8001984:	225d      	movs	r2, #93	; 0x5d
 8001986:	5c9b      	ldrb	r3, [r3, r2]
 8001988:	b2db      	uxtb	r3, r3
 800198a:	2b01      	cmp	r3, #1
 800198c:	d004      	beq.n	8001998 <HAL_SPI_Receive+0x84>
 800198e:	2317      	movs	r3, #23
 8001990:	18fb      	adds	r3, r7, r3
 8001992:	2202      	movs	r2, #2
 8001994:	701a      	strb	r2, [r3, #0]
 8001996:	e0e7      	b.n	8001b68 <HAL_SPI_Receive+0x254>
 8001998:	68bb      	ldr	r3, [r7, #8]
 800199a:	2b00      	cmp	r3, #0
 800199c:	d003      	beq.n	80019a6 <HAL_SPI_Receive+0x92>
 800199e:	1dbb      	adds	r3, r7, #6
 80019a0:	881b      	ldrh	r3, [r3, #0]
 80019a2:	2b00      	cmp	r3, #0
 80019a4:	d104      	bne.n	80019b0 <HAL_SPI_Receive+0x9c>
 80019a6:	2317      	movs	r3, #23
 80019a8:	18fb      	adds	r3, r7, r3
 80019aa:	2201      	movs	r2, #1
 80019ac:	701a      	strb	r2, [r3, #0]
 80019ae:	e0db      	b.n	8001b68 <HAL_SPI_Receive+0x254>
 80019b0:	68fb      	ldr	r3, [r7, #12]
 80019b2:	225d      	movs	r2, #93	; 0x5d
 80019b4:	2104      	movs	r1, #4
 80019b6:	5499      	strb	r1, [r3, r2]
 80019b8:	68fb      	ldr	r3, [r7, #12]
 80019ba:	2200      	movs	r2, #0
 80019bc:	661a      	str	r2, [r3, #96]	; 0x60
 80019be:	68fb      	ldr	r3, [r7, #12]
 80019c0:	68ba      	ldr	r2, [r7, #8]
 80019c2:	641a      	str	r2, [r3, #64]	; 0x40
 80019c4:	68fb      	ldr	r3, [r7, #12]
 80019c6:	1dba      	adds	r2, r7, #6
 80019c8:	2144      	movs	r1, #68	; 0x44
 80019ca:	8812      	ldrh	r2, [r2, #0]
 80019cc:	525a      	strh	r2, [r3, r1]
 80019ce:	68fb      	ldr	r3, [r7, #12]
 80019d0:	1dba      	adds	r2, r7, #6
 80019d2:	2146      	movs	r1, #70	; 0x46
 80019d4:	8812      	ldrh	r2, [r2, #0]
 80019d6:	525a      	strh	r2, [r3, r1]
 80019d8:	68fb      	ldr	r3, [r7, #12]
 80019da:	2200      	movs	r2, #0
 80019dc:	639a      	str	r2, [r3, #56]	; 0x38
 80019de:	68fb      	ldr	r3, [r7, #12]
 80019e0:	2200      	movs	r2, #0
 80019e2:	879a      	strh	r2, [r3, #60]	; 0x3c
 80019e4:	68fb      	ldr	r3, [r7, #12]
 80019e6:	2200      	movs	r2, #0
 80019e8:	87da      	strh	r2, [r3, #62]	; 0x3e
 80019ea:	68fb      	ldr	r3, [r7, #12]
 80019ec:	2200      	movs	r2, #0
 80019ee:	64da      	str	r2, [r3, #76]	; 0x4c
 80019f0:	68fb      	ldr	r3, [r7, #12]
 80019f2:	2200      	movs	r2, #0
 80019f4:	651a      	str	r2, [r3, #80]	; 0x50
 80019f6:	68fb      	ldr	r3, [r7, #12]
 80019f8:	68da      	ldr	r2, [r3, #12]
 80019fa:	23e0      	movs	r3, #224	; 0xe0
 80019fc:	00db      	lsls	r3, r3, #3
 80019fe:	429a      	cmp	r2, r3
 8001a00:	d908      	bls.n	8001a14 <HAL_SPI_Receive+0x100>
 8001a02:	68fb      	ldr	r3, [r7, #12]
 8001a04:	681b      	ldr	r3, [r3, #0]
 8001a06:	685a      	ldr	r2, [r3, #4]
 8001a08:	68fb      	ldr	r3, [r7, #12]
 8001a0a:	681b      	ldr	r3, [r3, #0]
 8001a0c:	495e      	ldr	r1, [pc, #376]	; (8001b88 <HAL_SPI_Receive+0x274>)
 8001a0e:	400a      	ands	r2, r1
 8001a10:	605a      	str	r2, [r3, #4]
 8001a12:	e008      	b.n	8001a26 <HAL_SPI_Receive+0x112>
 8001a14:	68fb      	ldr	r3, [r7, #12]
 8001a16:	681b      	ldr	r3, [r3, #0]
 8001a18:	685a      	ldr	r2, [r3, #4]
 8001a1a:	68fb      	ldr	r3, [r7, #12]
 8001a1c:	681b      	ldr	r3, [r3, #0]
 8001a1e:	2180      	movs	r1, #128	; 0x80
 8001a20:	0149      	lsls	r1, r1, #5
 8001a22:	430a      	orrs	r2, r1
 8001a24:	605a      	str	r2, [r3, #4]
 8001a26:	68fb      	ldr	r3, [r7, #12]
 8001a28:	689a      	ldr	r2, [r3, #8]
 8001a2a:	2380      	movs	r3, #128	; 0x80
 8001a2c:	021b      	lsls	r3, r3, #8
 8001a2e:	429a      	cmp	r2, r3
 8001a30:	d107      	bne.n	8001a42 <HAL_SPI_Receive+0x12e>
 8001a32:	68fb      	ldr	r3, [r7, #12]
 8001a34:	681b      	ldr	r3, [r3, #0]
 8001a36:	681a      	ldr	r2, [r3, #0]
 8001a38:	68fb      	ldr	r3, [r7, #12]
 8001a3a:	681b      	ldr	r3, [r3, #0]
 8001a3c:	4953      	ldr	r1, [pc, #332]	; (8001b8c <HAL_SPI_Receive+0x278>)
 8001a3e:	400a      	ands	r2, r1
 8001a40:	601a      	str	r2, [r3, #0]
 8001a42:	68fb      	ldr	r3, [r7, #12]
 8001a44:	681b      	ldr	r3, [r3, #0]
 8001a46:	681b      	ldr	r3, [r3, #0]
 8001a48:	2240      	movs	r2, #64	; 0x40
 8001a4a:	4013      	ands	r3, r2
 8001a4c:	2b40      	cmp	r3, #64	; 0x40
 8001a4e:	d007      	beq.n	8001a60 <HAL_SPI_Receive+0x14c>
 8001a50:	68fb      	ldr	r3, [r7, #12]
 8001a52:	681b      	ldr	r3, [r3, #0]
 8001a54:	681a      	ldr	r2, [r3, #0]
 8001a56:	68fb      	ldr	r3, [r7, #12]
 8001a58:	681b      	ldr	r3, [r3, #0]
 8001a5a:	2140      	movs	r1, #64	; 0x40
 8001a5c:	430a      	orrs	r2, r1
 8001a5e:	601a      	str	r2, [r3, #0]
 8001a60:	68fb      	ldr	r3, [r7, #12]
 8001a62:	68da      	ldr	r2, [r3, #12]
 8001a64:	23e0      	movs	r3, #224	; 0xe0
 8001a66:	00db      	lsls	r3, r3, #3
 8001a68:	429a      	cmp	r2, r3
 8001a6a:	d862      	bhi.n	8001b32 <HAL_SPI_Receive+0x21e>
 8001a6c:	e02d      	b.n	8001aca <HAL_SPI_Receive+0x1b6>
 8001a6e:	68fb      	ldr	r3, [r7, #12]
 8001a70:	681b      	ldr	r3, [r3, #0]
 8001a72:	689b      	ldr	r3, [r3, #8]
 8001a74:	2201      	movs	r2, #1
 8001a76:	4013      	ands	r3, r2
 8001a78:	2b01      	cmp	r3, #1
 8001a7a:	d113      	bne.n	8001aa4 <HAL_SPI_Receive+0x190>
 8001a7c:	68fb      	ldr	r3, [r7, #12]
 8001a7e:	681b      	ldr	r3, [r3, #0]
 8001a80:	330c      	adds	r3, #12
 8001a82:	781b      	ldrb	r3, [r3, #0]
 8001a84:	b2da      	uxtb	r2, r3
 8001a86:	68bb      	ldr	r3, [r7, #8]
 8001a88:	701a      	strb	r2, [r3, #0]
 8001a8a:	68bb      	ldr	r3, [r7, #8]
 8001a8c:	3301      	adds	r3, #1
 8001a8e:	60bb      	str	r3, [r7, #8]
 8001a90:	68fb      	ldr	r3, [r7, #12]
 8001a92:	2246      	movs	r2, #70	; 0x46
 8001a94:	5a9b      	ldrh	r3, [r3, r2]
 8001a96:	b29b      	uxth	r3, r3
 8001a98:	3b01      	subs	r3, #1
 8001a9a:	b299      	uxth	r1, r3
 8001a9c:	68fb      	ldr	r3, [r7, #12]
 8001a9e:	2246      	movs	r2, #70	; 0x46
 8001aa0:	5299      	strh	r1, [r3, r2]
 8001aa2:	e012      	b.n	8001aca <HAL_SPI_Receive+0x1b6>
 8001aa4:	683b      	ldr	r3, [r7, #0]
 8001aa6:	2b00      	cmp	r3, #0
 8001aa8:	d00a      	beq.n	8001ac0 <HAL_SPI_Receive+0x1ac>
 8001aaa:	683b      	ldr	r3, [r7, #0]
 8001aac:	3301      	adds	r3, #1
 8001aae:	d00c      	beq.n	8001aca <HAL_SPI_Receive+0x1b6>
 8001ab0:	f7fe fc04 	bl	80002bc <HAL_GetTick>
 8001ab4:	0002      	movs	r2, r0
 8001ab6:	693b      	ldr	r3, [r7, #16]
 8001ab8:	1ad3      	subs	r3, r2, r3
 8001aba:	683a      	ldr	r2, [r7, #0]
 8001abc:	429a      	cmp	r2, r3
 8001abe:	d804      	bhi.n	8001aca <HAL_SPI_Receive+0x1b6>
 8001ac0:	2317      	movs	r3, #23
 8001ac2:	18fb      	adds	r3, r7, r3
 8001ac4:	2203      	movs	r2, #3
 8001ac6:	701a      	strb	r2, [r3, #0]
 8001ac8:	e04e      	b.n	8001b68 <HAL_SPI_Receive+0x254>
 8001aca:	68fb      	ldr	r3, [r7, #12]
 8001acc:	2246      	movs	r2, #70	; 0x46
 8001ace:	5a9b      	ldrh	r3, [r3, r2]
 8001ad0:	b29b      	uxth	r3, r3
 8001ad2:	2b00      	cmp	r3, #0
 8001ad4:	d1cb      	bne.n	8001a6e <HAL_SPI_Receive+0x15a>
 8001ad6:	e032      	b.n	8001b3e <HAL_SPI_Receive+0x22a>
 8001ad8:	68fb      	ldr	r3, [r7, #12]
 8001ada:	681b      	ldr	r3, [r3, #0]
 8001adc:	689b      	ldr	r3, [r3, #8]
 8001ade:	2201      	movs	r2, #1
 8001ae0:	4013      	ands	r3, r2
 8001ae2:	2b01      	cmp	r3, #1
 8001ae4:	d112      	bne.n	8001b0c <HAL_SPI_Receive+0x1f8>
 8001ae6:	68fb      	ldr	r3, [r7, #12]
 8001ae8:	681b      	ldr	r3, [r3, #0]
 8001aea:	68db      	ldr	r3, [r3, #12]
 8001aec:	b29a      	uxth	r2, r3
 8001aee:	68bb      	ldr	r3, [r7, #8]
 8001af0:	801a      	strh	r2, [r3, #0]
 8001af2:	68bb      	ldr	r3, [r7, #8]
 8001af4:	3302      	adds	r3, #2
 8001af6:	60bb      	str	r3, [r7, #8]
 8001af8:	68fb      	ldr	r3, [r7, #12]
 8001afa:	2246      	movs	r2, #70	; 0x46
 8001afc:	5a9b      	ldrh	r3, [r3, r2]
 8001afe:	b29b      	uxth	r3, r3
 8001b00:	3b01      	subs	r3, #1
 8001b02:	b299      	uxth	r1, r3
 8001b04:	68fb      	ldr	r3, [r7, #12]
 8001b06:	2246      	movs	r2, #70	; 0x46
 8001b08:	5299      	strh	r1, [r3, r2]
 8001b0a:	e012      	b.n	8001b32 <HAL_SPI_Receive+0x21e>
 8001b0c:	683b      	ldr	r3, [r7, #0]
 8001b0e:	2b00      	cmp	r3, #0
 8001b10:	d00a      	beq.n	8001b28 <HAL_SPI_Receive+0x214>
 8001b12:	683b      	ldr	r3, [r7, #0]
 8001b14:	3301      	adds	r3, #1
 8001b16:	d00c      	beq.n	8001b32 <HAL_SPI_Receive+0x21e>
 8001b18:	f7fe fbd0 	bl	80002bc <HAL_GetTick>
 8001b1c:	0002      	movs	r2, r0
 8001b1e:	693b      	ldr	r3, [r7, #16]
 8001b20:	1ad3      	subs	r3, r2, r3
 8001b22:	683a      	ldr	r2, [r7, #0]
 8001b24:	429a      	cmp	r2, r3
 8001b26:	d804      	bhi.n	8001b32 <HAL_SPI_Receive+0x21e>
 8001b28:	2317      	movs	r3, #23
 8001b2a:	18fb      	adds	r3, r7, r3
 8001b2c:	2203      	movs	r2, #3
 8001b2e:	701a      	strb	r2, [r3, #0]
 8001b30:	e01a      	b.n	8001b68 <HAL_SPI_Receive+0x254>
 8001b32:	68fb      	ldr	r3, [r7, #12]
 8001b34:	2246      	movs	r2, #70	; 0x46
 8001b36:	5a9b      	ldrh	r3, [r3, r2]
 8001b38:	b29b      	uxth	r3, r3
 8001b3a:	2b00      	cmp	r3, #0
 8001b3c:	d1cc      	bne.n	8001ad8 <HAL_SPI_Receive+0x1c4>
 8001b3e:	693a      	ldr	r2, [r7, #16]
 8001b40:	6839      	ldr	r1, [r7, #0]
 8001b42:	68fb      	ldr	r3, [r7, #12]
 8001b44:	0018      	movs	r0, r3
 8001b46:	f000 fb21 	bl	800218c <SPI_EndRxTransaction>
 8001b4a:	1e03      	subs	r3, r0, #0
 8001b4c:	d002      	beq.n	8001b54 <HAL_SPI_Receive+0x240>
 8001b4e:	68fb      	ldr	r3, [r7, #12]
 8001b50:	2220      	movs	r2, #32
 8001b52:	661a      	str	r2, [r3, #96]	; 0x60
 8001b54:	68fb      	ldr	r3, [r7, #12]
 8001b56:	6e1b      	ldr	r3, [r3, #96]	; 0x60
 8001b58:	2b00      	cmp	r3, #0
 8001b5a:	d004      	beq.n	8001b66 <HAL_SPI_Receive+0x252>
 8001b5c:	2317      	movs	r3, #23
 8001b5e:	18fb      	adds	r3, r7, r3
 8001b60:	2201      	movs	r2, #1
 8001b62:	701a      	strb	r2, [r3, #0]
 8001b64:	e000      	b.n	8001b68 <HAL_SPI_Receive+0x254>
 8001b66:	46c0      	nop			; (mov r8, r8)
 8001b68:	68fb      	ldr	r3, [r7, #12]
 8001b6a:	225d      	movs	r2, #93	; 0x5d
 8001b6c:	2101      	movs	r1, #1
 8001b6e:	5499      	strb	r1, [r3, r2]
 8001b70:	68fb      	ldr	r3, [r7, #12]
 8001b72:	225c      	movs	r2, #92	; 0x5c
 8001b74:	2100      	movs	r1, #0
 8001b76:	5499      	strb	r1, [r3, r2]
 8001b78:	2317      	movs	r3, #23
 8001b7a:	18fb      	adds	r3, r7, r3
 8001b7c:	781b      	ldrb	r3, [r3, #0]
 8001b7e:	0018      	movs	r0, r3
 8001b80:	46bd      	mov	sp, r7
 8001b82:	b007      	add	sp, #28
 8001b84:	bd90      	pop	{r4, r7, pc}
 8001b86:	46c0      	nop			; (mov r8, r8)
 8001b88:	ffffefff 	.word	0xffffefff
 8001b8c:	ffffbfff 	.word	0xffffbfff

08001b90 <HAL_SPI_TransmitReceive>:
 8001b90:	b580      	push	{r7, lr}
 8001b92:	b08a      	sub	sp, #40	; 0x28
 8001b94:	af00      	add	r7, sp, #0
 8001b96:	60f8      	str	r0, [r7, #12]
 8001b98:	60b9      	str	r1, [r7, #8]
 8001b9a:	607a      	str	r2, [r7, #4]
 8001b9c:	001a      	movs	r2, r3
 8001b9e:	1cbb      	adds	r3, r7, #2
 8001ba0:	801a      	strh	r2, [r3, #0]
 8001ba2:	2300      	movs	r3, #0
 8001ba4:	61fb      	str	r3, [r7, #28]
 8001ba6:	2300      	movs	r3, #0
 8001ba8:	61bb      	str	r3, [r7, #24]
 8001baa:	2300      	movs	r3, #0
 8001bac:	617b      	str	r3, [r7, #20]
 8001bae:	2301      	movs	r3, #1
 8001bb0:	627b      	str	r3, [r7, #36]	; 0x24
 8001bb2:	2323      	movs	r3, #35	; 0x23
 8001bb4:	18fb      	adds	r3, r7, r3
 8001bb6:	2200      	movs	r2, #0
 8001bb8:	701a      	strb	r2, [r3, #0]
 8001bba:	68fb      	ldr	r3, [r7, #12]
 8001bbc:	225c      	movs	r2, #92	; 0x5c
 8001bbe:	5c9b      	ldrb	r3, [r3, r2]
 8001bc0:	2b01      	cmp	r3, #1
 8001bc2:	d101      	bne.n	8001bc8 <HAL_SPI_TransmitReceive+0x38>
 8001bc4:	2302      	movs	r3, #2
 8001bc6:	e1f2      	b.n	8001fae <HAL_SPI_TransmitReceive+0x41e>
 8001bc8:	68fb      	ldr	r3, [r7, #12]
 8001bca:	225c      	movs	r2, #92	; 0x5c
 8001bcc:	2101      	movs	r1, #1
 8001bce:	5499      	strb	r1, [r3, r2]
 8001bd0:	f7fe fb74 	bl	80002bc <HAL_GetTick>
 8001bd4:	0003      	movs	r3, r0
 8001bd6:	617b      	str	r3, [r7, #20]
 8001bd8:	68fb      	ldr	r3, [r7, #12]
 8001bda:	225d      	movs	r2, #93	; 0x5d
 8001bdc:	5c9b      	ldrb	r3, [r3, r2]
 8001bde:	b2db      	uxtb	r3, r3
 8001be0:	61fb      	str	r3, [r7, #28]
 8001be2:	68fb      	ldr	r3, [r7, #12]
 8001be4:	685b      	ldr	r3, [r3, #4]
 8001be6:	61bb      	str	r3, [r7, #24]
 8001be8:	69fb      	ldr	r3, [r7, #28]
 8001bea:	2b01      	cmp	r3, #1
 8001bec:	d010      	beq.n	8001c10 <HAL_SPI_TransmitReceive+0x80>
 8001bee:	69ba      	ldr	r2, [r7, #24]
 8001bf0:	2382      	movs	r3, #130	; 0x82
 8001bf2:	005b      	lsls	r3, r3, #1
 8001bf4:	429a      	cmp	r2, r3
 8001bf6:	d106      	bne.n	8001c06 <HAL_SPI_TransmitReceive+0x76>
 8001bf8:	68fb      	ldr	r3, [r7, #12]
 8001bfa:	689b      	ldr	r3, [r3, #8]
 8001bfc:	2b00      	cmp	r3, #0
 8001bfe:	d102      	bne.n	8001c06 <HAL_SPI_TransmitReceive+0x76>
 8001c00:	69fb      	ldr	r3, [r7, #28]
 8001c02:	2b04      	cmp	r3, #4
 8001c04:	d004      	beq.n	8001c10 <HAL_SPI_TransmitReceive+0x80>
 8001c06:	2323      	movs	r3, #35	; 0x23
 8001c08:	18fb      	adds	r3, r7, r3
 8001c0a:	2202      	movs	r2, #2
 8001c0c:	701a      	strb	r2, [r3, #0]
 8001c0e:	e1c3      	b.n	8001f98 <HAL_SPI_TransmitReceive+0x408>
 8001c10:	68bb      	ldr	r3, [r7, #8]
 8001c12:	2b00      	cmp	r3, #0
 8001c14:	d006      	beq.n	8001c24 <HAL_SPI_TransmitReceive+0x94>
 8001c16:	687b      	ldr	r3, [r7, #4]
 8001c18:	2b00      	cmp	r3, #0
 8001c1a:	d003      	beq.n	8001c24 <HAL_SPI_TransmitReceive+0x94>
 8001c1c:	1cbb      	adds	r3, r7, #2
 8001c1e:	881b      	ldrh	r3, [r3, #0]
 8001c20:	2b00      	cmp	r3, #0
 8001c22:	d104      	bne.n	8001c2e <HAL_SPI_TransmitReceive+0x9e>
 8001c24:	2323      	movs	r3, #35	; 0x23
 8001c26:	18fb      	adds	r3, r7, r3
 8001c28:	2201      	movs	r2, #1
 8001c2a:	701a      	strb	r2, [r3, #0]
 8001c2c:	e1b4      	b.n	8001f98 <HAL_SPI_TransmitReceive+0x408>
 8001c2e:	68fb      	ldr	r3, [r7, #12]
 8001c30:	225d      	movs	r2, #93	; 0x5d
 8001c32:	5c9b      	ldrb	r3, [r3, r2]
 8001c34:	b2db      	uxtb	r3, r3
 8001c36:	2b04      	cmp	r3, #4
 8001c38:	d003      	beq.n	8001c42 <HAL_SPI_TransmitReceive+0xb2>
 8001c3a:	68fb      	ldr	r3, [r7, #12]
 8001c3c:	225d      	movs	r2, #93	; 0x5d
 8001c3e:	2105      	movs	r1, #5
 8001c40:	5499      	strb	r1, [r3, r2]
 8001c42:	68fb      	ldr	r3, [r7, #12]
 8001c44:	2200      	movs	r2, #0
 8001c46:	661a      	str	r2, [r3, #96]	; 0x60
 8001c48:	68fb      	ldr	r3, [r7, #12]
 8001c4a:	687a      	ldr	r2, [r7, #4]
 8001c4c:	641a      	str	r2, [r3, #64]	; 0x40
 8001c4e:	68fb      	ldr	r3, [r7, #12]
 8001c50:	1cba      	adds	r2, r7, #2
 8001c52:	2146      	movs	r1, #70	; 0x46
 8001c54:	8812      	ldrh	r2, [r2, #0]
 8001c56:	525a      	strh	r2, [r3, r1]
 8001c58:	68fb      	ldr	r3, [r7, #12]
 8001c5a:	1cba      	adds	r2, r7, #2
 8001c5c:	2144      	movs	r1, #68	; 0x44
 8001c5e:	8812      	ldrh	r2, [r2, #0]
 8001c60:	525a      	strh	r2, [r3, r1]
 8001c62:	68fb      	ldr	r3, [r7, #12]
 8001c64:	68ba      	ldr	r2, [r7, #8]
 8001c66:	639a      	str	r2, [r3, #56]	; 0x38
 8001c68:	68fb      	ldr	r3, [r7, #12]
 8001c6a:	1cba      	adds	r2, r7, #2
 8001c6c:	8812      	ldrh	r2, [r2, #0]
 8001c6e:	87da      	strh	r2, [r3, #62]	; 0x3e
 8001c70:	68fb      	ldr	r3, [r7, #12]
 8001c72:	1cba      	adds	r2, r7, #2
 8001c74:	8812      	ldrh	r2, [r2, #0]
 8001c76:	879a      	strh	r2, [r3, #60]	; 0x3c
 8001c78:	68fb      	ldr	r3, [r7, #12]
 8001c7a:	2200      	movs	r2, #0
 8001c7c:	64da      	str	r2, [r3, #76]	; 0x4c
 8001c7e:	68fb      	ldr	r3, [r7, #12]
 8001c80:	2200      	movs	r2, #0
 8001c82:	651a      	str	r2, [r3, #80]	; 0x50
 8001c84:	68fb      	ldr	r3, [r7, #12]
 8001c86:	68da      	ldr	r2, [r3, #12]
 8001c88:	23e0      	movs	r3, #224	; 0xe0
 8001c8a:	00db      	lsls	r3, r3, #3
 8001c8c:	429a      	cmp	r2, r3
 8001c8e:	d805      	bhi.n	8001c9c <HAL_SPI_TransmitReceive+0x10c>
 8001c90:	68fb      	ldr	r3, [r7, #12]
 8001c92:	2246      	movs	r2, #70	; 0x46
 8001c94:	5a9b      	ldrh	r3, [r3, r2]
 8001c96:	b29b      	uxth	r3, r3
 8001c98:	2b01      	cmp	r3, #1
 8001c9a:	d908      	bls.n	8001cae <HAL_SPI_TransmitReceive+0x11e>
 8001c9c:	68fb      	ldr	r3, [r7, #12]
 8001c9e:	681b      	ldr	r3, [r3, #0]
 8001ca0:	685a      	ldr	r2, [r3, #4]
 8001ca2:	68fb      	ldr	r3, [r7, #12]
 8001ca4:	681b      	ldr	r3, [r3, #0]
 8001ca6:	49c4      	ldr	r1, [pc, #784]	; (8001fb8 <HAL_SPI_TransmitReceive+0x428>)
 8001ca8:	400a      	ands	r2, r1
 8001caa:	605a      	str	r2, [r3, #4]
 8001cac:	e008      	b.n	8001cc0 <HAL_SPI_TransmitReceive+0x130>
 8001cae:	68fb      	ldr	r3, [r7, #12]
 8001cb0:	681b      	ldr	r3, [r3, #0]
 8001cb2:	685a      	ldr	r2, [r3, #4]
 8001cb4:	68fb      	ldr	r3, [r7, #12]
 8001cb6:	681b      	ldr	r3, [r3, #0]
 8001cb8:	2180      	movs	r1, #128	; 0x80
 8001cba:	0149      	lsls	r1, r1, #5
 8001cbc:	430a      	orrs	r2, r1
 8001cbe:	605a      	str	r2, [r3, #4]
 8001cc0:	68fb      	ldr	r3, [r7, #12]
 8001cc2:	681b      	ldr	r3, [r3, #0]
 8001cc4:	681b      	ldr	r3, [r3, #0]
 8001cc6:	2240      	movs	r2, #64	; 0x40
 8001cc8:	4013      	ands	r3, r2
 8001cca:	2b40      	cmp	r3, #64	; 0x40
 8001ccc:	d007      	beq.n	8001cde <HAL_SPI_TransmitReceive+0x14e>
 8001cce:	68fb      	ldr	r3, [r7, #12]
 8001cd0:	681b      	ldr	r3, [r3, #0]
 8001cd2:	681a      	ldr	r2, [r3, #0]
 8001cd4:	68fb      	ldr	r3, [r7, #12]
 8001cd6:	681b      	ldr	r3, [r3, #0]
 8001cd8:	2140      	movs	r1, #64	; 0x40
 8001cda:	430a      	orrs	r2, r1
 8001cdc:	601a      	str	r2, [r3, #0]
 8001cde:	68fb      	ldr	r3, [r7, #12]
 8001ce0:	68da      	ldr	r2, [r3, #12]
 8001ce2:	23e0      	movs	r3, #224	; 0xe0
 8001ce4:	00db      	lsls	r3, r3, #3
 8001ce6:	429a      	cmp	r2, r3
 8001ce8:	d800      	bhi.n	8001cec <HAL_SPI_TransmitReceive+0x15c>
 8001cea:	e075      	b.n	8001dd8 <HAL_SPI_TransmitReceive+0x248>
 8001cec:	68fb      	ldr	r3, [r7, #12]
 8001cee:	685b      	ldr	r3, [r3, #4]
 8001cf0:	2b00      	cmp	r3, #0
 8001cf2:	d004      	beq.n	8001cfe <HAL_SPI_TransmitReceive+0x16e>
 8001cf4:	68fb      	ldr	r3, [r7, #12]
 8001cf6:	8fdb      	ldrh	r3, [r3, #62]	; 0x3e
 8001cf8:	b29b      	uxth	r3, r3
 8001cfa:	2b01      	cmp	r3, #1
 8001cfc:	d160      	bne.n	8001dc0 <HAL_SPI_TransmitReceive+0x230>
 8001cfe:	68bb      	ldr	r3, [r7, #8]
 8001d00:	881a      	ldrh	r2, [r3, #0]
 8001d02:	68fb      	ldr	r3, [r7, #12]
 8001d04:	681b      	ldr	r3, [r3, #0]
 8001d06:	60da      	str	r2, [r3, #12]
 8001d08:	68bb      	ldr	r3, [r7, #8]
 8001d0a:	3302      	adds	r3, #2
 8001d0c:	60bb      	str	r3, [r7, #8]
 8001d0e:	68fb      	ldr	r3, [r7, #12]
 8001d10:	8fdb      	ldrh	r3, [r3, #62]	; 0x3e
 8001d12:	b29b      	uxth	r3, r3
 8001d14:	3b01      	subs	r3, #1
 8001d16:	b29a      	uxth	r2, r3
 8001d18:	68fb      	ldr	r3, [r7, #12]
 8001d1a:	87da      	strh	r2, [r3, #62]	; 0x3e
 8001d1c:	e050      	b.n	8001dc0 <HAL_SPI_TransmitReceive+0x230>
 8001d1e:	6a7b      	ldr	r3, [r7, #36]	; 0x24
 8001d20:	2b00      	cmp	r3, #0
 8001d22:	d01c      	beq.n	8001d5e <HAL_SPI_TransmitReceive+0x1ce>
 8001d24:	68fb      	ldr	r3, [r7, #12]
 8001d26:	8fdb      	ldrh	r3, [r3, #62]	; 0x3e
 8001d28:	b29b      	uxth	r3, r3
 8001d2a:	2b00      	cmp	r3, #0
 8001d2c:	d017      	beq.n	8001d5e <HAL_SPI_TransmitReceive+0x1ce>
 8001d2e:	68fb      	ldr	r3, [r7, #12]
 8001d30:	681b      	ldr	r3, [r3, #0]
 8001d32:	689b      	ldr	r3, [r3, #8]
 8001d34:	2202      	movs	r2, #2
 8001d36:	4013      	ands	r3, r2
 8001d38:	2b02      	cmp	r3, #2
 8001d3a:	d110      	bne.n	8001d5e <HAL_SPI_TransmitReceive+0x1ce>
 8001d3c:	68bb      	ldr	r3, [r7, #8]
 8001d3e:	881a      	ldrh	r2, [r3, #0]
 8001d40:	68fb      	ldr	r3, [r7, #12]
 8001d42:	681b      	ldr	r3, [r3, #0]
 8001d44:	60da      	str	r2, [r3, #12]
 8001d46:	68bb      	ldr	r3, [r7, #8]
 8001d48:	3302      	adds	r3, #2
 8001d4a:	60bb      	str	r3, [r7, #8]
 8001d4c:	68fb      	ldr	r3, [r7, #12]
 8001d4e:	8fdb      	ldrh	r3, [r3, #62]	; 0x3e
 8001d50:	b29b      	uxth	r3, r3
 8001d52:	3b01      	subs	r3, #1
 8001d54:	b29a      	uxth	r2, r3
 8001d56:	68fb      	ldr	r3, [r7, #12]
 8001d58:	87da      	strh	r2, [r3, #62]	; 0x3e
 8001d5a:	2300      	movs	r3, #0
 8001d5c:	627b      	str	r3, [r7, #36]	; 0x24
 8001d5e:	68fb      	ldr	r3, [r7, #12]
 8001d60:	2246      	movs	r2, #70	; 0x46
 8001d62:	5a9b      	ldrh	r3, [r3, r2]
 8001d64:	b29b      	uxth	r3, r3
 8001d66:	2b00      	cmp	r3, #0
 8001d68:	d01a      	beq.n	8001da0 <HAL_SPI_TransmitReceive+0x210>
 8001d6a:	68fb      	ldr	r3, [r7, #12]
 8001d6c:	681b      	ldr	r3, [r3, #0]
 8001d6e:	689b      	ldr	r3, [r3, #8]
 8001d70:	2201      	movs	r2, #1
 8001d72:	4013      	ands	r3, r2
 8001d74:	2b01      	cmp	r3, #1
 8001d76:	d113      	bne.n	8001da0 <HAL_SPI_TransmitReceive+0x210>
 8001d78:	68fb      	ldr	r3, [r7, #12]
 8001d7a:	681b      	ldr	r3, [r3, #0]
 8001d7c:	68db      	ldr	r3, [r3, #12]
 8001d7e:	b29a      	uxth	r2, r3
 8001d80:	687b      	ldr	r3, [r7, #4]
 8001d82:	801a      	strh	r2, [r3, #0]
 8001d84:	687b      	ldr	r3, [r7, #4]
 8001d86:	3302      	adds	r3, #2
 8001d88:	607b      	str	r3, [r7, #4]
 8001d8a:	68fb      	ldr	r3, [r7, #12]
 8001d8c:	2246      	movs	r2, #70	; 0x46
 8001d8e:	5a9b      	ldrh	r3, [r3, r2]
 8001d90:	b29b      	uxth	r3, r3
 8001d92:	3b01      	subs	r3, #1
 8001d94:	b299      	uxth	r1, r3
 8001d96:	68fb      	ldr	r3, [r7, #12]
 8001d98:	2246      	movs	r2, #70	; 0x46
 8001d9a:	5299      	strh	r1, [r3, r2]
 8001d9c:	2301      	movs	r3, #1
 8001d9e:	627b      	str	r3, [r7, #36]	; 0x24
 8001da0:	6b3b      	ldr	r3, [r7, #48]	; 0x30
 8001da2:	3301      	adds	r3, #1
 8001da4:	d00c      	beq.n	8001dc0 <HAL_SPI_TransmitReceive+0x230>
 8001da6:	f7fe fa89 	bl	80002bc <HAL_GetTick>
 8001daa:	0002      	movs	r2, r0
 8001dac:	697b      	ldr	r3, [r7, #20]
 8001dae:	1ad3      	subs	r3, r2, r3
 8001db0:	6b3a      	ldr	r2, [r7, #48]	; 0x30
 8001db2:	429a      	cmp	r2, r3
 8001db4:	d804      	bhi.n	8001dc0 <HAL_SPI_TransmitReceive+0x230>
 8001db6:	2323      	movs	r3, #35	; 0x23
 8001db8:	18fb      	adds	r3, r7, r3
 8001dba:	2203      	movs	r2, #3
 8001dbc:	701a      	strb	r2, [r3, #0]
 8001dbe:	e0eb      	b.n	8001f98 <HAL_SPI_TransmitReceive+0x408>
 8001dc0:	68fb      	ldr	r3, [r7, #12]
 8001dc2:	8fdb      	ldrh	r3, [r3, #62]	; 0x3e
 8001dc4:	b29b      	uxth	r3, r3
 8001dc6:	2b00      	cmp	r3, #0
 8001dc8:	d1a9      	bne.n	8001d1e <HAL_SPI_TransmitReceive+0x18e>
 8001dca:	68fb      	ldr	r3, [r7, #12]
 8001dcc:	2246      	movs	r2, #70	; 0x46
 8001dce:	5a9b      	ldrh	r3, [r3, r2]
 8001dd0:	b29b      	uxth	r3, r3
 8001dd2:	2b00      	cmp	r3, #0
 8001dd4:	d1a3      	bne.n	8001d1e <HAL_SPI_TransmitReceive+0x18e>
 8001dd6:	e0ca      	b.n	8001f6e <HAL_SPI_TransmitReceive+0x3de>
 8001dd8:	68fb      	ldr	r3, [r7, #12]
 8001dda:	685b      	ldr	r3, [r3, #4]
 8001ddc:	2b00      	cmp	r3, #0
 8001dde:	d005      	beq.n	8001dec <HAL_SPI_TransmitReceive+0x25c>
 8001de0:	68fb      	ldr	r3, [r7, #12]
 8001de2:	8fdb      	ldrh	r3, [r3, #62]	; 0x3e
 8001de4:	b29b      	uxth	r3, r3
 8001de6:	2b01      	cmp	r3, #1
 8001de8:	d000      	beq.n	8001dec <HAL_SPI_TransmitReceive+0x25c>
 8001dea:	e0b3      	b.n	8001f54 <HAL_SPI_TransmitReceive+0x3c4>
 8001dec:	68fb      	ldr	r3, [r7, #12]
 8001dee:	8fdb      	ldrh	r3, [r3, #62]	; 0x3e
 8001df0:	b29b      	uxth	r3, r3
 8001df2:	2b01      	cmp	r3, #1
 8001df4:	d90f      	bls.n	8001e16 <HAL_SPI_TransmitReceive+0x286>
 8001df6:	68bb      	ldr	r3, [r7, #8]
 8001df8:	881a      	ldrh	r2, [r3, #0]
 8001dfa:	68fb      	ldr	r3, [r7, #12]
 8001dfc:	681b      	ldr	r3, [r3, #0]
 8001dfe:	60da      	str	r2, [r3, #12]
 8001e00:	68bb      	ldr	r3, [r7, #8]
 8001e02:	3302      	adds	r3, #2
 8001e04:	60bb      	str	r3, [r7, #8]
 8001e06:	68fb      	ldr	r3, [r7, #12]
 8001e08:	8fdb      	ldrh	r3, [r3, #62]	; 0x3e
 8001e0a:	b29b      	uxth	r3, r3
 8001e0c:	3b02      	subs	r3, #2
 8001e0e:	b29a      	uxth	r2, r3
 8001e10:	68fb      	ldr	r3, [r7, #12]
 8001e12:	87da      	strh	r2, [r3, #62]	; 0x3e
 8001e14:	e09e      	b.n	8001f54 <HAL_SPI_TransmitReceive+0x3c4>
 8001e16:	68bb      	ldr	r3, [r7, #8]
 8001e18:	1c5a      	adds	r2, r3, #1
 8001e1a:	60ba      	str	r2, [r7, #8]
 8001e1c:	68fa      	ldr	r2, [r7, #12]
 8001e1e:	6812      	ldr	r2, [r2, #0]
 8001e20:	320c      	adds	r2, #12
 8001e22:	781b      	ldrb	r3, [r3, #0]
 8001e24:	7013      	strb	r3, [r2, #0]
 8001e26:	68fb      	ldr	r3, [r7, #12]
 8001e28:	8fdb      	ldrh	r3, [r3, #62]	; 0x3e
 8001e2a:	b29b      	uxth	r3, r3
 8001e2c:	3b01      	subs	r3, #1
 8001e2e:	b29a      	uxth	r2, r3
 8001e30:	68fb      	ldr	r3, [r7, #12]
 8001e32:	87da      	strh	r2, [r3, #62]	; 0x3e
 8001e34:	e08e      	b.n	8001f54 <HAL_SPI_TransmitReceive+0x3c4>
 8001e36:	6a7b      	ldr	r3, [r7, #36]	; 0x24
 8001e38:	2b00      	cmp	r3, #0
 8001e3a:	d031      	beq.n	8001ea0 <HAL_SPI_TransmitReceive+0x310>
 8001e3c:	68fb      	ldr	r3, [r7, #12]
 8001e3e:	8fdb      	ldrh	r3, [r3, #62]	; 0x3e
 8001e40:	b29b      	uxth	r3, r3
 8001e42:	2b00      	cmp	r3, #0
 8001e44:	d02c      	beq.n	8001ea0 <HAL_SPI_TransmitReceive+0x310>
 8001e46:	68fb      	ldr	r3, [r7, #12]
 8001e48:	681b      	ldr	r3, [r3, #0]
 8001e4a:	689b      	ldr	r3, [r3, #8]
 8001e4c:	2202      	movs	r2, #2
 8001e4e:	4013      	ands	r3, r2
 8001e50:	2b02      	cmp	r3, #2
 8001e52:	d125      	bne.n	8001ea0 <HAL_SPI_TransmitReceive+0x310>
 8001e54:	68fb      	ldr	r3, [r7, #12]
 8001e56:	8fdb      	ldrh	r3, [r3, #62]	; 0x3e
 8001e58:	b29b      	uxth	r3, r3
 8001e5a:	2b01      	cmp	r3, #1
 8001e5c:	d90f      	bls.n	8001e7e <HAL_SPI_TransmitReceive+0x2ee>
 8001e5e:	68bb      	ldr	r3, [r7, #8]
 8001e60:	881a      	ldrh	r2, [r3, #0]
 8001e62:	68fb      	ldr	r3, [r7, #12]
 8001e64:	681b      	ldr	r3, [r3, #0]
 8001e66:	60da      	str	r2, [r3, #12]
 8001e68:	68bb      	ldr	r3, [r7, #8]
 8001e6a:	3302      	adds	r3, #2
 8001e6c:	60bb      	str	r3, [r7, #8]
 8001e6e:	68fb      	ldr	r3, [r7, #12]
 8001e70:	8fdb      	ldrh	r3, [r3, #62]	; 0x3e
 8001e72:	b29b      	uxth	r3, r3
 8001e74:	3b02      	subs	r3, #2
 8001e76:	b29a      	uxth	r2, r3
 8001e78:	68fb      	ldr	r3, [r7, #12]
 8001e7a:	87da      	strh	r2, [r3, #62]	; 0x3e
 8001e7c:	e00e      	b.n	8001e9c <HAL_SPI_TransmitReceive+0x30c>
 8001e7e:	68bb      	ldr	r3, [r7, #8]
 8001e80:	1c5a      	adds	r2, r3, #1
 8001e82:	60ba      	str	r2, [r7, #8]
 8001e84:	68fa      	ldr	r2, [r7, #12]
 8001e86:	6812      	ldr	r2, [r2, #0]
 8001e88:	320c      	adds	r2, #12
 8001e8a:	781b      	ldrb	r3, [r3, #0]
 8001e8c:	7013      	strb	r3, [r2, #0]
 8001e8e:	68fb      	ldr	r3, [r7, #12]
 8001e90:	8fdb      	ldrh	r3, [r3, #62]	; 0x3e
 8001e92:	b29b      	uxth	r3, r3
 8001e94:	3b01      	subs	r3, #1
 8001e96:	b29a      	uxth	r2, r3
 8001e98:	68fb      	ldr	r3, [r7, #12]
 8001e9a:	87da      	strh	r2, [r3, #62]	; 0x3e
 8001e9c:	2300      	movs	r3, #0
 8001e9e:	627b      	str	r3, [r7, #36]	; 0x24
 8001ea0:	68fb      	ldr	r3, [r7, #12]
 8001ea2:	2246      	movs	r2, #70	; 0x46
 8001ea4:	5a9b      	ldrh	r3, [r3, r2]
 8001ea6:	b29b      	uxth	r3, r3
 8001ea8:	2b00      	cmp	r3, #0
 8001eaa:	d043      	beq.n	8001f34 <HAL_SPI_TransmitReceive+0x3a4>
 8001eac:	68fb      	ldr	r3, [r7, #12]
 8001eae:	681b      	ldr	r3, [r3, #0]
 8001eb0:	689b      	ldr	r3, [r3, #8]
 8001eb2:	2201      	movs	r2, #1
 8001eb4:	4013      	ands	r3, r2
 8001eb6:	2b01      	cmp	r3, #1
 8001eb8:	d13c      	bne.n	8001f34 <HAL_SPI_TransmitReceive+0x3a4>
 8001eba:	68fb      	ldr	r3, [r7, #12]
 8001ebc:	2246      	movs	r2, #70	; 0x46
 8001ebe:	5a9b      	ldrh	r3, [r3, r2]
 8001ec0:	b29b      	uxth	r3, r3
 8001ec2:	2b01      	cmp	r3, #1
 8001ec4:	d921      	bls.n	8001f0a <HAL_SPI_TransmitReceive+0x37a>
 8001ec6:	68fb      	ldr	r3, [r7, #12]
 8001ec8:	681b      	ldr	r3, [r3, #0]
 8001eca:	68db      	ldr	r3, [r3, #12]
 8001ecc:	b29a      	uxth	r2, r3
 8001ece:	687b      	ldr	r3, [r7, #4]
 8001ed0:	801a      	strh	r2, [r3, #0]
 8001ed2:	687b      	ldr	r3, [r7, #4]
 8001ed4:	3302      	adds	r3, #2
 8001ed6:	607b      	str	r3, [r7, #4]
 8001ed8:	68fb      	ldr	r3, [r7, #12]
 8001eda:	2246      	movs	r2, #70	; 0x46
 8001edc:	5a9b      	ldrh	r3, [r3, r2]
 8001ede:	b29b      	uxth	r3, r3
 8001ee0:	3b02      	subs	r3, #2
 8001ee2:	b299      	uxth	r1, r3
 8001ee4:	68fb      	ldr	r3, [r7, #12]
 8001ee6:	2246      	movs	r2, #70	; 0x46
 8001ee8:	5299      	strh	r1, [r3, r2]
 8001eea:	68fb      	ldr	r3, [r7, #12]
 8001eec:	2246      	movs	r2, #70	; 0x46
 8001eee:	5a9b      	ldrh	r3, [r3, r2]
 8001ef0:	b29b      	uxth	r3, r3
 8001ef2:	2b01      	cmp	r3, #1
 8001ef4:	d81c      	bhi.n	8001f30 <HAL_SPI_TransmitReceive+0x3a0>
 8001ef6:	68fb      	ldr	r3, [r7, #12]
 8001ef8:	681b      	ldr	r3, [r3, #0]
 8001efa:	685a      	ldr	r2, [r3, #4]
 8001efc:	68fb      	ldr	r3, [r7, #12]
 8001efe:	681b      	ldr	r3, [r3, #0]
 8001f00:	2180      	movs	r1, #128	; 0x80
 8001f02:	0149      	lsls	r1, r1, #5
 8001f04:	430a      	orrs	r2, r1
 8001f06:	605a      	str	r2, [r3, #4]
 8001f08:	e012      	b.n	8001f30 <HAL_SPI_TransmitReceive+0x3a0>
 8001f0a:	68fb      	ldr	r3, [r7, #12]
 8001f0c:	681b      	ldr	r3, [r3, #0]
 8001f0e:	330c      	adds	r3, #12
 8001f10:	001a      	movs	r2, r3
 8001f12:	687b      	ldr	r3, [r7, #4]
 8001f14:	1c59      	adds	r1, r3, #1
 8001f16:	6079      	str	r1, [r7, #4]
 8001f18:	7812      	ldrb	r2, [r2, #0]
 8001f1a:	b2d2      	uxtb	r2, r2
 8001f1c:	701a      	strb	r2, [r3, #0]
 8001f1e:	68fb      	ldr	r3, [r7, #12]
 8001f20:	2246      	movs	r2, #70	; 0x46
 8001f22:	5a9b      	ldrh	r3, [r3, r2]
 8001f24:	b29b      	uxth	r3, r3
 8001f26:	3b01      	subs	r3, #1
 8001f28:	b299      	uxth	r1, r3
 8001f2a:	68fb      	ldr	r3, [r7, #12]
 8001f2c:	2246      	movs	r2, #70	; 0x46
 8001f2e:	5299      	strh	r1, [r3, r2]
 8001f30:	2301      	movs	r3, #1
 8001f32:	627b      	str	r3, [r7, #36]	; 0x24
 8001f34:	6b3b      	ldr	r3, [r7, #48]	; 0x30
 8001f36:	3301      	adds	r3, #1
 8001f38:	d00c      	beq.n	8001f54 <HAL_SPI_TransmitReceive+0x3c4>
 8001f3a:	f7fe f9bf 	bl	80002bc <HAL_GetTick>
 8001f3e:	0002      	movs	r2, r0
 8001f40:	697b      	ldr	r3, [r7, #20]
 8001f42:	1ad3      	subs	r3, r2, r3
 8001f44:	6b3a      	ldr	r2, [r7, #48]	; 0x30
 8001f46:	429a      	cmp	r2, r3
 8001f48:	d804      	bhi.n	8001f54 <HAL_SPI_TransmitReceive+0x3c4>
 8001f4a:	2323      	movs	r3, #35	; 0x23
 8001f4c:	18fb      	adds	r3, r7, r3
 8001f4e:	2203      	movs	r2, #3
 8001f50:	701a      	strb	r2, [r3, #0]
 8001f52:	e021      	b.n	8001f98 <HAL_SPI_TransmitReceive+0x408>
 8001f54:	68fb      	ldr	r3, [r7, #12]
 8001f56:	8fdb      	ldrh	r3, [r3, #62]	; 0x3e
 8001f58:	b29b      	uxth	r3, r3
 8001f5a:	2b00      	cmp	r3, #0
 8001f5c:	d000      	beq.n	8001f60 <HAL_SPI_TransmitReceive+0x3d0>
 8001f5e:	e76a      	b.n	8001e36 <HAL_SPI_TransmitReceive+0x2a6>
 8001f60:	68fb      	ldr	r3, [r7, #12]
 8001f62:	2246      	movs	r2, #70	; 0x46
 8001f64:	5a9b      	ldrh	r3, [r3, r2]
 8001f66:	b29b      	uxth	r3, r3
 8001f68:	2b00      	cmp	r3, #0
 8001f6a:	d000      	beq.n	8001f6e <HAL_SPI_TransmitReceive+0x3de>
 8001f6c:	e763      	b.n	8001e36 <HAL_SPI_TransmitReceive+0x2a6>
 8001f6e:	697a      	ldr	r2, [r7, #20]
 8001f70:	6b39      	ldr	r1, [r7, #48]	; 0x30
 8001f72:	68fb      	ldr	r3, [r7, #12]
 8001f74:	0018      	movs	r0, r3
 8001f76:	f000 f967 	bl	8002248 <SPI_EndRxTxTransaction>
 8001f7a:	1e03      	subs	r3, r0, #0
 8001f7c:	d002      	beq.n	8001f84 <HAL_SPI_TransmitReceive+0x3f4>
 8001f7e:	68fb      	ldr	r3, [r7, #12]
 8001f80:	2220      	movs	r2, #32
 8001f82:	661a      	str	r2, [r3, #96]	; 0x60
 8001f84:	68fb      	ldr	r3, [r7, #12]
 8001f86:	6e1b      	ldr	r3, [r3, #96]	; 0x60
 8001f88:	2b00      	cmp	r3, #0
 8001f8a:	d004      	beq.n	8001f96 <HAL_SPI_TransmitReceive+0x406>
 8001f8c:	2323      	movs	r3, #35	; 0x23
 8001f8e:	18fb      	adds	r3, r7, r3
 8001f90:	2201      	movs	r2, #1
 8001f92:	701a      	strb	r2, [r3, #0]
 8001f94:	e000      	b.n	8001f98 <HAL_SPI_TransmitReceive+0x408>
 8001f96:	46c0      	nop			; (mov r8, r8)
 8001f98:	68fb      	ldr	r3, [r7, #12]
 8001f9a:	225d      	movs	r2, #93	; 0x5d
 8001f9c:	2101      	movs	r1, #1
 8001f9e:	5499      	strb	r1, [r3, r2]
 8001fa0:	68fb      	ldr	r3, [r7, #12]
 8001fa2:	225c      	movs	r2, #92	; 0x5c
 8001fa4:	2100      	movs	r1, #0
 8001fa6:	5499      	strb	r1, [r3, r2]
 8001fa8:	2323      	movs	r3, #35	; 0x23
 8001faa:	18fb      	adds	r3, r7, r3
 8001fac:	781b      	ldrb	r3, [r3, #0]
 8001fae:	0018      	movs	r0, r3
 8001fb0:	46bd      	mov	sp, r7
 8001fb2:	b00a      	add	sp, #40	; 0x28
 8001fb4:	bd80      	pop	{r7, pc}
 8001fb6:	46c0      	nop			; (mov r8, r8)
 8001fb8:	ffffefff 	.word	0xffffefff

08001fbc <SPI_WaitFlagStateUntilTimeout>:
 8001fbc:	b580      	push	{r7, lr}
 8001fbe:	b084      	sub	sp, #16
 8001fc0:	af00      	add	r7, sp, #0
 8001fc2:	60f8      	str	r0, [r7, #12]
 8001fc4:	60b9      	str	r1, [r7, #8]
 8001fc6:	607a      	str	r2, [r7, #4]
 8001fc8:	603b      	str	r3, [r7, #0]
 8001fca:	e050      	b.n	800206e <SPI_WaitFlagStateUntilTimeout+0xb2>
 8001fcc:	683b      	ldr	r3, [r7, #0]
 8001fce:	3301      	adds	r3, #1
 8001fd0:	d04d      	beq.n	800206e <SPI_WaitFlagStateUntilTimeout+0xb2>
 8001fd2:	683b      	ldr	r3, [r7, #0]
 8001fd4:	2b00      	cmp	r3, #0
 8001fd6:	d007      	beq.n	8001fe8 <SPI_WaitFlagStateUntilTimeout+0x2c>
 8001fd8:	f7fe f970 	bl	80002bc <HAL_GetTick>
 8001fdc:	0002      	movs	r2, r0
 8001fde:	69bb      	ldr	r3, [r7, #24]
 8001fe0:	1ad3      	subs	r3, r2, r3
 8001fe2:	683a      	ldr	r2, [r7, #0]
 8001fe4:	429a      	cmp	r2, r3
 8001fe6:	d842      	bhi.n	800206e <SPI_WaitFlagStateUntilTimeout+0xb2>
 8001fe8:	68fb      	ldr	r3, [r7, #12]
 8001fea:	681b      	ldr	r3, [r3, #0]
 8001fec:	685a      	ldr	r2, [r3, #4]
 8001fee:	68fb      	ldr	r3, [r7, #12]
 8001ff0:	681b      	ldr	r3, [r3, #0]
 8001ff2:	21e0      	movs	r1, #224	; 0xe0
 8001ff4:	438a      	bics	r2, r1
 8001ff6:	605a      	str	r2, [r3, #4]
 8001ff8:	68fb      	ldr	r3, [r7, #12]
 8001ffa:	685a      	ldr	r2, [r3, #4]
 8001ffc:	2382      	movs	r3, #130	; 0x82
 8001ffe:	005b      	lsls	r3, r3, #1
 8002000:	429a      	cmp	r2, r3
 8002002:	d113      	bne.n	800202c <SPI_WaitFlagStateUntilTimeout+0x70>
 8002004:	68fb      	ldr	r3, [r7, #12]
 8002006:	689a      	ldr	r2, [r3, #8]
 8002008:	2380      	movs	r3, #128	; 0x80
 800200a:	021b      	lsls	r3, r3, #8
 800200c:	429a      	cmp	r2, r3
 800200e:	d005      	beq.n	800201c <SPI_WaitFlagStateUntilTimeout+0x60>
 8002010:	68fb      	ldr	r3, [r7, #12]
 8002012:	689a      	ldr	r2, [r3, #8]
 8002014:	2380      	movs	r3, #128	; 0x80
 8002016:	00db      	lsls	r3, r3, #3
 8002018:	429a      	cmp	r2, r3
 800201a:	d107      	bne.n	800202c <SPI_WaitFlagStateUntilTimeout+0x70>
 800201c:	68fb      	ldr	r3, [r7, #12]
 800201e:	681b      	ldr	r3, [r3, #0]
 8002020:	681a      	ldr	r2, [r3, #0]
 8002022:	68fb      	ldr	r3, [r7, #12]
 8002024:	681b      	ldr	r3, [r3, #0]
 8002026:	2140      	movs	r1, #64	; 0x40
 8002028:	438a      	bics	r2, r1
 800202a:	601a      	str	r2, [r3, #0]
 800202c:	68fb      	ldr	r3, [r7, #12]
 800202e:	6a9a      	ldr	r2, [r3, #40]	; 0x28
 8002030:	2380      	movs	r3, #128	; 0x80
 8002032:	019b      	lsls	r3, r3, #6
 8002034:	429a      	cmp	r2, r3
 8002036:	d110      	bne.n	800205a <SPI_WaitFlagStateUntilTimeout+0x9e>
 8002038:	68fb      	ldr	r3, [r7, #12]
 800203a:	681b      	ldr	r3, [r3, #0]
 800203c:	681a      	ldr	r2, [r3, #0]
 800203e:	68fb      	ldr	r3, [r7, #12]
 8002040:	681b      	ldr	r3, [r3, #0]
 8002042:	4914      	ldr	r1, [pc, #80]	; (8002094 <SPI_WaitFlagStateUntilTimeout+0xd8>)
 8002044:	400a      	ands	r2, r1
 8002046:	601a      	str	r2, [r3, #0]
 8002048:	68fb      	ldr	r3, [r7, #12]
 800204a:	681b      	ldr	r3, [r3, #0]
 800204c:	681a      	ldr	r2, [r3, #0]
 800204e:	68fb      	ldr	r3, [r7, #12]
 8002050:	681b      	ldr	r3, [r3, #0]
 8002052:	2180      	movs	r1, #128	; 0x80
 8002054:	0189      	lsls	r1, r1, #6
 8002056:	430a      	orrs	r2, r1
 8002058:	601a      	str	r2, [r3, #0]
 800205a:	68fb      	ldr	r3, [r7, #12]
 800205c:	225d      	movs	r2, #93	; 0x5d
 800205e:	2101      	movs	r1, #1
 8002060:	5499      	strb	r1, [r3, r2]
 8002062:	68fb      	ldr	r3, [r7, #12]
 8002064:	225c      	movs	r2, #92	; 0x5c
 8002066:	2100      	movs	r1, #0
 8002068:	5499      	strb	r1, [r3, r2]
 800206a:	2303      	movs	r3, #3
 800206c:	e00e      	b.n	800208c <SPI_WaitFlagStateUntilTimeout+0xd0>
 800206e:	68fb      	ldr	r3, [r7, #12]
 8002070:	681b      	ldr	r3, [r3, #0]
 8002072:	689b      	ldr	r3, [r3, #8]
 8002074:	68ba      	ldr	r2, [r7, #8]
 8002076:	4013      	ands	r3, r2
 8002078:	68ba      	ldr	r2, [r7, #8]
 800207a:	429a      	cmp	r2, r3
 800207c:	d101      	bne.n	8002082 <SPI_WaitFlagStateUntilTimeout+0xc6>
 800207e:	2301      	movs	r3, #1
 8002080:	e000      	b.n	8002084 <SPI_WaitFlagStateUntilTimeout+0xc8>
 8002082:	2300      	movs	r3, #0
 8002084:	687a      	ldr	r2, [r7, #4]
 8002086:	4293      	cmp	r3, r2
 8002088:	d1a0      	bne.n	8001fcc <SPI_WaitFlagStateUntilTimeout+0x10>
 800208a:	2300      	movs	r3, #0
 800208c:	0018      	movs	r0, r3
 800208e:	46bd      	mov	sp, r7
 8002090:	b004      	add	sp, #16
 8002092:	bd80      	pop	{r7, pc}
 8002094:	ffffdfff 	.word	0xffffdfff

08002098 <SPI_WaitFifoStateUntilTimeout>:
 8002098:	b580      	push	{r7, lr}
 800209a:	b086      	sub	sp, #24
 800209c:	af00      	add	r7, sp, #0
 800209e:	60f8      	str	r0, [r7, #12]
 80020a0:	60b9      	str	r1, [r7, #8]
 80020a2:	607a      	str	r2, [r7, #4]
 80020a4:	603b      	str	r3, [r7, #0]
 80020a6:	e062      	b.n	800216e <SPI_WaitFifoStateUntilTimeout+0xd6>
 80020a8:	68ba      	ldr	r2, [r7, #8]
 80020aa:	23c0      	movs	r3, #192	; 0xc0
 80020ac:	00db      	lsls	r3, r3, #3
 80020ae:	429a      	cmp	r2, r3
 80020b0:	d10c      	bne.n	80020cc <SPI_WaitFifoStateUntilTimeout+0x34>
 80020b2:	687b      	ldr	r3, [r7, #4]
 80020b4:	2b00      	cmp	r3, #0
 80020b6:	d109      	bne.n	80020cc <SPI_WaitFifoStateUntilTimeout+0x34>
 80020b8:	68fb      	ldr	r3, [r7, #12]
 80020ba:	681b      	ldr	r3, [r3, #0]
 80020bc:	330c      	adds	r3, #12
 80020be:	781b      	ldrb	r3, [r3, #0]
 80020c0:	b2da      	uxtb	r2, r3
 80020c2:	2117      	movs	r1, #23
 80020c4:	187b      	adds	r3, r7, r1
 80020c6:	701a      	strb	r2, [r3, #0]
 80020c8:	187b      	adds	r3, r7, r1
 80020ca:	781b      	ldrb	r3, [r3, #0]
 80020cc:	683b      	ldr	r3, [r7, #0]
 80020ce:	3301      	adds	r3, #1
 80020d0:	d04d      	beq.n	800216e <SPI_WaitFifoStateUntilTimeout+0xd6>
 80020d2:	683b      	ldr	r3, [r7, #0]
 80020d4:	2b00      	cmp	r3, #0
 80020d6:	d007      	beq.n	80020e8 <SPI_WaitFifoStateUntilTimeout+0x50>
 80020d8:	f7fe f8f0 	bl	80002bc <HAL_GetTick>
 80020dc:	0002      	movs	r2, r0
 80020de:	6a3b      	ldr	r3, [r7, #32]
 80020e0:	1ad3      	subs	r3, r2, r3
 80020e2:	683a      	ldr	r2, [r7, #0]
 80020e4:	429a      	cmp	r2, r3
 80020e6:	d842      	bhi.n	800216e <SPI_WaitFifoStateUntilTimeout+0xd6>
 80020e8:	68fb      	ldr	r3, [r7, #12]
 80020ea:	681b      	ldr	r3, [r3, #0]
 80020ec:	685a      	ldr	r2, [r3, #4]
 80020ee:	68fb      	ldr	r3, [r7, #12]
 80020f0:	681b      	ldr	r3, [r3, #0]
 80020f2:	21e0      	movs	r1, #224	; 0xe0
 80020f4:	438a      	bics	r2, r1
 80020f6:	605a      	str	r2, [r3, #4]
 80020f8:	68fb      	ldr	r3, [r7, #12]
 80020fa:	685a      	ldr	r2, [r3, #4]
 80020fc:	2382      	movs	r3, #130	; 0x82
 80020fe:	005b      	lsls	r3, r3, #1
 8002100:	429a      	cmp	r2, r3
 8002102:	d113      	bne.n	800212c <SPI_WaitFifoStateUntilTimeout+0x94>
 8002104:	68fb      	ldr	r3, [r7, #12]
 8002106:	689a      	ldr	r2, [r3, #8]
 8002108:	2380      	movs	r3, #128	; 0x80
 800210a:	021b      	lsls	r3, r3, #8
 800210c:	429a      	cmp	r2, r3
 800210e:	d005      	beq.n	800211c <SPI_WaitFifoStateUntilTimeout+0x84>
 8002110:	68fb      	ldr	r3, [r7, #12]
 8002112:	689a      	ldr	r2, [r3, #8]
 8002114:	2380      	movs	r3, #128	; 0x80
 8002116:	00db      	lsls	r3, r3, #3
 8002118:	429a      	cmp	r2, r3
 800211a:	d107      	bne.n	800212c <SPI_WaitFifoStateUntilTimeout+0x94>
 800211c:	68fb      	ldr	r3, [r7, #12]
 800211e:	681b      	ldr	r3, [r3, #0]
 8002120:	681a      	ldr	r2, [r3, #0]
 8002122:	68fb      	ldr	r3, [r7, #12]
 8002124:	681b      	ldr	r3, [r3, #0]
 8002126:	2140      	movs	r1, #64	; 0x40
 8002128:	438a      	bics	r2, r1
 800212a:	601a      	str	r2, [r3, #0]
 800212c:	68fb      	ldr	r3, [r7, #12]
 800212e:	6a9a      	ldr	r2, [r3, #40]	; 0x28
 8002130:	2380      	movs	r3, #128	; 0x80
 8002132:	019b      	lsls	r3, r3, #6
 8002134:	429a      	cmp	r2, r3
 8002136:	d110      	bne.n	800215a <SPI_WaitFifoStateUntilTimeout+0xc2>
 8002138:	68fb      	ldr	r3, [r7, #12]
 800213a:	681b      	ldr	r3, [r3, #0]
 800213c:	681a      	ldr	r2, [r3, #0]
 800213e:	68fb      	ldr	r3, [r7, #12]
 8002140:	681b      	ldr	r3, [r3, #0]
 8002142:	4911      	ldr	r1, [pc, #68]	; (8002188 <SPI_WaitFifoStateUntilTimeout+0xf0>)
 8002144:	400a      	ands	r2, r1
 8002146:	601a      	str	r2, [r3, #0]
 8002148:	68fb      	ldr	r3, [r7, #12]
 800214a:	681b      	ldr	r3, [r3, #0]
 800214c:	681a      	ldr	r2, [r3, #0]
 800214e:	68fb      	ldr	r3, [r7, #12]
 8002150:	681b      	ldr	r3, [r3, #0]
 8002152:	2180      	movs	r1, #128	; 0x80
 8002154:	0189      	lsls	r1, r1, #6
 8002156:	430a      	orrs	r2, r1
 8002158:	601a      	str	r2, [r3, #0]
 800215a:	68fb      	ldr	r3, [r7, #12]
 800215c:	225d      	movs	r2, #93	; 0x5d
 800215e:	2101      	movs	r1, #1
 8002160:	5499      	strb	r1, [r3, r2]
 8002162:	68fb      	ldr	r3, [r7, #12]
 8002164:	225c      	movs	r2, #92	; 0x5c
 8002166:	2100      	movs	r1, #0
 8002168:	5499      	strb	r1, [r3, r2]
 800216a:	2303      	movs	r3, #3
 800216c:	e008      	b.n	8002180 <SPI_WaitFifoStateUntilTimeout+0xe8>
 800216e:	68fb      	ldr	r3, [r7, #12]
 8002170:	681b      	ldr	r3, [r3, #0]
 8002172:	689b      	ldr	r3, [r3, #8]
 8002174:	68ba      	ldr	r2, [r7, #8]
 8002176:	4013      	ands	r3, r2
 8002178:	687a      	ldr	r2, [r7, #4]
 800217a:	429a      	cmp	r2, r3
 800217c:	d194      	bne.n	80020a8 <SPI_WaitFifoStateUntilTimeout+0x10>
 800217e:	2300      	movs	r3, #0
 8002180:	0018      	movs	r0, r3
 8002182:	46bd      	mov	sp, r7
 8002184:	b006      	add	sp, #24
 8002186:	bd80      	pop	{r7, pc}
 8002188:	ffffdfff 	.word	0xffffdfff

0800218c <SPI_EndRxTransaction>:
 800218c:	b580      	push	{r7, lr}
 800218e:	b086      	sub	sp, #24
 8002190:	af02      	add	r7, sp, #8
 8002192:	60f8      	str	r0, [r7, #12]
 8002194:	60b9      	str	r1, [r7, #8]
 8002196:	607a      	str	r2, [r7, #4]
 8002198:	68fb      	ldr	r3, [r7, #12]
 800219a:	685a      	ldr	r2, [r3, #4]
 800219c:	2382      	movs	r3, #130	; 0x82
 800219e:	005b      	lsls	r3, r3, #1
 80021a0:	429a      	cmp	r2, r3
 80021a2:	d113      	bne.n	80021cc <SPI_EndRxTransaction+0x40>
 80021a4:	68fb      	ldr	r3, [r7, #12]
 80021a6:	689a      	ldr	r2, [r3, #8]
 80021a8:	2380      	movs	r3, #128	; 0x80
 80021aa:	021b      	lsls	r3, r3, #8
 80021ac:	429a      	cmp	r2, r3
 80021ae:	d005      	beq.n	80021bc <SPI_EndRxTransaction+0x30>
 80021b0:	68fb      	ldr	r3, [r7, #12]
 80021b2:	689a      	ldr	r2, [r3, #8]
 80021b4:	2380      	movs	r3, #128	; 0x80
 80021b6:	00db      	lsls	r3, r3, #3
 80021b8:	429a      	cmp	r2, r3
 80021ba:	d107      	bne.n	80021cc <SPI_EndRxTransaction+0x40>
 80021bc:	68fb      	ldr	r3, [r7, #12]
 80021be:	681b      	ldr	r3, [r3, #0]
 80021c0:	681a      	ldr	r2, [r3, #0]
 80021c2:	68fb      	ldr	r3, [r7, #12]
 80021c4:	681b      	ldr	r3, [r3, #0]
 80021c6:	2140      	movs	r1, #64	; 0x40
 80021c8:	438a      	bics	r2, r1
 80021ca:	601a      	str	r2, [r3, #0]
 80021cc:	68ba      	ldr	r2, [r7, #8]
 80021ce:	68f8      	ldr	r0, [r7, #12]
 80021d0:	687b      	ldr	r3, [r7, #4]
 80021d2:	9300      	str	r3, [sp, #0]
 80021d4:	0013      	movs	r3, r2
 80021d6:	2200      	movs	r2, #0
 80021d8:	2180      	movs	r1, #128	; 0x80
 80021da:	f7ff feef 	bl	8001fbc <SPI_WaitFlagStateUntilTimeout>
 80021de:	1e03      	subs	r3, r0, #0
 80021e0:	d007      	beq.n	80021f2 <SPI_EndRxTransaction+0x66>
 80021e2:	68fb      	ldr	r3, [r7, #12]
 80021e4:	6e1b      	ldr	r3, [r3, #96]	; 0x60
 80021e6:	2220      	movs	r2, #32
 80021e8:	431a      	orrs	r2, r3
 80021ea:	68fb      	ldr	r3, [r7, #12]
 80021ec:	661a      	str	r2, [r3, #96]	; 0x60
 80021ee:	2303      	movs	r3, #3
 80021f0:	e026      	b.n	8002240 <SPI_EndRxTransaction+0xb4>
 80021f2:	68fb      	ldr	r3, [r7, #12]
 80021f4:	685a      	ldr	r2, [r3, #4]
 80021f6:	2382      	movs	r3, #130	; 0x82
 80021f8:	005b      	lsls	r3, r3, #1
 80021fa:	429a      	cmp	r2, r3
 80021fc:	d11f      	bne.n	800223e <SPI_EndRxTransaction+0xb2>
 80021fe:	68fb      	ldr	r3, [r7, #12]
 8002200:	689a      	ldr	r2, [r3, #8]
 8002202:	2380      	movs	r3, #128	; 0x80
 8002204:	021b      	lsls	r3, r3, #8
 8002206:	429a      	cmp	r2, r3
 8002208:	d005      	beq.n	8002216 <SPI_EndRxTransaction+0x8a>
 800220a:	68fb      	ldr	r3, [r7, #12]
 800220c:	689a      	ldr	r2, [r3, #8]
 800220e:	2380      	movs	r3, #128	; 0x80
 8002210:	00db      	lsls	r3, r3, #3
 8002212:	429a      	cmp	r2, r3
 8002214:	d113      	bne.n	800223e <SPI_EndRxTransaction+0xb2>
 8002216:	68ba      	ldr	r2, [r7, #8]
 8002218:	23c0      	movs	r3, #192	; 0xc0
 800221a:	00d9      	lsls	r1, r3, #3
 800221c:	68f8      	ldr	r0, [r7, #12]
 800221e:	687b      	ldr	r3, [r7, #4]
 8002220:	9300      	str	r3, [sp, #0]
 8002222:	0013      	movs	r3, r2
 8002224:	2200      	movs	r2, #0
 8002226:	f7ff ff37 	bl	8002098 <SPI_WaitFifoStateUntilTimeout>
 800222a:	1e03      	subs	r3, r0, #0
 800222c:	d007      	beq.n	800223e <SPI_EndRxTransaction+0xb2>
 800222e:	68fb      	ldr	r3, [r7, #12]
 8002230:	6e1b      	ldr	r3, [r3, #96]	; 0x60
 8002232:	2220      	movs	r2, #32
 8002234:	431a      	orrs	r2, r3
 8002236:	68fb      	ldr	r3, [r7, #12]
 8002238:	661a      	str	r2, [r3, #96]	; 0x60
 800223a:	2303      	movs	r3, #3
 800223c:	e000      	b.n	8002240 <SPI_EndRxTransaction+0xb4>
 800223e:	2300      	movs	r3, #0
 8002240:	0018      	movs	r0, r3
 8002242:	46bd      	mov	sp, r7
 8002244:	b004      	add	sp, #16
 8002246:	bd80      	pop	{r7, pc}

08002248 <SPI_EndRxTxTransaction>:
 8002248:	b580      	push	{r7, lr}
 800224a:	b086      	sub	sp, #24
 800224c:	af02      	add	r7, sp, #8
 800224e:	60f8      	str	r0, [r7, #12]
 8002250:	60b9      	str	r1, [r7, #8]
 8002252:	607a      	str	r2, [r7, #4]
 8002254:	68ba      	ldr	r2, [r7, #8]
 8002256:	23c0      	movs	r3, #192	; 0xc0
 8002258:	0159      	lsls	r1, r3, #5
 800225a:	68f8      	ldr	r0, [r7, #12]
 800225c:	687b      	ldr	r3, [r7, #4]
 800225e:	9300      	str	r3, [sp, #0]
 8002260:	0013      	movs	r3, r2
 8002262:	2200      	movs	r2, #0
 8002264:	f7ff ff18 	bl	8002098 <SPI_WaitFifoStateUntilTimeout>
 8002268:	1e03      	subs	r3, r0, #0
 800226a:	d007      	beq.n	800227c <SPI_EndRxTxTransaction+0x34>
 800226c:	68fb      	ldr	r3, [r7, #12]
 800226e:	6e1b      	ldr	r3, [r3, #96]	; 0x60
 8002270:	2220      	movs	r2, #32
 8002272:	431a      	orrs	r2, r3
 8002274:	68fb      	ldr	r3, [r7, #12]
 8002276:	661a      	str	r2, [r3, #96]	; 0x60
 8002278:	2303      	movs	r3, #3
 800227a:	e027      	b.n	80022cc <SPI_EndRxTxTransaction+0x84>
 800227c:	68ba      	ldr	r2, [r7, #8]
 800227e:	68f8      	ldr	r0, [r7, #12]
 8002280:	687b      	ldr	r3, [r7, #4]
 8002282:	9300      	str	r3, [sp, #0]
 8002284:	0013      	movs	r3, r2
 8002286:	2200      	movs	r2, #0
 8002288:	2180      	movs	r1, #128	; 0x80
 800228a:	f7ff fe97 	bl	8001fbc <SPI_WaitFlagStateUntilTimeout>
 800228e:	1e03      	subs	r3, r0, #0
 8002290:	d007      	beq.n	80022a2 <SPI_EndRxTxTransaction+0x5a>
 8002292:	68fb      	ldr	r3, [r7, #12]
 8002294:	6e1b      	ldr	r3, [r3, #96]	; 0x60
 8002296:	2220      	movs	r2, #32
 8002298:	431a      	orrs	r2, r3
 800229a:	68fb      	ldr	r3, [r7, #12]
 800229c:	661a      	str	r2, [r3, #96]	; 0x60
 800229e:	2303      	movs	r3, #3
 80022a0:	e014      	b.n	80022cc <SPI_EndRxTxTransaction+0x84>
 80022a2:	68ba      	ldr	r2, [r7, #8]
 80022a4:	23c0      	movs	r3, #192	; 0xc0
 80022a6:	00d9      	lsls	r1, r3, #3
 80022a8:	68f8      	ldr	r0, [r7, #12]
 80022aa:	687b      	ldr	r3, [r7, #4]
 80022ac:	9300      	str	r3, [sp, #0]
 80022ae:	0013      	movs	r3, r2
 80022b0:	2200      	movs	r2, #0
 80022b2:	f7ff fef1 	bl	8002098 <SPI_WaitFifoStateUntilTimeout>
 80022b6:	1e03      	subs	r3, r0, #0
 80022b8:	d007      	beq.n	80022ca <SPI_EndRxTxTransaction+0x82>
 80022ba:	68fb      	ldr	r3, [r7, #12]
 80022bc:	6e1b      	ldr	r3, [r3, #96]	; 0x60
 80022be:	2220      	movs	r2, #32
 80022c0:	431a      	orrs	r2, r3
 80022c2:	68fb      	ldr	r3, [r7, #12]
 80022c4:	661a      	str	r2, [r3, #96]	; 0x60
 80022c6:	2303      	movs	r3, #3
 80022c8:	e000      	b.n	80022cc <SPI_EndRxTxTransaction+0x84>
 80022ca:	2300      	movs	r3, #0
 80022cc:	0018      	movs	r0, r3
 80022ce:	46bd      	mov	sp, r7
 80022d0:	b004      	add	sp, #16
 80022d2:	bd80      	pop	{r7, pc}

080022d4 <HAL_UART_Init>:
 80022d4:	b580      	push	{r7, lr}
 80022d6:	b082      	sub	sp, #8
 80022d8:	af00      	add	r7, sp, #0
 80022da:	6078      	str	r0, [r7, #4]
 80022dc:	687b      	ldr	r3, [r7, #4]
 80022de:	2b00      	cmp	r3, #0
 80022e0:	d101      	bne.n	80022e6 <HAL_UART_Init+0x12>
 80022e2:	2301      	movs	r3, #1
 80022e4:	e047      	b.n	8002376 <HAL_UART_Init+0xa2>
 80022e6:	687b      	ldr	r3, [r7, #4]
 80022e8:	2269      	movs	r2, #105	; 0x69
 80022ea:	5c9b      	ldrb	r3, [r3, r2]
 80022ec:	b2db      	uxtb	r3, r3
 80022ee:	2b00      	cmp	r3, #0
 80022f0:	d107      	bne.n	8002302 <HAL_UART_Init+0x2e>
 80022f2:	687b      	ldr	r3, [r7, #4]
 80022f4:	2268      	movs	r2, #104	; 0x68
 80022f6:	2100      	movs	r1, #0
 80022f8:	5499      	strb	r1, [r3, r2]
 80022fa:	687b      	ldr	r3, [r7, #4]
 80022fc:	0018      	movs	r0, r3
 80022fe:	f003 fe3f 	bl	8005f80 <HAL_UART_MspInit>
 8002302:	687b      	ldr	r3, [r7, #4]
 8002304:	2269      	movs	r2, #105	; 0x69
 8002306:	2124      	movs	r1, #36	; 0x24
 8002308:	5499      	strb	r1, [r3, r2]
 800230a:	687b      	ldr	r3, [r7, #4]
 800230c:	681b      	ldr	r3, [r3, #0]
 800230e:	681a      	ldr	r2, [r3, #0]
 8002310:	687b      	ldr	r3, [r7, #4]
 8002312:	681b      	ldr	r3, [r3, #0]
 8002314:	2101      	movs	r1, #1
 8002316:	438a      	bics	r2, r1
 8002318:	601a      	str	r2, [r3, #0]
 800231a:	687b      	ldr	r3, [r7, #4]
 800231c:	0018      	movs	r0, r3
 800231e:	f000 f9a3 	bl	8002668 <UART_SetConfig>
 8002322:	0003      	movs	r3, r0
 8002324:	2b01      	cmp	r3, #1
 8002326:	d101      	bne.n	800232c <HAL_UART_Init+0x58>
 8002328:	2301      	movs	r3, #1
 800232a:	e024      	b.n	8002376 <HAL_UART_Init+0xa2>
 800232c:	687b      	ldr	r3, [r7, #4]
 800232e:	6a5b      	ldr	r3, [r3, #36]	; 0x24
 8002330:	2b00      	cmp	r3, #0
 8002332:	d003      	beq.n	800233c <HAL_UART_Init+0x68>
 8002334:	687b      	ldr	r3, [r7, #4]
 8002336:	0018      	movs	r0, r3
 8002338:	f000 fb0c 	bl	8002954 <UART_AdvFeatureConfig>
 800233c:	687b      	ldr	r3, [r7, #4]
 800233e:	681b      	ldr	r3, [r3, #0]
 8002340:	685a      	ldr	r2, [r3, #4]
 8002342:	687b      	ldr	r3, [r7, #4]
 8002344:	681b      	ldr	r3, [r3, #0]
 8002346:	490e      	ldr	r1, [pc, #56]	; (8002380 <HAL_UART_Init+0xac>)
 8002348:	400a      	ands	r2, r1
 800234a:	605a      	str	r2, [r3, #4]
 800234c:	687b      	ldr	r3, [r7, #4]
 800234e:	681b      	ldr	r3, [r3, #0]
 8002350:	689a      	ldr	r2, [r3, #8]
 8002352:	687b      	ldr	r3, [r7, #4]
 8002354:	681b      	ldr	r3, [r3, #0]
 8002356:	2108      	movs	r1, #8
 8002358:	438a      	bics	r2, r1
 800235a:	609a      	str	r2, [r3, #8]
 800235c:	687b      	ldr	r3, [r7, #4]
 800235e:	681b      	ldr	r3, [r3, #0]
 8002360:	681a      	ldr	r2, [r3, #0]
 8002362:	687b      	ldr	r3, [r7, #4]
 8002364:	681b      	ldr	r3, [r3, #0]
 8002366:	2101      	movs	r1, #1
 8002368:	430a      	orrs	r2, r1
 800236a:	601a      	str	r2, [r3, #0]
 800236c:	687b      	ldr	r3, [r7, #4]
 800236e:	0018      	movs	r0, r3
 8002370:	f000 fba4 	bl	8002abc <UART_CheckIdleState>
 8002374:	0003      	movs	r3, r0
 8002376:	0018      	movs	r0, r3
 8002378:	46bd      	mov	sp, r7
 800237a:	b002      	add	sp, #8
 800237c:	bd80      	pop	{r7, pc}
 800237e:	46c0      	nop			; (mov r8, r8)
 8002380:	fffff7ff 	.word	0xfffff7ff

08002384 <HAL_UART_Transmit>:
 8002384:	b580      	push	{r7, lr}
 8002386:	b088      	sub	sp, #32
 8002388:	af02      	add	r7, sp, #8
 800238a:	60f8      	str	r0, [r7, #12]
 800238c:	60b9      	str	r1, [r7, #8]
 800238e:	603b      	str	r3, [r7, #0]
 8002390:	1dbb      	adds	r3, r7, #6
 8002392:	801a      	strh	r2, [r3, #0]
 8002394:	2300      	movs	r3, #0
 8002396:	617b      	str	r3, [r7, #20]
 8002398:	68fb      	ldr	r3, [r7, #12]
 800239a:	2269      	movs	r2, #105	; 0x69
 800239c:	5c9b      	ldrb	r3, [r3, r2]
 800239e:	b2db      	uxtb	r3, r3
 80023a0:	2b20      	cmp	r3, #32
 80023a2:	d000      	beq.n	80023a6 <HAL_UART_Transmit+0x22>
 80023a4:	e08c      	b.n	80024c0 <HAL_UART_Transmit+0x13c>
 80023a6:	68bb      	ldr	r3, [r7, #8]
 80023a8:	2b00      	cmp	r3, #0
 80023aa:	d003      	beq.n	80023b4 <HAL_UART_Transmit+0x30>
 80023ac:	1dbb      	adds	r3, r7, #6
 80023ae:	881b      	ldrh	r3, [r3, #0]
 80023b0:	2b00      	cmp	r3, #0
 80023b2:	d101      	bne.n	80023b8 <HAL_UART_Transmit+0x34>
 80023b4:	2301      	movs	r3, #1
 80023b6:	e084      	b.n	80024c2 <HAL_UART_Transmit+0x13e>
 80023b8:	68fb      	ldr	r3, [r7, #12]
 80023ba:	689a      	ldr	r2, [r3, #8]
 80023bc:	2380      	movs	r3, #128	; 0x80
 80023be:	015b      	lsls	r3, r3, #5
 80023c0:	429a      	cmp	r2, r3
 80023c2:	d109      	bne.n	80023d8 <HAL_UART_Transmit+0x54>
 80023c4:	68fb      	ldr	r3, [r7, #12]
 80023c6:	691b      	ldr	r3, [r3, #16]
 80023c8:	2b00      	cmp	r3, #0
 80023ca:	d105      	bne.n	80023d8 <HAL_UART_Transmit+0x54>
 80023cc:	68bb      	ldr	r3, [r7, #8]
 80023ce:	2201      	movs	r2, #1
 80023d0:	4013      	ands	r3, r2
 80023d2:	d001      	beq.n	80023d8 <HAL_UART_Transmit+0x54>
 80023d4:	2301      	movs	r3, #1
 80023d6:	e074      	b.n	80024c2 <HAL_UART_Transmit+0x13e>
 80023d8:	68fb      	ldr	r3, [r7, #12]
 80023da:	2268      	movs	r2, #104	; 0x68
 80023dc:	5c9b      	ldrb	r3, [r3, r2]
 80023de:	2b01      	cmp	r3, #1
 80023e0:	d101      	bne.n	80023e6 <HAL_UART_Transmit+0x62>
 80023e2:	2302      	movs	r3, #2
 80023e4:	e06d      	b.n	80024c2 <HAL_UART_Transmit+0x13e>
 80023e6:	68fb      	ldr	r3, [r7, #12]
 80023e8:	2268      	movs	r2, #104	; 0x68
 80023ea:	2101      	movs	r1, #1
 80023ec:	5499      	strb	r1, [r3, r2]
 80023ee:	68fb      	ldr	r3, [r7, #12]
 80023f0:	2200      	movs	r2, #0
 80023f2:	66da      	str	r2, [r3, #108]	; 0x6c
 80023f4:	68fb      	ldr	r3, [r7, #12]
 80023f6:	2269      	movs	r2, #105	; 0x69
 80023f8:	2121      	movs	r1, #33	; 0x21
 80023fa:	5499      	strb	r1, [r3, r2]
 80023fc:	f7fd ff5e 	bl	80002bc <HAL_GetTick>
 8002400:	0003      	movs	r3, r0
 8002402:	617b      	str	r3, [r7, #20]
 8002404:	68fb      	ldr	r3, [r7, #12]
 8002406:	1dba      	adds	r2, r7, #6
 8002408:	2150      	movs	r1, #80	; 0x50
 800240a:	8812      	ldrh	r2, [r2, #0]
 800240c:	525a      	strh	r2, [r3, r1]
 800240e:	68fb      	ldr	r3, [r7, #12]
 8002410:	1dba      	adds	r2, r7, #6
 8002412:	2152      	movs	r1, #82	; 0x52
 8002414:	8812      	ldrh	r2, [r2, #0]
 8002416:	525a      	strh	r2, [r3, r1]
 8002418:	e035      	b.n	8002486 <HAL_UART_Transmit+0x102>
 800241a:	68fb      	ldr	r3, [r7, #12]
 800241c:	2252      	movs	r2, #82	; 0x52
 800241e:	5a9b      	ldrh	r3, [r3, r2]
 8002420:	b29b      	uxth	r3, r3
 8002422:	3b01      	subs	r3, #1
 8002424:	b299      	uxth	r1, r3
 8002426:	68fb      	ldr	r3, [r7, #12]
 8002428:	2252      	movs	r2, #82	; 0x52
 800242a:	5299      	strh	r1, [r3, r2]
 800242c:	697a      	ldr	r2, [r7, #20]
 800242e:	68f8      	ldr	r0, [r7, #12]
 8002430:	683b      	ldr	r3, [r7, #0]
 8002432:	9300      	str	r3, [sp, #0]
 8002434:	0013      	movs	r3, r2
 8002436:	2200      	movs	r2, #0
 8002438:	2180      	movs	r1, #128	; 0x80
 800243a:	f000 fb57 	bl	8002aec <UART_WaitOnFlagUntilTimeout>
 800243e:	1e03      	subs	r3, r0, #0
 8002440:	d001      	beq.n	8002446 <HAL_UART_Transmit+0xc2>
 8002442:	2303      	movs	r3, #3
 8002444:	e03d      	b.n	80024c2 <HAL_UART_Transmit+0x13e>
 8002446:	68fb      	ldr	r3, [r7, #12]
 8002448:	689a      	ldr	r2, [r3, #8]
 800244a:	2380      	movs	r3, #128	; 0x80
 800244c:	015b      	lsls	r3, r3, #5
 800244e:	429a      	cmp	r2, r3
 8002450:	d111      	bne.n	8002476 <HAL_UART_Transmit+0xf2>
 8002452:	68fb      	ldr	r3, [r7, #12]
 8002454:	691b      	ldr	r3, [r3, #16]
 8002456:	2b00      	cmp	r3, #0
 8002458:	d10d      	bne.n	8002476 <HAL_UART_Transmit+0xf2>
 800245a:	68bb      	ldr	r3, [r7, #8]
 800245c:	613b      	str	r3, [r7, #16]
 800245e:	693b      	ldr	r3, [r7, #16]
 8002460:	881a      	ldrh	r2, [r3, #0]
 8002462:	68fb      	ldr	r3, [r7, #12]
 8002464:	681b      	ldr	r3, [r3, #0]
 8002466:	05d2      	lsls	r2, r2, #23
 8002468:	0dd2      	lsrs	r2, r2, #23
 800246a:	b292      	uxth	r2, r2
 800246c:	851a      	strh	r2, [r3, #40]	; 0x28
 800246e:	68bb      	ldr	r3, [r7, #8]
 8002470:	3302      	adds	r3, #2
 8002472:	60bb      	str	r3, [r7, #8]
 8002474:	e007      	b.n	8002486 <HAL_UART_Transmit+0x102>
 8002476:	68bb      	ldr	r3, [r7, #8]
 8002478:	1c5a      	adds	r2, r3, #1
 800247a:	60ba      	str	r2, [r7, #8]
 800247c:	781a      	ldrb	r2, [r3, #0]
 800247e:	68fb      	ldr	r3, [r7, #12]
 8002480:	681b      	ldr	r3, [r3, #0]
 8002482:	b292      	uxth	r2, r2
 8002484:	851a      	strh	r2, [r3, #40]	; 0x28
 8002486:	68fb      	ldr	r3, [r7, #12]
 8002488:	2252      	movs	r2, #82	; 0x52
 800248a:	5a9b      	ldrh	r3, [r3, r2]
 800248c:	b29b      	uxth	r3, r3
 800248e:	2b00      	cmp	r3, #0
 8002490:	d1c3      	bne.n	800241a <HAL_UART_Transmit+0x96>
 8002492:	697a      	ldr	r2, [r7, #20]
 8002494:	68f8      	ldr	r0, [r7, #12]
 8002496:	683b      	ldr	r3, [r7, #0]
 8002498:	9300      	str	r3, [sp, #0]
 800249a:	0013      	movs	r3, r2
 800249c:	2200      	movs	r2, #0
 800249e:	2140      	movs	r1, #64	; 0x40
 80024a0:	f000 fb24 	bl	8002aec <UART_WaitOnFlagUntilTimeout>
 80024a4:	1e03      	subs	r3, r0, #0
 80024a6:	d001      	beq.n	80024ac <HAL_UART_Transmit+0x128>
 80024a8:	2303      	movs	r3, #3
 80024aa:	e00a      	b.n	80024c2 <HAL_UART_Transmit+0x13e>
 80024ac:	68fb      	ldr	r3, [r7, #12]
 80024ae:	2269      	movs	r2, #105	; 0x69
 80024b0:	2120      	movs	r1, #32
 80024b2:	5499      	strb	r1, [r3, r2]
 80024b4:	68fb      	ldr	r3, [r7, #12]
 80024b6:	2268      	movs	r2, #104	; 0x68
 80024b8:	2100      	movs	r1, #0
 80024ba:	5499      	strb	r1, [r3, r2]
 80024bc:	2300      	movs	r3, #0
 80024be:	e000      	b.n	80024c2 <HAL_UART_Transmit+0x13e>
 80024c0:	2302      	movs	r3, #2
 80024c2:	0018      	movs	r0, r3
 80024c4:	46bd      	mov	sp, r7
 80024c6:	b006      	add	sp, #24
 80024c8:	bd80      	pop	{r7, pc}
	...

080024cc <HAL_UART_Receive>:
 80024cc:	b580      	push	{r7, lr}
 80024ce:	b08a      	sub	sp, #40	; 0x28
 80024d0:	af02      	add	r7, sp, #8
 80024d2:	60f8      	str	r0, [r7, #12]
 80024d4:	60b9      	str	r1, [r7, #8]
 80024d6:	603b      	str	r3, [r7, #0]
 80024d8:	1dbb      	adds	r3, r7, #6
 80024da:	801a      	strh	r2, [r3, #0]
 80024dc:	2300      	movs	r3, #0
 80024de:	61fb      	str	r3, [r7, #28]
 80024e0:	68fb      	ldr	r3, [r7, #12]
 80024e2:	226a      	movs	r2, #106	; 0x6a
 80024e4:	5c9b      	ldrb	r3, [r3, r2]
 80024e6:	b2db      	uxtb	r3, r3
 80024e8:	2b20      	cmp	r3, #32
 80024ea:	d000      	beq.n	80024ee <HAL_UART_Receive+0x22>
 80024ec:	e0b4      	b.n	8002658 <HAL_UART_Receive+0x18c>
 80024ee:	68bb      	ldr	r3, [r7, #8]
 80024f0:	2b00      	cmp	r3, #0
 80024f2:	d003      	beq.n	80024fc <HAL_UART_Receive+0x30>
 80024f4:	1dbb      	adds	r3, r7, #6
 80024f6:	881b      	ldrh	r3, [r3, #0]
 80024f8:	2b00      	cmp	r3, #0
 80024fa:	d101      	bne.n	8002500 <HAL_UART_Receive+0x34>
 80024fc:	2301      	movs	r3, #1
 80024fe:	e0ac      	b.n	800265a <HAL_UART_Receive+0x18e>
 8002500:	68fb      	ldr	r3, [r7, #12]
 8002502:	689a      	ldr	r2, [r3, #8]
 8002504:	2380      	movs	r3, #128	; 0x80
 8002506:	015b      	lsls	r3, r3, #5
 8002508:	429a      	cmp	r2, r3
 800250a:	d109      	bne.n	8002520 <HAL_UART_Receive+0x54>
 800250c:	68fb      	ldr	r3, [r7, #12]
 800250e:	691b      	ldr	r3, [r3, #16]
 8002510:	2b00      	cmp	r3, #0
 8002512:	d105      	bne.n	8002520 <HAL_UART_Receive+0x54>
 8002514:	68bb      	ldr	r3, [r7, #8]
 8002516:	2201      	movs	r2, #1
 8002518:	4013      	ands	r3, r2
 800251a:	d001      	beq.n	8002520 <HAL_UART_Receive+0x54>
 800251c:	2301      	movs	r3, #1
 800251e:	e09c      	b.n	800265a <HAL_UART_Receive+0x18e>
 8002520:	68fb      	ldr	r3, [r7, #12]
 8002522:	2268      	movs	r2, #104	; 0x68
 8002524:	5c9b      	ldrb	r3, [r3, r2]
 8002526:	2b01      	cmp	r3, #1
 8002528:	d101      	bne.n	800252e <HAL_UART_Receive+0x62>
 800252a:	2302      	movs	r3, #2
 800252c:	e095      	b.n	800265a <HAL_UART_Receive+0x18e>
 800252e:	68fb      	ldr	r3, [r7, #12]
 8002530:	2268      	movs	r2, #104	; 0x68
 8002532:	2101      	movs	r1, #1
 8002534:	5499      	strb	r1, [r3, r2]
 8002536:	68fb      	ldr	r3, [r7, #12]
 8002538:	2200      	movs	r2, #0
 800253a:	66da      	str	r2, [r3, #108]	; 0x6c
 800253c:	68fb      	ldr	r3, [r7, #12]
 800253e:	226a      	movs	r2, #106	; 0x6a
 8002540:	2122      	movs	r1, #34	; 0x22
 8002542:	5499      	strb	r1, [r3, r2]
 8002544:	f7fd feba 	bl	80002bc <HAL_GetTick>
 8002548:	0003      	movs	r3, r0
 800254a:	61fb      	str	r3, [r7, #28]
 800254c:	68fb      	ldr	r3, [r7, #12]
 800254e:	1dba      	adds	r2, r7, #6
 8002550:	2158      	movs	r1, #88	; 0x58
 8002552:	8812      	ldrh	r2, [r2, #0]
 8002554:	525a      	strh	r2, [r3, r1]
 8002556:	68fb      	ldr	r3, [r7, #12]
 8002558:	1dba      	adds	r2, r7, #6
 800255a:	215a      	movs	r1, #90	; 0x5a
 800255c:	8812      	ldrh	r2, [r2, #0]
 800255e:	525a      	strh	r2, [r3, r1]
 8002560:	68fb      	ldr	r3, [r7, #12]
 8002562:	689a      	ldr	r2, [r3, #8]
 8002564:	2380      	movs	r3, #128	; 0x80
 8002566:	015b      	lsls	r3, r3, #5
 8002568:	429a      	cmp	r2, r3
 800256a:	d10d      	bne.n	8002588 <HAL_UART_Receive+0xbc>
 800256c:	68fb      	ldr	r3, [r7, #12]
 800256e:	691b      	ldr	r3, [r3, #16]
 8002570:	2b00      	cmp	r3, #0
 8002572:	d104      	bne.n	800257e <HAL_UART_Receive+0xb2>
 8002574:	68fb      	ldr	r3, [r7, #12]
 8002576:	225c      	movs	r2, #92	; 0x5c
 8002578:	493a      	ldr	r1, [pc, #232]	; (8002664 <HAL_UART_Receive+0x198>)
 800257a:	5299      	strh	r1, [r3, r2]
 800257c:	e015      	b.n	80025aa <HAL_UART_Receive+0xde>
 800257e:	68fb      	ldr	r3, [r7, #12]
 8002580:	225c      	movs	r2, #92	; 0x5c
 8002582:	21ff      	movs	r1, #255	; 0xff
 8002584:	5299      	strh	r1, [r3, r2]
 8002586:	e010      	b.n	80025aa <HAL_UART_Receive+0xde>
 8002588:	68fb      	ldr	r3, [r7, #12]
 800258a:	689b      	ldr	r3, [r3, #8]
 800258c:	2b00      	cmp	r3, #0
 800258e:	d10c      	bne.n	80025aa <HAL_UART_Receive+0xde>
 8002590:	68fb      	ldr	r3, [r7, #12]
 8002592:	691b      	ldr	r3, [r3, #16]
 8002594:	2b00      	cmp	r3, #0
 8002596:	d104      	bne.n	80025a2 <HAL_UART_Receive+0xd6>
 8002598:	68fb      	ldr	r3, [r7, #12]
 800259a:	225c      	movs	r2, #92	; 0x5c
 800259c:	21ff      	movs	r1, #255	; 0xff
 800259e:	5299      	strh	r1, [r3, r2]
 80025a0:	e003      	b.n	80025aa <HAL_UART_Receive+0xde>
 80025a2:	68fb      	ldr	r3, [r7, #12]
 80025a4:	225c      	movs	r2, #92	; 0x5c
 80025a6:	217f      	movs	r1, #127	; 0x7f
 80025a8:	5299      	strh	r1, [r3, r2]
 80025aa:	231a      	movs	r3, #26
 80025ac:	18fb      	adds	r3, r7, r3
 80025ae:	68fa      	ldr	r2, [r7, #12]
 80025b0:	215c      	movs	r1, #92	; 0x5c
 80025b2:	5a52      	ldrh	r2, [r2, r1]
 80025b4:	801a      	strh	r2, [r3, #0]
 80025b6:	e03f      	b.n	8002638 <HAL_UART_Receive+0x16c>
 80025b8:	68fb      	ldr	r3, [r7, #12]
 80025ba:	225a      	movs	r2, #90	; 0x5a
 80025bc:	5a9b      	ldrh	r3, [r3, r2]
 80025be:	b29b      	uxth	r3, r3
 80025c0:	3b01      	subs	r3, #1
 80025c2:	b299      	uxth	r1, r3
 80025c4:	68fb      	ldr	r3, [r7, #12]
 80025c6:	225a      	movs	r2, #90	; 0x5a
 80025c8:	5299      	strh	r1, [r3, r2]
 80025ca:	69fa      	ldr	r2, [r7, #28]
 80025cc:	68f8      	ldr	r0, [r7, #12]
 80025ce:	683b      	ldr	r3, [r7, #0]
 80025d0:	9300      	str	r3, [sp, #0]
 80025d2:	0013      	movs	r3, r2
 80025d4:	2200      	movs	r2, #0
 80025d6:	2120      	movs	r1, #32
 80025d8:	f000 fa88 	bl	8002aec <UART_WaitOnFlagUntilTimeout>
 80025dc:	1e03      	subs	r3, r0, #0
 80025de:	d001      	beq.n	80025e4 <HAL_UART_Receive+0x118>
 80025e0:	2303      	movs	r3, #3
 80025e2:	e03a      	b.n	800265a <HAL_UART_Receive+0x18e>
 80025e4:	68fb      	ldr	r3, [r7, #12]
 80025e6:	689a      	ldr	r2, [r3, #8]
 80025e8:	2380      	movs	r3, #128	; 0x80
 80025ea:	015b      	lsls	r3, r3, #5
 80025ec:	429a      	cmp	r2, r3
 80025ee:	d114      	bne.n	800261a <HAL_UART_Receive+0x14e>
 80025f0:	68fb      	ldr	r3, [r7, #12]
 80025f2:	691b      	ldr	r3, [r3, #16]
 80025f4:	2b00      	cmp	r3, #0
 80025f6:	d110      	bne.n	800261a <HAL_UART_Receive+0x14e>
 80025f8:	68bb      	ldr	r3, [r7, #8]
 80025fa:	617b      	str	r3, [r7, #20]
 80025fc:	68fb      	ldr	r3, [r7, #12]
 80025fe:	681b      	ldr	r3, [r3, #0]
 8002600:	8c9b      	ldrh	r3, [r3, #36]	; 0x24
 8002602:	b29b      	uxth	r3, r3
 8002604:	221a      	movs	r2, #26
 8002606:	18ba      	adds	r2, r7, r2
 8002608:	8812      	ldrh	r2, [r2, #0]
 800260a:	4013      	ands	r3, r2
 800260c:	b29a      	uxth	r2, r3
 800260e:	697b      	ldr	r3, [r7, #20]
 8002610:	801a      	strh	r2, [r3, #0]
 8002612:	68bb      	ldr	r3, [r7, #8]
 8002614:	3302      	adds	r3, #2
 8002616:	60bb      	str	r3, [r7, #8]
 8002618:	e00e      	b.n	8002638 <HAL_UART_Receive+0x16c>
 800261a:	68fb      	ldr	r3, [r7, #12]
 800261c:	681b      	ldr	r3, [r3, #0]
 800261e:	8c9b      	ldrh	r3, [r3, #36]	; 0x24
 8002620:	b29b      	uxth	r3, r3
 8002622:	b2da      	uxtb	r2, r3
 8002624:	231a      	movs	r3, #26
 8002626:	18fb      	adds	r3, r7, r3
 8002628:	881b      	ldrh	r3, [r3, #0]
 800262a:	b2d9      	uxtb	r1, r3
 800262c:	68bb      	ldr	r3, [r7, #8]
 800262e:	1c58      	adds	r0, r3, #1
 8002630:	60b8      	str	r0, [r7, #8]
 8002632:	400a      	ands	r2, r1
 8002634:	b2d2      	uxtb	r2, r2
 8002636:	701a      	strb	r2, [r3, #0]
 8002638:	68fb      	ldr	r3, [r7, #12]
 800263a:	225a      	movs	r2, #90	; 0x5a
 800263c:	5a9b      	ldrh	r3, [r3, r2]
 800263e:	b29b      	uxth	r3, r3
 8002640:	2b00      	cmp	r3, #0
 8002642:	d1b9      	bne.n	80025b8 <HAL_UART_Receive+0xec>
 8002644:	68fb      	ldr	r3, [r7, #12]
 8002646:	226a      	movs	r2, #106	; 0x6a
 8002648:	2120      	movs	r1, #32
 800264a:	5499      	strb	r1, [r3, r2]
 800264c:	68fb      	ldr	r3, [r7, #12]
 800264e:	2268      	movs	r2, #104	; 0x68
 8002650:	2100      	movs	r1, #0
 8002652:	5499      	strb	r1, [r3, r2]
 8002654:	2300      	movs	r3, #0
 8002656:	e000      	b.n	800265a <HAL_UART_Receive+0x18e>
 8002658:	2302      	movs	r3, #2
 800265a:	0018      	movs	r0, r3
 800265c:	46bd      	mov	sp, r7
 800265e:	b008      	add	sp, #32
 8002660:	bd80      	pop	{r7, pc}
 8002662:	46c0      	nop			; (mov r8, r8)
 8002664:	000001ff 	.word	0x000001ff

08002668 <UART_SetConfig>:
 8002668:	b590      	push	{r4, r7, lr}
 800266a:	b087      	sub	sp, #28
 800266c:	af00      	add	r7, sp, #0
 800266e:	6078      	str	r0, [r7, #4]
 8002670:	2300      	movs	r3, #0
 8002672:	60fb      	str	r3, [r7, #12]
 8002674:	2317      	movs	r3, #23
 8002676:	18fb      	adds	r3, r7, r3
 8002678:	2210      	movs	r2, #16
 800267a:	701a      	strb	r2, [r3, #0]
 800267c:	230a      	movs	r3, #10
 800267e:	18fb      	adds	r3, r7, r3
 8002680:	2200      	movs	r2, #0
 8002682:	801a      	strh	r2, [r3, #0]
 8002684:	2314      	movs	r3, #20
 8002686:	18fb      	adds	r3, r7, r3
 8002688:	2200      	movs	r2, #0
 800268a:	801a      	strh	r2, [r3, #0]
 800268c:	2313      	movs	r3, #19
 800268e:	18fb      	adds	r3, r7, r3
 8002690:	2200      	movs	r2, #0
 8002692:	701a      	strb	r2, [r3, #0]
 8002694:	687b      	ldr	r3, [r7, #4]
 8002696:	689a      	ldr	r2, [r3, #8]
 8002698:	687b      	ldr	r3, [r7, #4]
 800269a:	691b      	ldr	r3, [r3, #16]
 800269c:	431a      	orrs	r2, r3
 800269e:	687b      	ldr	r3, [r7, #4]
 80026a0:	695b      	ldr	r3, [r3, #20]
 80026a2:	431a      	orrs	r2, r3
 80026a4:	687b      	ldr	r3, [r7, #4]
 80026a6:	69db      	ldr	r3, [r3, #28]
 80026a8:	4313      	orrs	r3, r2
 80026aa:	60fb      	str	r3, [r7, #12]
 80026ac:	687b      	ldr	r3, [r7, #4]
 80026ae:	681b      	ldr	r3, [r3, #0]
 80026b0:	681b      	ldr	r3, [r3, #0]
 80026b2:	4aa0      	ldr	r2, [pc, #640]	; (8002934 <UART_SetConfig+0x2cc>)
 80026b4:	4013      	ands	r3, r2
 80026b6:	0019      	movs	r1, r3
 80026b8:	687b      	ldr	r3, [r7, #4]
 80026ba:	681b      	ldr	r3, [r3, #0]
 80026bc:	68fa      	ldr	r2, [r7, #12]
 80026be:	430a      	orrs	r2, r1
 80026c0:	601a      	str	r2, [r3, #0]
 80026c2:	687b      	ldr	r3, [r7, #4]
 80026c4:	681b      	ldr	r3, [r3, #0]
 80026c6:	685b      	ldr	r3, [r3, #4]
 80026c8:	4a9b      	ldr	r2, [pc, #620]	; (8002938 <UART_SetConfig+0x2d0>)
 80026ca:	4013      	ands	r3, r2
 80026cc:	0019      	movs	r1, r3
 80026ce:	687b      	ldr	r3, [r7, #4]
 80026d0:	68da      	ldr	r2, [r3, #12]
 80026d2:	687b      	ldr	r3, [r7, #4]
 80026d4:	681b      	ldr	r3, [r3, #0]
 80026d6:	430a      	orrs	r2, r1
 80026d8:	605a      	str	r2, [r3, #4]
 80026da:	687b      	ldr	r3, [r7, #4]
 80026dc:	699a      	ldr	r2, [r3, #24]
 80026de:	687b      	ldr	r3, [r7, #4]
 80026e0:	6a1b      	ldr	r3, [r3, #32]
 80026e2:	4313      	orrs	r3, r2
 80026e4:	60fb      	str	r3, [r7, #12]
 80026e6:	687b      	ldr	r3, [r7, #4]
 80026e8:	681b      	ldr	r3, [r3, #0]
 80026ea:	689b      	ldr	r3, [r3, #8]
 80026ec:	4a93      	ldr	r2, [pc, #588]	; (800293c <UART_SetConfig+0x2d4>)
 80026ee:	4013      	ands	r3, r2
 80026f0:	0019      	movs	r1, r3
 80026f2:	687b      	ldr	r3, [r7, #4]
 80026f4:	681b      	ldr	r3, [r3, #0]
 80026f6:	68fa      	ldr	r2, [r7, #12]
 80026f8:	430a      	orrs	r2, r1
 80026fa:	609a      	str	r2, [r3, #8]
 80026fc:	687b      	ldr	r3, [r7, #4]
 80026fe:	681b      	ldr	r3, [r3, #0]
 8002700:	4a8f      	ldr	r2, [pc, #572]	; (8002940 <UART_SetConfig+0x2d8>)
 8002702:	4293      	cmp	r3, r2
 8002704:	d125      	bne.n	8002752 <UART_SetConfig+0xea>
 8002706:	4b8f      	ldr	r3, [pc, #572]	; (8002944 <UART_SetConfig+0x2dc>)
 8002708:	6b1b      	ldr	r3, [r3, #48]	; 0x30
 800270a:	2203      	movs	r2, #3
 800270c:	4013      	ands	r3, r2
 800270e:	2b01      	cmp	r3, #1
 8002710:	d00f      	beq.n	8002732 <UART_SetConfig+0xca>
 8002712:	d304      	bcc.n	800271e <UART_SetConfig+0xb6>
 8002714:	2b02      	cmp	r3, #2
 8002716:	d011      	beq.n	800273c <UART_SetConfig+0xd4>
 8002718:	2b03      	cmp	r3, #3
 800271a:	d005      	beq.n	8002728 <UART_SetConfig+0xc0>
 800271c:	e013      	b.n	8002746 <UART_SetConfig+0xde>
 800271e:	2317      	movs	r3, #23
 8002720:	18fb      	adds	r3, r7, r3
 8002722:	2200      	movs	r2, #0
 8002724:	701a      	strb	r2, [r3, #0]
 8002726:	e022      	b.n	800276e <UART_SetConfig+0x106>
 8002728:	2317      	movs	r3, #23
 800272a:	18fb      	adds	r3, r7, r3
 800272c:	2202      	movs	r2, #2
 800272e:	701a      	strb	r2, [r3, #0]
 8002730:	e01d      	b.n	800276e <UART_SetConfig+0x106>
 8002732:	2317      	movs	r3, #23
 8002734:	18fb      	adds	r3, r7, r3
 8002736:	2204      	movs	r2, #4
 8002738:	701a      	strb	r2, [r3, #0]
 800273a:	e018      	b.n	800276e <UART_SetConfig+0x106>
 800273c:	2317      	movs	r3, #23
 800273e:	18fb      	adds	r3, r7, r3
 8002740:	2208      	movs	r2, #8
 8002742:	701a      	strb	r2, [r3, #0]
 8002744:	e013      	b.n	800276e <UART_SetConfig+0x106>
 8002746:	2317      	movs	r3, #23
 8002748:	18fb      	adds	r3, r7, r3
 800274a:	2210      	movs	r2, #16
 800274c:	701a      	strb	r2, [r3, #0]
 800274e:	46c0      	nop			; (mov r8, r8)
 8002750:	e00d      	b.n	800276e <UART_SetConfig+0x106>
 8002752:	687b      	ldr	r3, [r7, #4]
 8002754:	681b      	ldr	r3, [r3, #0]
 8002756:	4a7c      	ldr	r2, [pc, #496]	; (8002948 <UART_SetConfig+0x2e0>)
 8002758:	4293      	cmp	r3, r2
 800275a:	d104      	bne.n	8002766 <UART_SetConfig+0xfe>
 800275c:	2317      	movs	r3, #23
 800275e:	18fb      	adds	r3, r7, r3
 8002760:	2200      	movs	r2, #0
 8002762:	701a      	strb	r2, [r3, #0]
 8002764:	e003      	b.n	800276e <UART_SetConfig+0x106>
 8002766:	2317      	movs	r3, #23
 8002768:	18fb      	adds	r3, r7, r3
 800276a:	2210      	movs	r2, #16
 800276c:	701a      	strb	r2, [r3, #0]
 800276e:	687b      	ldr	r3, [r7, #4]
 8002770:	69da      	ldr	r2, [r3, #28]
 8002772:	2380      	movs	r3, #128	; 0x80
 8002774:	021b      	lsls	r3, r3, #8
 8002776:	429a      	cmp	r2, r3
 8002778:	d000      	beq.n	800277c <UART_SetConfig+0x114>
 800277a:	e077      	b.n	800286c <UART_SetConfig+0x204>
 800277c:	2317      	movs	r3, #23
 800277e:	18fb      	adds	r3, r7, r3
 8002780:	781b      	ldrb	r3, [r3, #0]
 8002782:	2b02      	cmp	r3, #2
 8002784:	d01c      	beq.n	80027c0 <UART_SetConfig+0x158>
 8002786:	dc02      	bgt.n	800278e <UART_SetConfig+0x126>
 8002788:	2b00      	cmp	r3, #0
 800278a:	d005      	beq.n	8002798 <UART_SetConfig+0x130>
 800278c:	e04f      	b.n	800282e <UART_SetConfig+0x1c6>
 800278e:	2b04      	cmp	r3, #4
 8002790:	d027      	beq.n	80027e2 <UART_SetConfig+0x17a>
 8002792:	2b08      	cmp	r3, #8
 8002794:	d039      	beq.n	800280a <UART_SetConfig+0x1a2>
 8002796:	e04a      	b.n	800282e <UART_SetConfig+0x1c6>
 8002798:	f7fe fea2 	bl	80014e0 <HAL_RCC_GetPCLK1Freq>
 800279c:	0003      	movs	r3, r0
 800279e:	005a      	lsls	r2, r3, #1
 80027a0:	687b      	ldr	r3, [r7, #4]
 80027a2:	685b      	ldr	r3, [r3, #4]
 80027a4:	085b      	lsrs	r3, r3, #1
 80027a6:	18d2      	adds	r2, r2, r3
 80027a8:	687b      	ldr	r3, [r7, #4]
 80027aa:	685b      	ldr	r3, [r3, #4]
 80027ac:	0019      	movs	r1, r3
 80027ae:	0010      	movs	r0, r2
 80027b0:	f7fd fcbc 	bl	800012c <__udivsi3>
 80027b4:	0003      	movs	r3, r0
 80027b6:	001a      	movs	r2, r3
 80027b8:	2314      	movs	r3, #20
 80027ba:	18fb      	adds	r3, r7, r3
 80027bc:	801a      	strh	r2, [r3, #0]
 80027be:	e03b      	b.n	8002838 <UART_SetConfig+0x1d0>
 80027c0:	687b      	ldr	r3, [r7, #4]
 80027c2:	685b      	ldr	r3, [r3, #4]
 80027c4:	085b      	lsrs	r3, r3, #1
 80027c6:	4a61      	ldr	r2, [pc, #388]	; (800294c <UART_SetConfig+0x2e4>)
 80027c8:	189a      	adds	r2, r3, r2
 80027ca:	687b      	ldr	r3, [r7, #4]
 80027cc:	685b      	ldr	r3, [r3, #4]
 80027ce:	0019      	movs	r1, r3
 80027d0:	0010      	movs	r0, r2
 80027d2:	f7fd fcab 	bl	800012c <__udivsi3>
 80027d6:	0003      	movs	r3, r0
 80027d8:	001a      	movs	r2, r3
 80027da:	2314      	movs	r3, #20
 80027dc:	18fb      	adds	r3, r7, r3
 80027de:	801a      	strh	r2, [r3, #0]
 80027e0:	e02a      	b.n	8002838 <UART_SetConfig+0x1d0>
 80027e2:	f7fe fe0f 	bl	8001404 <HAL_RCC_GetSysClockFreq>
 80027e6:	0003      	movs	r3, r0
 80027e8:	005a      	lsls	r2, r3, #1
 80027ea:	687b      	ldr	r3, [r7, #4]
 80027ec:	685b      	ldr	r3, [r3, #4]
 80027ee:	085b      	lsrs	r3, r3, #1
 80027f0:	18d2      	adds	r2, r2, r3
 80027f2:	687b      	ldr	r3, [r7, #4]
 80027f4:	685b      	ldr	r3, [r3, #4]
 80027f6:	0019      	movs	r1, r3
 80027f8:	0010      	movs	r0, r2
 80027fa:	f7fd fc97 	bl	800012c <__udivsi3>
 80027fe:	0003      	movs	r3, r0
 8002800:	001a      	movs	r2, r3
 8002802:	2314      	movs	r3, #20
 8002804:	18fb      	adds	r3, r7, r3
 8002806:	801a      	strh	r2, [r3, #0]
 8002808:	e016      	b.n	8002838 <UART_SetConfig+0x1d0>
 800280a:	687b      	ldr	r3, [r7, #4]
 800280c:	685b      	ldr	r3, [r3, #4]
 800280e:	085b      	lsrs	r3, r3, #1
 8002810:	2280      	movs	r2, #128	; 0x80
 8002812:	0252      	lsls	r2, r2, #9
 8002814:	189a      	adds	r2, r3, r2
 8002816:	687b      	ldr	r3, [r7, #4]
 8002818:	685b      	ldr	r3, [r3, #4]
 800281a:	0019      	movs	r1, r3
 800281c:	0010      	movs	r0, r2
 800281e:	f7fd fc85 	bl	800012c <__udivsi3>
 8002822:	0003      	movs	r3, r0
 8002824:	001a      	movs	r2, r3
 8002826:	2314      	movs	r3, #20
 8002828:	18fb      	adds	r3, r7, r3
 800282a:	801a      	strh	r2, [r3, #0]
 800282c:	e004      	b.n	8002838 <UART_SetConfig+0x1d0>
 800282e:	2313      	movs	r3, #19
 8002830:	18fb      	adds	r3, r7, r3
 8002832:	2201      	movs	r2, #1
 8002834:	701a      	strb	r2, [r3, #0]
 8002836:	46c0      	nop			; (mov r8, r8)
 8002838:	200a      	movs	r0, #10
 800283a:	183b      	adds	r3, r7, r0
 800283c:	2414      	movs	r4, #20
 800283e:	193a      	adds	r2, r7, r4
 8002840:	8812      	ldrh	r2, [r2, #0]
 8002842:	210f      	movs	r1, #15
 8002844:	438a      	bics	r2, r1
 8002846:	801a      	strh	r2, [r3, #0]
 8002848:	193b      	adds	r3, r7, r4
 800284a:	881b      	ldrh	r3, [r3, #0]
 800284c:	105b      	asrs	r3, r3, #1
 800284e:	b29b      	uxth	r3, r3
 8002850:	2207      	movs	r2, #7
 8002852:	4013      	ands	r3, r2
 8002854:	b299      	uxth	r1, r3
 8002856:	183b      	adds	r3, r7, r0
 8002858:	183a      	adds	r2, r7, r0
 800285a:	8812      	ldrh	r2, [r2, #0]
 800285c:	430a      	orrs	r2, r1
 800285e:	801a      	strh	r2, [r3, #0]
 8002860:	687b      	ldr	r3, [r7, #4]
 8002862:	681b      	ldr	r3, [r3, #0]
 8002864:	183a      	adds	r2, r7, r0
 8002866:	8812      	ldrh	r2, [r2, #0]
 8002868:	60da      	str	r2, [r3, #12]
 800286a:	e05b      	b.n	8002924 <UART_SetConfig+0x2bc>
 800286c:	2317      	movs	r3, #23
 800286e:	18fb      	adds	r3, r7, r3
 8002870:	781b      	ldrb	r3, [r3, #0]
 8002872:	2b02      	cmp	r3, #2
 8002874:	d01b      	beq.n	80028ae <UART_SetConfig+0x246>
 8002876:	dc02      	bgt.n	800287e <UART_SetConfig+0x216>
 8002878:	2b00      	cmp	r3, #0
 800287a:	d005      	beq.n	8002888 <UART_SetConfig+0x220>
 800287c:	e04d      	b.n	800291a <UART_SetConfig+0x2b2>
 800287e:	2b04      	cmp	r3, #4
 8002880:	d026      	beq.n	80028d0 <UART_SetConfig+0x268>
 8002882:	2b08      	cmp	r3, #8
 8002884:	d037      	beq.n	80028f6 <UART_SetConfig+0x28e>
 8002886:	e048      	b.n	800291a <UART_SetConfig+0x2b2>
 8002888:	f7fe fe2a 	bl	80014e0 <HAL_RCC_GetPCLK1Freq>
 800288c:	0002      	movs	r2, r0
 800288e:	687b      	ldr	r3, [r7, #4]
 8002890:	685b      	ldr	r3, [r3, #4]
 8002892:	085b      	lsrs	r3, r3, #1
 8002894:	18d2      	adds	r2, r2, r3
 8002896:	687b      	ldr	r3, [r7, #4]
 8002898:	685b      	ldr	r3, [r3, #4]
 800289a:	0019      	movs	r1, r3
 800289c:	0010      	movs	r0, r2
 800289e:	f7fd fc45 	bl	800012c <__udivsi3>
 80028a2:	0003      	movs	r3, r0
 80028a4:	b29a      	uxth	r2, r3
 80028a6:	687b      	ldr	r3, [r7, #4]
 80028a8:	681b      	ldr	r3, [r3, #0]
 80028aa:	60da      	str	r2, [r3, #12]
 80028ac:	e03a      	b.n	8002924 <UART_SetConfig+0x2bc>
 80028ae:	687b      	ldr	r3, [r7, #4]
 80028b0:	685b      	ldr	r3, [r3, #4]
 80028b2:	085b      	lsrs	r3, r3, #1
 80028b4:	4a26      	ldr	r2, [pc, #152]	; (8002950 <UART_SetConfig+0x2e8>)
 80028b6:	189a      	adds	r2, r3, r2
 80028b8:	687b      	ldr	r3, [r7, #4]
 80028ba:	685b      	ldr	r3, [r3, #4]
 80028bc:	0019      	movs	r1, r3
 80028be:	0010      	movs	r0, r2
 80028c0:	f7fd fc34 	bl	800012c <__udivsi3>
 80028c4:	0003      	movs	r3, r0
 80028c6:	b29a      	uxth	r2, r3
 80028c8:	687b      	ldr	r3, [r7, #4]
 80028ca:	681b      	ldr	r3, [r3, #0]
 80028cc:	60da      	str	r2, [r3, #12]
 80028ce:	e029      	b.n	8002924 <UART_SetConfig+0x2bc>
 80028d0:	f7fe fd98 	bl	8001404 <HAL_RCC_GetSysClockFreq>
 80028d4:	0002      	movs	r2, r0
 80028d6:	687b      	ldr	r3, [r7, #4]
 80028d8:	685b      	ldr	r3, [r3, #4]
 80028da:	085b      	lsrs	r3, r3, #1
 80028dc:	18d2      	adds	r2, r2, r3
 80028de:	687b      	ldr	r3, [r7, #4]
 80028e0:	685b      	ldr	r3, [r3, #4]
 80028e2:	0019      	movs	r1, r3
 80028e4:	0010      	movs	r0, r2
 80028e6:	f7fd fc21 	bl	800012c <__udivsi3>
 80028ea:	0003      	movs	r3, r0
 80028ec:	b29a      	uxth	r2, r3
 80028ee:	687b      	ldr	r3, [r7, #4]
 80028f0:	681b      	ldr	r3, [r3, #0]
 80028f2:	60da      	str	r2, [r3, #12]
 80028f4:	e016      	b.n	8002924 <UART_SetConfig+0x2bc>
 80028f6:	687b      	ldr	r3, [r7, #4]
 80028f8:	685b      	ldr	r3, [r3, #4]
 80028fa:	085b      	lsrs	r3, r3, #1
 80028fc:	2280      	movs	r2, #128	; 0x80
 80028fe:	0212      	lsls	r2, r2, #8
 8002900:	189a      	adds	r2, r3, r2
 8002902:	687b      	ldr	r3, [r7, #4]
 8002904:	685b      	ldr	r3, [r3, #4]
 8002906:	0019      	movs	r1, r3
 8002908:	0010      	movs	r0, r2
 800290a:	f7fd fc0f 	bl	800012c <__udivsi3>
 800290e:	0003      	movs	r3, r0
 8002910:	b29a      	uxth	r2, r3
 8002912:	687b      	ldr	r3, [r7, #4]
 8002914:	681b      	ldr	r3, [r3, #0]
 8002916:	60da      	str	r2, [r3, #12]
 8002918:	e004      	b.n	8002924 <UART_SetConfig+0x2bc>
 800291a:	2313      	movs	r3, #19
 800291c:	18fb      	adds	r3, r7, r3
 800291e:	2201      	movs	r2, #1
 8002920:	701a      	strb	r2, [r3, #0]
 8002922:	46c0      	nop			; (mov r8, r8)
 8002924:	2313      	movs	r3, #19
 8002926:	18fb      	adds	r3, r7, r3
 8002928:	781b      	ldrb	r3, [r3, #0]
 800292a:	0018      	movs	r0, r3
 800292c:	46bd      	mov	sp, r7
 800292e:	b007      	add	sp, #28
 8002930:	bd90      	pop	{r4, r7, pc}
 8002932:	46c0      	nop			; (mov r8, r8)
 8002934:	ffff69f3 	.word	0xffff69f3
 8002938:	ffffcfff 	.word	0xffffcfff
 800293c:	fffff4ff 	.word	0xfffff4ff
 8002940:	40013800 	.word	0x40013800
 8002944:	40021000 	.word	0x40021000
 8002948:	40004400 	.word	0x40004400
 800294c:	00f42400 	.word	0x00f42400
 8002950:	007a1200 	.word	0x007a1200

08002954 <UART_AdvFeatureConfig>:
 8002954:	b580      	push	{r7, lr}
 8002956:	b082      	sub	sp, #8
 8002958:	af00      	add	r7, sp, #0
 800295a:	6078      	str	r0, [r7, #4]
 800295c:	687b      	ldr	r3, [r7, #4]
 800295e:	6a5b      	ldr	r3, [r3, #36]	; 0x24
 8002960:	2201      	movs	r2, #1
 8002962:	4013      	ands	r3, r2
 8002964:	d00b      	beq.n	800297e <UART_AdvFeatureConfig+0x2a>
 8002966:	687b      	ldr	r3, [r7, #4]
 8002968:	681b      	ldr	r3, [r3, #0]
 800296a:	685b      	ldr	r3, [r3, #4]
 800296c:	4a4a      	ldr	r2, [pc, #296]	; (8002a98 <UART_AdvFeatureConfig+0x144>)
 800296e:	4013      	ands	r3, r2
 8002970:	0019      	movs	r1, r3
 8002972:	687b      	ldr	r3, [r7, #4]
 8002974:	6a9a      	ldr	r2, [r3, #40]	; 0x28
 8002976:	687b      	ldr	r3, [r7, #4]
 8002978:	681b      	ldr	r3, [r3, #0]
 800297a:	430a      	orrs	r2, r1
 800297c:	605a      	str	r2, [r3, #4]
 800297e:	687b      	ldr	r3, [r7, #4]
 8002980:	6a5b      	ldr	r3, [r3, #36]	; 0x24
 8002982:	2202      	movs	r2, #2
 8002984:	4013      	ands	r3, r2
 8002986:	d00b      	beq.n	80029a0 <UART_AdvFeatureConfig+0x4c>
 8002988:	687b      	ldr	r3, [r7, #4]
 800298a:	681b      	ldr	r3, [r3, #0]
 800298c:	685b      	ldr	r3, [r3, #4]
 800298e:	4a43      	ldr	r2, [pc, #268]	; (8002a9c <UART_AdvFeatureConfig+0x148>)
 8002990:	4013      	ands	r3, r2
 8002992:	0019      	movs	r1, r3
 8002994:	687b      	ldr	r3, [r7, #4]
 8002996:	6ada      	ldr	r2, [r3, #44]	; 0x2c
 8002998:	687b      	ldr	r3, [r7, #4]
 800299a:	681b      	ldr	r3, [r3, #0]
 800299c:	430a      	orrs	r2, r1
 800299e:	605a      	str	r2, [r3, #4]
 80029a0:	687b      	ldr	r3, [r7, #4]
 80029a2:	6a5b      	ldr	r3, [r3, #36]	; 0x24
 80029a4:	2204      	movs	r2, #4
 80029a6:	4013      	ands	r3, r2
 80029a8:	d00b      	beq.n	80029c2 <UART_AdvFeatureConfig+0x6e>
 80029aa:	687b      	ldr	r3, [r7, #4]
 80029ac:	681b      	ldr	r3, [r3, #0]
 80029ae:	685b      	ldr	r3, [r3, #4]
 80029b0:	4a3b      	ldr	r2, [pc, #236]	; (8002aa0 <UART_AdvFeatureConfig+0x14c>)
 80029b2:	4013      	ands	r3, r2
 80029b4:	0019      	movs	r1, r3
 80029b6:	687b      	ldr	r3, [r7, #4]
 80029b8:	6b1a      	ldr	r2, [r3, #48]	; 0x30
 80029ba:	687b      	ldr	r3, [r7, #4]
 80029bc:	681b      	ldr	r3, [r3, #0]
 80029be:	430a      	orrs	r2, r1
 80029c0:	605a      	str	r2, [r3, #4]
 80029c2:	687b      	ldr	r3, [r7, #4]
 80029c4:	6a5b      	ldr	r3, [r3, #36]	; 0x24
 80029c6:	2208      	movs	r2, #8
 80029c8:	4013      	ands	r3, r2
 80029ca:	d00b      	beq.n	80029e4 <UART_AdvFeatureConfig+0x90>
 80029cc:	687b      	ldr	r3, [r7, #4]
 80029ce:	681b      	ldr	r3, [r3, #0]
 80029d0:	685b      	ldr	r3, [r3, #4]
 80029d2:	4a34      	ldr	r2, [pc, #208]	; (8002aa4 <UART_AdvFeatureConfig+0x150>)
 80029d4:	4013      	ands	r3, r2
 80029d6:	0019      	movs	r1, r3
 80029d8:	687b      	ldr	r3, [r7, #4]
 80029da:	6b5a      	ldr	r2, [r3, #52]	; 0x34
 80029dc:	687b      	ldr	r3, [r7, #4]
 80029de:	681b      	ldr	r3, [r3, #0]
 80029e0:	430a      	orrs	r2, r1
 80029e2:	605a      	str	r2, [r3, #4]
 80029e4:	687b      	ldr	r3, [r7, #4]
 80029e6:	6a5b      	ldr	r3, [r3, #36]	; 0x24
 80029e8:	2210      	movs	r2, #16
 80029ea:	4013      	ands	r3, r2
 80029ec:	d00b      	beq.n	8002a06 <UART_AdvFeatureConfig+0xb2>
 80029ee:	687b      	ldr	r3, [r7, #4]
 80029f0:	681b      	ldr	r3, [r3, #0]
 80029f2:	689b      	ldr	r3, [r3, #8]
 80029f4:	4a2c      	ldr	r2, [pc, #176]	; (8002aa8 <UART_AdvFeatureConfig+0x154>)
 80029f6:	4013      	ands	r3, r2
 80029f8:	0019      	movs	r1, r3
 80029fa:	687b      	ldr	r3, [r7, #4]
 80029fc:	6b9a      	ldr	r2, [r3, #56]	; 0x38
 80029fe:	687b      	ldr	r3, [r7, #4]
 8002a00:	681b      	ldr	r3, [r3, #0]
 8002a02:	430a      	orrs	r2, r1
 8002a04:	609a      	str	r2, [r3, #8]
 8002a06:	687b      	ldr	r3, [r7, #4]
 8002a08:	6a5b      	ldr	r3, [r3, #36]	; 0x24
 8002a0a:	2220      	movs	r2, #32
 8002a0c:	4013      	ands	r3, r2
 8002a0e:	d00b      	beq.n	8002a28 <UART_AdvFeatureConfig+0xd4>
 8002a10:	687b      	ldr	r3, [r7, #4]
 8002a12:	681b      	ldr	r3, [r3, #0]
 8002a14:	689b      	ldr	r3, [r3, #8]
 8002a16:	4a25      	ldr	r2, [pc, #148]	; (8002aac <UART_AdvFeatureConfig+0x158>)
 8002a18:	4013      	ands	r3, r2
 8002a1a:	0019      	movs	r1, r3
 8002a1c:	687b      	ldr	r3, [r7, #4]
 8002a1e:	6bda      	ldr	r2, [r3, #60]	; 0x3c
 8002a20:	687b      	ldr	r3, [r7, #4]
 8002a22:	681b      	ldr	r3, [r3, #0]
 8002a24:	430a      	orrs	r2, r1
 8002a26:	609a      	str	r2, [r3, #8]
 8002a28:	687b      	ldr	r3, [r7, #4]
 8002a2a:	6a5b      	ldr	r3, [r3, #36]	; 0x24
 8002a2c:	2240      	movs	r2, #64	; 0x40
 8002a2e:	4013      	ands	r3, r2
 8002a30:	d01d      	beq.n	8002a6e <UART_AdvFeatureConfig+0x11a>
 8002a32:	687b      	ldr	r3, [r7, #4]
 8002a34:	681b      	ldr	r3, [r3, #0]
 8002a36:	685b      	ldr	r3, [r3, #4]
 8002a38:	4a1d      	ldr	r2, [pc, #116]	; (8002ab0 <UART_AdvFeatureConfig+0x15c>)
 8002a3a:	4013      	ands	r3, r2
 8002a3c:	0019      	movs	r1, r3
 8002a3e:	687b      	ldr	r3, [r7, #4]
 8002a40:	6c1a      	ldr	r2, [r3, #64]	; 0x40
 8002a42:	687b      	ldr	r3, [r7, #4]
 8002a44:	681b      	ldr	r3, [r3, #0]
 8002a46:	430a      	orrs	r2, r1
 8002a48:	605a      	str	r2, [r3, #4]
 8002a4a:	687b      	ldr	r3, [r7, #4]
 8002a4c:	6c1a      	ldr	r2, [r3, #64]	; 0x40
 8002a4e:	2380      	movs	r3, #128	; 0x80
 8002a50:	035b      	lsls	r3, r3, #13
 8002a52:	429a      	cmp	r2, r3
 8002a54:	d10b      	bne.n	8002a6e <UART_AdvFeatureConfig+0x11a>
 8002a56:	687b      	ldr	r3, [r7, #4]
 8002a58:	681b      	ldr	r3, [r3, #0]
 8002a5a:	685b      	ldr	r3, [r3, #4]
 8002a5c:	4a15      	ldr	r2, [pc, #84]	; (8002ab4 <UART_AdvFeatureConfig+0x160>)
 8002a5e:	4013      	ands	r3, r2
 8002a60:	0019      	movs	r1, r3
 8002a62:	687b      	ldr	r3, [r7, #4]
 8002a64:	6c5a      	ldr	r2, [r3, #68]	; 0x44
 8002a66:	687b      	ldr	r3, [r7, #4]
 8002a68:	681b      	ldr	r3, [r3, #0]
 8002a6a:	430a      	orrs	r2, r1
 8002a6c:	605a      	str	r2, [r3, #4]
 8002a6e:	687b      	ldr	r3, [r7, #4]
 8002a70:	6a5b      	ldr	r3, [r3, #36]	; 0x24
 8002a72:	2280      	movs	r2, #128	; 0x80
 8002a74:	4013      	ands	r3, r2
 8002a76:	d00b      	beq.n	8002a90 <UART_AdvFeatureConfig+0x13c>
 8002a78:	687b      	ldr	r3, [r7, #4]
 8002a7a:	681b      	ldr	r3, [r3, #0]
 8002a7c:	685b      	ldr	r3, [r3, #4]
 8002a7e:	4a0e      	ldr	r2, [pc, #56]	; (8002ab8 <UART_AdvFeatureConfig+0x164>)
 8002a80:	4013      	ands	r3, r2
 8002a82:	0019      	movs	r1, r3
 8002a84:	687b      	ldr	r3, [r7, #4]
 8002a86:	6c9a      	ldr	r2, [r3, #72]	; 0x48
 8002a88:	687b      	ldr	r3, [r7, #4]
 8002a8a:	681b      	ldr	r3, [r3, #0]
 8002a8c:	430a      	orrs	r2, r1
 8002a8e:	605a      	str	r2, [r3, #4]
 8002a90:	46c0      	nop			; (mov r8, r8)
 8002a92:	46bd      	mov	sp, r7
 8002a94:	b002      	add	sp, #8
 8002a96:	bd80      	pop	{r7, pc}
 8002a98:	fffdffff 	.word	0xfffdffff
 8002a9c:	fffeffff 	.word	0xfffeffff
 8002aa0:	fffbffff 	.word	0xfffbffff
 8002aa4:	ffff7fff 	.word	0xffff7fff
 8002aa8:	ffffefff 	.word	0xffffefff
 8002aac:	ffffdfff 	.word	0xffffdfff
 8002ab0:	ffefffff 	.word	0xffefffff
 8002ab4:	ff9fffff 	.word	0xff9fffff
 8002ab8:	fff7ffff 	.word	0xfff7ffff

08002abc <UART_CheckIdleState>:
 8002abc:	b580      	push	{r7, lr}
 8002abe:	b082      	sub	sp, #8
 8002ac0:	af00      	add	r7, sp, #0
 8002ac2:	6078      	str	r0, [r7, #4]
 8002ac4:	687b      	ldr	r3, [r7, #4]
 8002ac6:	2200      	movs	r2, #0
 8002ac8:	66da      	str	r2, [r3, #108]	; 0x6c
 8002aca:	687b      	ldr	r3, [r7, #4]
 8002acc:	2269      	movs	r2, #105	; 0x69
 8002ace:	2120      	movs	r1, #32
 8002ad0:	5499      	strb	r1, [r3, r2]
 8002ad2:	687b      	ldr	r3, [r7, #4]
 8002ad4:	226a      	movs	r2, #106	; 0x6a
 8002ad6:	2120      	movs	r1, #32
 8002ad8:	5499      	strb	r1, [r3, r2]
 8002ada:	687b      	ldr	r3, [r7, #4]
 8002adc:	2268      	movs	r2, #104	; 0x68
 8002ade:	2100      	movs	r1, #0
 8002ae0:	5499      	strb	r1, [r3, r2]
 8002ae2:	2300      	movs	r3, #0
 8002ae4:	0018      	movs	r0, r3
 8002ae6:	46bd      	mov	sp, r7
 8002ae8:	b002      	add	sp, #8
 8002aea:	bd80      	pop	{r7, pc}

08002aec <UART_WaitOnFlagUntilTimeout>:
 8002aec:	b580      	push	{r7, lr}
 8002aee:	b084      	sub	sp, #16
 8002af0:	af00      	add	r7, sp, #0
 8002af2:	60f8      	str	r0, [r7, #12]
 8002af4:	60b9      	str	r1, [r7, #8]
 8002af6:	603b      	str	r3, [r7, #0]
 8002af8:	1dfb      	adds	r3, r7, #7
 8002afa:	701a      	strb	r2, [r3, #0]
 8002afc:	e02b      	b.n	8002b56 <UART_WaitOnFlagUntilTimeout+0x6a>
 8002afe:	69bb      	ldr	r3, [r7, #24]
 8002b00:	3301      	adds	r3, #1
 8002b02:	d028      	beq.n	8002b56 <UART_WaitOnFlagUntilTimeout+0x6a>
 8002b04:	69bb      	ldr	r3, [r7, #24]
 8002b06:	2b00      	cmp	r3, #0
 8002b08:	d007      	beq.n	8002b1a <UART_WaitOnFlagUntilTimeout+0x2e>
 8002b0a:	f7fd fbd7 	bl	80002bc <HAL_GetTick>
 8002b0e:	0002      	movs	r2, r0
 8002b10:	683b      	ldr	r3, [r7, #0]
 8002b12:	1ad3      	subs	r3, r2, r3
 8002b14:	69ba      	ldr	r2, [r7, #24]
 8002b16:	429a      	cmp	r2, r3
 8002b18:	d21d      	bcs.n	8002b56 <UART_WaitOnFlagUntilTimeout+0x6a>
 8002b1a:	68fb      	ldr	r3, [r7, #12]
 8002b1c:	681b      	ldr	r3, [r3, #0]
 8002b1e:	681a      	ldr	r2, [r3, #0]
 8002b20:	68fb      	ldr	r3, [r7, #12]
 8002b22:	681b      	ldr	r3, [r3, #0]
 8002b24:	4916      	ldr	r1, [pc, #88]	; (8002b80 <UART_WaitOnFlagUntilTimeout+0x94>)
 8002b26:	400a      	ands	r2, r1
 8002b28:	601a      	str	r2, [r3, #0]
 8002b2a:	68fb      	ldr	r3, [r7, #12]
 8002b2c:	681b      	ldr	r3, [r3, #0]
 8002b2e:	689a      	ldr	r2, [r3, #8]
 8002b30:	68fb      	ldr	r3, [r7, #12]
 8002b32:	681b      	ldr	r3, [r3, #0]
 8002b34:	2101      	movs	r1, #1
 8002b36:	438a      	bics	r2, r1
 8002b38:	609a      	str	r2, [r3, #8]
 8002b3a:	68fb      	ldr	r3, [r7, #12]
 8002b3c:	2269      	movs	r2, #105	; 0x69
 8002b3e:	2120      	movs	r1, #32
 8002b40:	5499      	strb	r1, [r3, r2]
 8002b42:	68fb      	ldr	r3, [r7, #12]
 8002b44:	226a      	movs	r2, #106	; 0x6a
 8002b46:	2120      	movs	r1, #32
 8002b48:	5499      	strb	r1, [r3, r2]
 8002b4a:	68fb      	ldr	r3, [r7, #12]
 8002b4c:	2268      	movs	r2, #104	; 0x68
 8002b4e:	2100      	movs	r1, #0
 8002b50:	5499      	strb	r1, [r3, r2]
 8002b52:	2303      	movs	r3, #3
 8002b54:	e00f      	b.n	8002b76 <UART_WaitOnFlagUntilTimeout+0x8a>
 8002b56:	68fb      	ldr	r3, [r7, #12]
 8002b58:	681b      	ldr	r3, [r3, #0]
 8002b5a:	69db      	ldr	r3, [r3, #28]
 8002b5c:	68ba      	ldr	r2, [r7, #8]
 8002b5e:	4013      	ands	r3, r2
 8002b60:	68ba      	ldr	r2, [r7, #8]
 8002b62:	1ad3      	subs	r3, r2, r3
 8002b64:	425a      	negs	r2, r3
 8002b66:	4153      	adcs	r3, r2
 8002b68:	b2db      	uxtb	r3, r3
 8002b6a:	001a      	movs	r2, r3
 8002b6c:	1dfb      	adds	r3, r7, #7
 8002b6e:	781b      	ldrb	r3, [r3, #0]
 8002b70:	429a      	cmp	r2, r3
 8002b72:	d0c4      	beq.n	8002afe <UART_WaitOnFlagUntilTimeout+0x12>
 8002b74:	2300      	movs	r3, #0
 8002b76:	0018      	movs	r0, r3
 8002b78:	46bd      	mov	sp, r7
 8002b7a:	b004      	add	sp, #16
 8002b7c:	bd80      	pop	{r7, pc}
 8002b7e:	46c0      	nop			; (mov r8, r8)
 8002b80:	fffffe5f 	.word	0xfffffe5f

08002b84 <CH395SetBuffer>:
 8002b84:	b580      	push	{r7, lr}
 8002b86:	b082      	sub	sp, #8
 8002b88:	af00      	add	r7, sp, #0
 8002b8a:	1dbb      	adds	r3, r7, #6
 8002b8c:	2200      	movs	r2, #0
 8002b8e:	701a      	strb	r2, [r3, #0]
 8002b90:	1dfb      	adds	r3, r7, #7
 8002b92:	2200      	movs	r2, #0
 8002b94:	701a      	strb	r2, [r3, #0]
 8002b96:	e01e      	b.n	8002bd6 <CH395SetBuffer+0x52>
 8002b98:	1dbb      	adds	r3, r7, #6
 8002b9a:	7819      	ldrb	r1, [r3, #0]
 8002b9c:	1dfb      	adds	r3, r7, #7
 8002b9e:	781b      	ldrb	r3, [r3, #0]
 8002ba0:	2203      	movs	r2, #3
 8002ba2:	0018      	movs	r0, r3
 8002ba4:	f000 fcc6 	bl	8003534 <CH395SetSocketRecvBuf>
 8002ba8:	1dbb      	adds	r3, r7, #6
 8002baa:	1dba      	adds	r2, r7, #6
 8002bac:	7812      	ldrb	r2, [r2, #0]
 8002bae:	3203      	adds	r2, #3
 8002bb0:	701a      	strb	r2, [r3, #0]
 8002bb2:	1dbb      	adds	r3, r7, #6
 8002bb4:	7819      	ldrb	r1, [r3, #0]
 8002bb6:	1dfb      	adds	r3, r7, #7
 8002bb8:	781b      	ldrb	r3, [r3, #0]
 8002bba:	2203      	movs	r2, #3
 8002bbc:	0018      	movs	r0, r3
 8002bbe:	f000 fcde 	bl	800357e <CH395SetSocketSendBuf>
 8002bc2:	1dbb      	adds	r3, r7, #6
 8002bc4:	1dba      	adds	r2, r7, #6
 8002bc6:	7812      	ldrb	r2, [r2, #0]
 8002bc8:	3203      	adds	r2, #3
 8002bca:	701a      	strb	r2, [r3, #0]
 8002bcc:	1dfb      	adds	r3, r7, #7
 8002bce:	1dfa      	adds	r2, r7, #7
 8002bd0:	7812      	ldrb	r2, [r2, #0]
 8002bd2:	3201      	adds	r2, #1
 8002bd4:	701a      	strb	r2, [r3, #0]
 8002bd6:	1dfb      	adds	r3, r7, #7
 8002bd8:	781b      	ldrb	r3, [r3, #0]
 8002bda:	2b07      	cmp	r3, #7
 8002bdc:	d9dc      	bls.n	8002b98 <CH395SetBuffer+0x14>
 8002bde:	46c0      	nop			; (mov r8, r8)
 8002be0:	46bd      	mov	sp, r7
 8002be2:	b002      	add	sp, #8
 8002be4:	bd80      	pop	{r7, pc}
	...

08002be8 <CH395TCPServerStart>:
 8002be8:	b5b0      	push	{r4, r5, r7, lr}
 8002bea:	b084      	sub	sp, #16
 8002bec:	af00      	add	r7, sp, #0
 8002bee:	6078      	str	r0, [r7, #4]
 8002bf0:	000a      	movs	r2, r1
 8002bf2:	1cbb      	adds	r3, r7, #2
 8002bf4:	801a      	strh	r2, [r3, #0]
 8002bf6:	f000 f8c1 	bl	8002d7c <CH395CMDInitCH395>
 8002bfa:	4b35      	ldr	r3, [pc, #212]	; (8002cd0 <CH395TCPServerStart+0xe8>)
 8002bfc:	2200      	movs	r2, #0
 8002bfe:	705a      	strb	r2, [r3, #1]
 8002c00:	4b33      	ldr	r3, [pc, #204]	; (8002cd0 <CH395TCPServerStart+0xe8>)
 8002c02:	2200      	movs	r2, #0
 8002c04:	70da      	strb	r2, [r3, #3]
 8002c06:	4b32      	ldr	r3, [pc, #200]	; (8002cd0 <CH395TCPServerStart+0xe8>)
 8002c08:	22ff      	movs	r2, #255	; 0xff
 8002c0a:	709a      	strb	r2, [r3, #2]
 8002c0c:	230f      	movs	r3, #15
 8002c0e:	18fb      	adds	r3, r7, r3
 8002c10:	2200      	movs	r2, #0
 8002c12:	701a      	strb	r2, [r3, #0]
 8002c14:	250e      	movs	r5, #14
 8002c16:	197c      	adds	r4, r7, r5
 8002c18:	f000 f894 	bl	8002d44 <CH395CMDGetPHYStatus>
 8002c1c:	0003      	movs	r3, r0
 8002c1e:	7023      	strb	r3, [r4, #0]
 8002c20:	197b      	adds	r3, r7, r5
 8002c22:	781b      	ldrb	r3, [r3, #0]
 8002c24:	2b01      	cmp	r3, #1
 8002c26:	d10e      	bne.n	8002c46 <CH395TCPServerStart+0x5e>
 8002c28:	240f      	movs	r4, #15
 8002c2a:	193b      	adds	r3, r7, r4
 8002c2c:	193a      	adds	r2, r7, r4
 8002c2e:	7812      	ldrb	r2, [r2, #0]
 8002c30:	3201      	adds	r2, #1
 8002c32:	701a      	strb	r2, [r3, #0]
 8002c34:	4b27      	ldr	r3, [pc, #156]	; (8002cd4 <CH395TCPServerStart+0xec>)
 8002c36:	0018      	movs	r0, r3
 8002c38:	f000 fd60 	bl	80036fc <Delay_us>
 8002c3c:	193b      	adds	r3, r7, r4
 8002c3e:	781b      	ldrb	r3, [r3, #0]
 8002c40:	2b13      	cmp	r3, #19
 8002c42:	d9e7      	bls.n	8002c14 <CH395TCPServerStart+0x2c>
 8002c44:	e000      	b.n	8002c48 <CH395TCPServerStart+0x60>
 8002c46:	46c0      	nop			; (mov r8, r8)
 8002c48:	230f      	movs	r3, #15
 8002c4a:	18fb      	adds	r3, r7, r3
 8002c4c:	781b      	ldrb	r3, [r3, #0]
 8002c4e:	2b13      	cmp	r3, #19
 8002c50:	d901      	bls.n	8002c56 <CH395TCPServerStart+0x6e>
 8002c52:	2300      	movs	r3, #0
 8002c54:	e038      	b.n	8002cc8 <CH395TCPServerStart+0xe0>
 8002c56:	2001      	movs	r0, #1
 8002c58:	f000 fc12 	bl	8003480 <CH395DHCPEnable>
 8002c5c:	1e03      	subs	r3, r0, #0
 8002c5e:	d007      	beq.n	8002c70 <CH395TCPServerStart+0x88>
 8002c60:	1d3b      	adds	r3, r7, #4
 8002c62:	0018      	movs	r0, r3
 8002c64:	f000 f8dc 	bl	8002e20 <CH395CMDSetIPAddr>
 8002c68:	1d3b      	adds	r3, r7, #4
 8002c6a:	0018      	movs	r0, r3
 8002c6c:	f000 f904 	bl	8002e78 <CH395CMDSetGWIPAddr>
 8002c70:	2002      	movs	r0, #2
 8002c72:	f000 fca9 	bl	80035c8 <CH395SetStartPara>
 8002c76:	230f      	movs	r3, #15
 8002c78:	18fb      	adds	r3, r7, r3
 8002c7a:	2200      	movs	r2, #0
 8002c7c:	701a      	strb	r2, [r3, #0]
 8002c7e:	e013      	b.n	8002ca8 <CH395TCPServerStart+0xc0>
 8002c80:	240f      	movs	r4, #15
 8002c82:	193b      	adds	r3, r7, r4
 8002c84:	781b      	ldrb	r3, [r3, #0]
 8002c86:	2103      	movs	r1, #3
 8002c88:	0018      	movs	r0, r3
 8002c8a:	f000 f94d 	bl	8002f28 <CH395SetSocketProtType>
 8002c8e:	1cbb      	adds	r3, r7, #2
 8002c90:	881a      	ldrh	r2, [r3, #0]
 8002c92:	193b      	adds	r3, r7, r4
 8002c94:	781b      	ldrb	r3, [r3, #0]
 8002c96:	0011      	movs	r1, r2
 8002c98:	0018      	movs	r0, r3
 8002c9a:	f000 f969 	bl	8002f70 <CH395SetSocketSourPort>
 8002c9e:	193b      	adds	r3, r7, r4
 8002ca0:	193a      	adds	r2, r7, r4
 8002ca2:	7812      	ldrb	r2, [r2, #0]
 8002ca4:	3201      	adds	r2, #1
 8002ca6:	701a      	strb	r2, [r3, #0]
 8002ca8:	230f      	movs	r3, #15
 8002caa:	18fb      	adds	r3, r7, r3
 8002cac:	781b      	ldrb	r3, [r3, #0]
 8002cae:	2b07      	cmp	r3, #7
 8002cb0:	d9e6      	bls.n	8002c80 <CH395TCPServerStart+0x98>
 8002cb2:	2000      	movs	r0, #0
 8002cb4:	f000 faf6 	bl	80032a4 <CH395OpenSocket>
 8002cb8:	230d      	movs	r3, #13
 8002cba:	18fc      	adds	r4, r7, r3
 8002cbc:	2000      	movs	r0, #0
 8002cbe:	f000 fb33 	bl	8003328 <CH395TCPListen>
 8002cc2:	0003      	movs	r3, r0
 8002cc4:	7023      	strb	r3, [r4, #0]
 8002cc6:	2301      	movs	r3, #1
 8002cc8:	0018      	movs	r0, r3
 8002cca:	46bd      	mov	sp, r7
 8002ccc:	b004      	add	sp, #16
 8002cce:	bdb0      	pop	{r4, r5, r7, pc}
 8002cd0:	20000000 	.word	0x20000000
 8002cd4:	000186a0 	.word	0x000186a0

08002cd8 <CH395CMDReset>:
 8002cd8:	b580      	push	{r7, lr}
 8002cda:	af00      	add	r7, sp, #0
 8002cdc:	2005      	movs	r0, #5
 8002cde:	f000 fcc1 	bl	8003664 <xWriteCH395Cmd>
 8002ce2:	4b05      	ldr	r3, [pc, #20]	; (8002cf8 <CH395CMDReset+0x20>)
 8002ce4:	6818      	ldr	r0, [r3, #0]
 8002ce6:	4b04      	ldr	r3, [pc, #16]	; (8002cf8 <CH395CMDReset+0x20>)
 8002ce8:	889b      	ldrh	r3, [r3, #4]
 8002cea:	2201      	movs	r2, #1
 8002cec:	0019      	movs	r1, r3
 8002cee:	f7fd ff36 	bl	8000b5e <HAL_GPIO_WritePin>
 8002cf2:	46c0      	nop			; (mov r8, r8)
 8002cf4:	46bd      	mov	sp, r7
 8002cf6:	bd80      	pop	{r7, pc}
 8002cf8:	20000804 	.word	0x20000804

08002cfc <CH395CMDCheckExist>:
 8002cfc:	b5b0      	push	{r4, r5, r7, lr}
 8002cfe:	b084      	sub	sp, #16
 8002d00:	af00      	add	r7, sp, #0
 8002d02:	0002      	movs	r2, r0
 8002d04:	1dfb      	adds	r3, r7, #7
 8002d06:	701a      	strb	r2, [r3, #0]
 8002d08:	2006      	movs	r0, #6
 8002d0a:	f000 fcab 	bl	8003664 <xWriteCH395Cmd>
 8002d0e:	1dfb      	adds	r3, r7, #7
 8002d10:	781b      	ldrb	r3, [r3, #0]
 8002d12:	0018      	movs	r0, r3
 8002d14:	f000 fcce 	bl	80036b4 <xWriteCH395Data>
 8002d18:	250f      	movs	r5, #15
 8002d1a:	197c      	adds	r4, r7, r5
 8002d1c:	f000 fcdc 	bl	80036d8 <xReadCH395Data>
 8002d20:	0003      	movs	r3, r0
 8002d22:	7023      	strb	r3, [r4, #0]
 8002d24:	4b06      	ldr	r3, [pc, #24]	; (8002d40 <CH395CMDCheckExist+0x44>)
 8002d26:	6818      	ldr	r0, [r3, #0]
 8002d28:	4b05      	ldr	r3, [pc, #20]	; (8002d40 <CH395CMDCheckExist+0x44>)
 8002d2a:	889b      	ldrh	r3, [r3, #4]
 8002d2c:	2201      	movs	r2, #1
 8002d2e:	0019      	movs	r1, r3
 8002d30:	f7fd ff15 	bl	8000b5e <HAL_GPIO_WritePin>
 8002d34:	197b      	adds	r3, r7, r5
 8002d36:	781b      	ldrb	r3, [r3, #0]
 8002d38:	0018      	movs	r0, r3
 8002d3a:	46bd      	mov	sp, r7
 8002d3c:	b004      	add	sp, #16
 8002d3e:	bdb0      	pop	{r4, r5, r7, pc}
 8002d40:	20000804 	.word	0x20000804

08002d44 <CH395CMDGetPHYStatus>:
 8002d44:	b590      	push	{r4, r7, lr}
 8002d46:	b083      	sub	sp, #12
 8002d48:	af00      	add	r7, sp, #0
 8002d4a:	2026      	movs	r0, #38	; 0x26
 8002d4c:	f000 fc8a 	bl	8003664 <xWriteCH395Cmd>
 8002d50:	1dfc      	adds	r4, r7, #7
 8002d52:	f000 fcc1 	bl	80036d8 <xReadCH395Data>
 8002d56:	0003      	movs	r3, r0
 8002d58:	7023      	strb	r3, [r4, #0]
 8002d5a:	4b07      	ldr	r3, [pc, #28]	; (8002d78 <CH395CMDGetPHYStatus+0x34>)
 8002d5c:	6818      	ldr	r0, [r3, #0]
 8002d5e:	4b06      	ldr	r3, [pc, #24]	; (8002d78 <CH395CMDGetPHYStatus+0x34>)
 8002d60:	889b      	ldrh	r3, [r3, #4]
 8002d62:	2201      	movs	r2, #1
 8002d64:	0019      	movs	r1, r3
 8002d66:	f7fd fefa 	bl	8000b5e <HAL_GPIO_WritePin>
 8002d6a:	1dfb      	adds	r3, r7, #7
 8002d6c:	781b      	ldrb	r3, [r3, #0]
 8002d6e:	0018      	movs	r0, r3
 8002d70:	46bd      	mov	sp, r7
 8002d72:	b003      	add	sp, #12
 8002d74:	bd90      	pop	{r4, r7, pc}
 8002d76:	46c0      	nop			; (mov r8, r8)
 8002d78:	20000804 	.word	0x20000804

08002d7c <CH395CMDInitCH395>:
 8002d7c:	b590      	push	{r4, r7, lr}
 8002d7e:	b083      	sub	sp, #12
 8002d80:	af00      	add	r7, sp, #0
 8002d82:	1dfb      	adds	r3, r7, #7
 8002d84:	2200      	movs	r2, #0
 8002d86:	701a      	strb	r2, [r3, #0]
 8002d88:	1dbb      	adds	r3, r7, #6
 8002d8a:	2200      	movs	r2, #0
 8002d8c:	701a      	strb	r2, [r3, #0]
 8002d8e:	2027      	movs	r0, #39	; 0x27
 8002d90:	f000 fc68 	bl	8003664 <xWriteCH395Cmd>
 8002d94:	4b12      	ldr	r3, [pc, #72]	; (8002de0 <CH395CMDInitCH395+0x64>)
 8002d96:	6818      	ldr	r0, [r3, #0]
 8002d98:	4b11      	ldr	r3, [pc, #68]	; (8002de0 <CH395CMDInitCH395+0x64>)
 8002d9a:	889b      	ldrh	r3, [r3, #4]
 8002d9c:	2201      	movs	r2, #1
 8002d9e:	0019      	movs	r1, r3
 8002da0:	f7fd fedd 	bl	8000b5e <HAL_GPIO_WritePin>
 8002da4:	4b0f      	ldr	r3, [pc, #60]	; (8002de4 <CH395CMDInitCH395+0x68>)
 8002da6:	0018      	movs	r0, r3
 8002da8:	f000 fca8 	bl	80036fc <Delay_us>
 8002dac:	1dbc      	adds	r4, r7, #6
 8002dae:	f000 f81b 	bl	8002de8 <CH395GetCmdStatus>
 8002db2:	0003      	movs	r3, r0
 8002db4:	7023      	strb	r3, [r4, #0]
 8002db6:	1dbb      	adds	r3, r7, #6
 8002db8:	781b      	ldrb	r3, [r3, #0]
 8002dba:	2b10      	cmp	r3, #16
 8002dbc:	d108      	bne.n	8002dd0 <CH395CMDInitCH395+0x54>
 8002dbe:	1dfb      	adds	r3, r7, #7
 8002dc0:	781b      	ldrb	r3, [r3, #0]
 8002dc2:	1dfa      	adds	r2, r7, #7
 8002dc4:	1c59      	adds	r1, r3, #1
 8002dc6:	7011      	strb	r1, [r2, #0]
 8002dc8:	2bc8      	cmp	r3, #200	; 0xc8
 8002dca:	d9eb      	bls.n	8002da4 <CH395CMDInitCH395+0x28>
 8002dcc:	23fa      	movs	r3, #250	; 0xfa
 8002dce:	e002      	b.n	8002dd6 <CH395CMDInitCH395+0x5a>
 8002dd0:	46c0      	nop			; (mov r8, r8)
 8002dd2:	1dbb      	adds	r3, r7, #6
 8002dd4:	781b      	ldrb	r3, [r3, #0]
 8002dd6:	0018      	movs	r0, r3
 8002dd8:	46bd      	mov	sp, r7
 8002dda:	b003      	add	sp, #12
 8002ddc:	bd90      	pop	{r4, r7, pc}
 8002dde:	46c0      	nop			; (mov r8, r8)
 8002de0:	20000804 	.word	0x20000804
 8002de4:	00002710 	.word	0x00002710

08002de8 <CH395GetCmdStatus>:
 8002de8:	b590      	push	{r4, r7, lr}
 8002dea:	b083      	sub	sp, #12
 8002dec:	af00      	add	r7, sp, #0
 8002dee:	202c      	movs	r0, #44	; 0x2c
 8002df0:	f000 fc38 	bl	8003664 <xWriteCH395Cmd>
 8002df4:	1dfc      	adds	r4, r7, #7
 8002df6:	f000 fc6f 	bl	80036d8 <xReadCH395Data>
 8002dfa:	0003      	movs	r3, r0
 8002dfc:	7023      	strb	r3, [r4, #0]
 8002dfe:	4b07      	ldr	r3, [pc, #28]	; (8002e1c <CH395GetCmdStatus+0x34>)
 8002e00:	6818      	ldr	r0, [r3, #0]
 8002e02:	4b06      	ldr	r3, [pc, #24]	; (8002e1c <CH395GetCmdStatus+0x34>)
 8002e04:	889b      	ldrh	r3, [r3, #4]
 8002e06:	2201      	movs	r2, #1
 8002e08:	0019      	movs	r1, r3
 8002e0a:	f7fd fea8 	bl	8000b5e <HAL_GPIO_WritePin>
 8002e0e:	1dfb      	adds	r3, r7, #7
 8002e10:	781b      	ldrb	r3, [r3, #0]
 8002e12:	0018      	movs	r0, r3
 8002e14:	46bd      	mov	sp, r7
 8002e16:	b003      	add	sp, #12
 8002e18:	bd90      	pop	{r4, r7, pc}
 8002e1a:	46c0      	nop			; (mov r8, r8)
 8002e1c:	20000804 	.word	0x20000804

08002e20 <CH395CMDSetIPAddr>:
 8002e20:	b580      	push	{r7, lr}
 8002e22:	b084      	sub	sp, #16
 8002e24:	af00      	add	r7, sp, #0
 8002e26:	6078      	str	r0, [r7, #4]
 8002e28:	2022      	movs	r0, #34	; 0x22
 8002e2a:	f000 fc1b 	bl	8003664 <xWriteCH395Cmd>
 8002e2e:	230f      	movs	r3, #15
 8002e30:	18fb      	adds	r3, r7, r3
 8002e32:	2200      	movs	r2, #0
 8002e34:	701a      	strb	r2, [r3, #0]
 8002e36:	e00c      	b.n	8002e52 <CH395CMDSetIPAddr+0x32>
 8002e38:	687b      	ldr	r3, [r7, #4]
 8002e3a:	1c5a      	adds	r2, r3, #1
 8002e3c:	607a      	str	r2, [r7, #4]
 8002e3e:	781b      	ldrb	r3, [r3, #0]
 8002e40:	0018      	movs	r0, r3
 8002e42:	f000 fc37 	bl	80036b4 <xWriteCH395Data>
 8002e46:	210f      	movs	r1, #15
 8002e48:	187b      	adds	r3, r7, r1
 8002e4a:	781a      	ldrb	r2, [r3, #0]
 8002e4c:	187b      	adds	r3, r7, r1
 8002e4e:	3201      	adds	r2, #1
 8002e50:	701a      	strb	r2, [r3, #0]
 8002e52:	230f      	movs	r3, #15
 8002e54:	18fb      	adds	r3, r7, r3
 8002e56:	781b      	ldrb	r3, [r3, #0]
 8002e58:	2b03      	cmp	r3, #3
 8002e5a:	d9ed      	bls.n	8002e38 <CH395CMDSetIPAddr+0x18>
 8002e5c:	4b05      	ldr	r3, [pc, #20]	; (8002e74 <CH395CMDSetIPAddr+0x54>)
 8002e5e:	6818      	ldr	r0, [r3, #0]
 8002e60:	4b04      	ldr	r3, [pc, #16]	; (8002e74 <CH395CMDSetIPAddr+0x54>)
 8002e62:	889b      	ldrh	r3, [r3, #4]
 8002e64:	2201      	movs	r2, #1
 8002e66:	0019      	movs	r1, r3
 8002e68:	f7fd fe79 	bl	8000b5e <HAL_GPIO_WritePin>
 8002e6c:	46c0      	nop			; (mov r8, r8)
 8002e6e:	46bd      	mov	sp, r7
 8002e70:	b004      	add	sp, #16
 8002e72:	bd80      	pop	{r7, pc}
 8002e74:	20000804 	.word	0x20000804

08002e78 <CH395CMDSetGWIPAddr>:
 8002e78:	b580      	push	{r7, lr}
 8002e7a:	b084      	sub	sp, #16
 8002e7c:	af00      	add	r7, sp, #0
 8002e7e:	6078      	str	r0, [r7, #4]
 8002e80:	2023      	movs	r0, #35	; 0x23
 8002e82:	f000 fbef 	bl	8003664 <xWriteCH395Cmd>
 8002e86:	230f      	movs	r3, #15
 8002e88:	18fb      	adds	r3, r7, r3
 8002e8a:	2200      	movs	r2, #0
 8002e8c:	701a      	strb	r2, [r3, #0]
 8002e8e:	e00c      	b.n	8002eaa <CH395CMDSetGWIPAddr+0x32>
 8002e90:	687b      	ldr	r3, [r7, #4]
 8002e92:	1c5a      	adds	r2, r3, #1
 8002e94:	607a      	str	r2, [r7, #4]
 8002e96:	781b      	ldrb	r3, [r3, #0]
 8002e98:	0018      	movs	r0, r3
 8002e9a:	f000 fc0b 	bl	80036b4 <xWriteCH395Data>
 8002e9e:	210f      	movs	r1, #15
 8002ea0:	187b      	adds	r3, r7, r1
 8002ea2:	781a      	ldrb	r2, [r3, #0]
 8002ea4:	187b      	adds	r3, r7, r1
 8002ea6:	3201      	adds	r2, #1
 8002ea8:	701a      	strb	r2, [r3, #0]
 8002eaa:	230f      	movs	r3, #15
 8002eac:	18fb      	adds	r3, r7, r3
 8002eae:	781b      	ldrb	r3, [r3, #0]
 8002eb0:	2b03      	cmp	r3, #3
 8002eb2:	d9ed      	bls.n	8002e90 <CH395CMDSetGWIPAddr+0x18>
 8002eb4:	4b05      	ldr	r3, [pc, #20]	; (8002ecc <CH395CMDSetGWIPAddr+0x54>)
 8002eb6:	6818      	ldr	r0, [r3, #0]
 8002eb8:	4b04      	ldr	r3, [pc, #16]	; (8002ecc <CH395CMDSetGWIPAddr+0x54>)
 8002eba:	889b      	ldrh	r3, [r3, #4]
 8002ebc:	2201      	movs	r2, #1
 8002ebe:	0019      	movs	r1, r3
 8002ec0:	f7fd fe4d 	bl	8000b5e <HAL_GPIO_WritePin>
 8002ec4:	46c0      	nop			; (mov r8, r8)
 8002ec6:	46bd      	mov	sp, r7
 8002ec8:	b004      	add	sp, #16
 8002eca:	bd80      	pop	{r7, pc}
 8002ecc:	20000804 	.word	0x20000804

08002ed0 <CH395CMDGetUnreachIPPT>:
 8002ed0:	b590      	push	{r4, r7, lr}
 8002ed2:	b085      	sub	sp, #20
 8002ed4:	af00      	add	r7, sp, #0
 8002ed6:	6078      	str	r0, [r7, #4]
 8002ed8:	2028      	movs	r0, #40	; 0x28
 8002eda:	f000 fbc3 	bl	8003664 <xWriteCH395Cmd>
 8002ede:	230f      	movs	r3, #15
 8002ee0:	18fb      	adds	r3, r7, r3
 8002ee2:	2200      	movs	r2, #0
 8002ee4:	701a      	strb	r2, [r3, #0]
 8002ee6:	e00c      	b.n	8002f02 <CH395CMDGetUnreachIPPT+0x32>
 8002ee8:	687c      	ldr	r4, [r7, #4]
 8002eea:	1c63      	adds	r3, r4, #1
 8002eec:	607b      	str	r3, [r7, #4]
 8002eee:	f000 fbf3 	bl	80036d8 <xReadCH395Data>
 8002ef2:	0003      	movs	r3, r0
 8002ef4:	7023      	strb	r3, [r4, #0]
 8002ef6:	210f      	movs	r1, #15
 8002ef8:	187b      	adds	r3, r7, r1
 8002efa:	781a      	ldrb	r2, [r3, #0]
 8002efc:	187b      	adds	r3, r7, r1
 8002efe:	3201      	adds	r2, #1
 8002f00:	701a      	strb	r2, [r3, #0]
 8002f02:	230f      	movs	r3, #15
 8002f04:	18fb      	adds	r3, r7, r3
 8002f06:	781b      	ldrb	r3, [r3, #0]
 8002f08:	2b07      	cmp	r3, #7
 8002f0a:	d9ed      	bls.n	8002ee8 <CH395CMDGetUnreachIPPT+0x18>
 8002f0c:	4b05      	ldr	r3, [pc, #20]	; (8002f24 <CH395CMDGetUnreachIPPT+0x54>)
 8002f0e:	6818      	ldr	r0, [r3, #0]
 8002f10:	4b04      	ldr	r3, [pc, #16]	; (8002f24 <CH395CMDGetUnreachIPPT+0x54>)
 8002f12:	889b      	ldrh	r3, [r3, #4]
 8002f14:	2201      	movs	r2, #1
 8002f16:	0019      	movs	r1, r3
 8002f18:	f7fd fe21 	bl	8000b5e <HAL_GPIO_WritePin>
 8002f1c:	46c0      	nop			; (mov r8, r8)
 8002f1e:	46bd      	mov	sp, r7
 8002f20:	b005      	add	sp, #20
 8002f22:	bd90      	pop	{r4, r7, pc}
 8002f24:	20000804 	.word	0x20000804

08002f28 <CH395SetSocketProtType>:
 8002f28:	b580      	push	{r7, lr}
 8002f2a:	b082      	sub	sp, #8
 8002f2c:	af00      	add	r7, sp, #0
 8002f2e:	0002      	movs	r2, r0
 8002f30:	1dfb      	adds	r3, r7, #7
 8002f32:	701a      	strb	r2, [r3, #0]
 8002f34:	1dbb      	adds	r3, r7, #6
 8002f36:	1c0a      	adds	r2, r1, #0
 8002f38:	701a      	strb	r2, [r3, #0]
 8002f3a:	2034      	movs	r0, #52	; 0x34
 8002f3c:	f000 fb92 	bl	8003664 <xWriteCH395Cmd>
 8002f40:	1dfb      	adds	r3, r7, #7
 8002f42:	781b      	ldrb	r3, [r3, #0]
 8002f44:	0018      	movs	r0, r3
 8002f46:	f000 fbb5 	bl	80036b4 <xWriteCH395Data>
 8002f4a:	1dbb      	adds	r3, r7, #6
 8002f4c:	781b      	ldrb	r3, [r3, #0]
 8002f4e:	0018      	movs	r0, r3
 8002f50:	f000 fbb0 	bl	80036b4 <xWriteCH395Data>
 8002f54:	4b05      	ldr	r3, [pc, #20]	; (8002f6c <CH395SetSocketProtType+0x44>)
 8002f56:	6818      	ldr	r0, [r3, #0]
 8002f58:	4b04      	ldr	r3, [pc, #16]	; (8002f6c <CH395SetSocketProtType+0x44>)
 8002f5a:	889b      	ldrh	r3, [r3, #4]
 8002f5c:	2201      	movs	r2, #1
 8002f5e:	0019      	movs	r1, r3
 8002f60:	f7fd fdfd 	bl	8000b5e <HAL_GPIO_WritePin>
 8002f64:	46c0      	nop			; (mov r8, r8)
 8002f66:	46bd      	mov	sp, r7
 8002f68:	b002      	add	sp, #8
 8002f6a:	bd80      	pop	{r7, pc}
 8002f6c:	20000804 	.word	0x20000804

08002f70 <CH395SetSocketSourPort>:
 8002f70:	b580      	push	{r7, lr}
 8002f72:	b082      	sub	sp, #8
 8002f74:	af00      	add	r7, sp, #0
 8002f76:	0002      	movs	r2, r0
 8002f78:	1dfb      	adds	r3, r7, #7
 8002f7a:	701a      	strb	r2, [r3, #0]
 8002f7c:	1d3b      	adds	r3, r7, #4
 8002f7e:	1c0a      	adds	r2, r1, #0
 8002f80:	801a      	strh	r2, [r3, #0]
 8002f82:	2033      	movs	r0, #51	; 0x33
 8002f84:	f000 fb6e 	bl	8003664 <xWriteCH395Cmd>
 8002f88:	1dfb      	adds	r3, r7, #7
 8002f8a:	781b      	ldrb	r3, [r3, #0]
 8002f8c:	0018      	movs	r0, r3
 8002f8e:	f000 fb91 	bl	80036b4 <xWriteCH395Data>
 8002f92:	1d3b      	adds	r3, r7, #4
 8002f94:	881b      	ldrh	r3, [r3, #0]
 8002f96:	b2db      	uxtb	r3, r3
 8002f98:	0018      	movs	r0, r3
 8002f9a:	f000 fb8b 	bl	80036b4 <xWriteCH395Data>
 8002f9e:	1d3b      	adds	r3, r7, #4
 8002fa0:	881b      	ldrh	r3, [r3, #0]
 8002fa2:	0a1b      	lsrs	r3, r3, #8
 8002fa4:	b29b      	uxth	r3, r3
 8002fa6:	b2db      	uxtb	r3, r3
 8002fa8:	0018      	movs	r0, r3
 8002faa:	f000 fb83 	bl	80036b4 <xWriteCH395Data>
 8002fae:	4b06      	ldr	r3, [pc, #24]	; (8002fc8 <CH395SetSocketSourPort+0x58>)
 8002fb0:	6818      	ldr	r0, [r3, #0]
 8002fb2:	4b05      	ldr	r3, [pc, #20]	; (8002fc8 <CH395SetSocketSourPort+0x58>)
 8002fb4:	889b      	ldrh	r3, [r3, #4]
 8002fb6:	2201      	movs	r2, #1
 8002fb8:	0019      	movs	r1, r3
 8002fba:	f7fd fdd0 	bl	8000b5e <HAL_GPIO_WritePin>
 8002fbe:	46c0      	nop			; (mov r8, r8)
 8002fc0:	46bd      	mov	sp, r7
 8002fc2:	b002      	add	sp, #8
 8002fc4:	bd80      	pop	{r7, pc}
 8002fc6:	46c0      	nop			; (mov r8, r8)
 8002fc8:	20000804 	.word	0x20000804

08002fcc <CH395SendData>:
 8002fcc:	b580      	push	{r7, lr}
 8002fce:	b084      	sub	sp, #16
 8002fd0:	af00      	add	r7, sp, #0
 8002fd2:	6039      	str	r1, [r7, #0]
 8002fd4:	0011      	movs	r1, r2
 8002fd6:	1dfb      	adds	r3, r7, #7
 8002fd8:	1c02      	adds	r2, r0, #0
 8002fda:	701a      	strb	r2, [r3, #0]
 8002fdc:	1d3b      	adds	r3, r7, #4
 8002fde:	1c0a      	adds	r2, r1, #0
 8002fe0:	801a      	strh	r2, [r3, #0]
 8002fe2:	e003      	b.n	8002fec <CH395SendData+0x20>
 8002fe4:	4b2f      	ldr	r3, [pc, #188]	; (80030a4 <CH395SendData+0xd8>)
 8002fe6:	0018      	movs	r0, r3
 8002fe8:	f000 fb88 	bl	80036fc <Delay_us>
 8002fec:	4b2e      	ldr	r3, [pc, #184]	; (80030a8 <CH395SendData+0xdc>)
 8002fee:	78db      	ldrb	r3, [r3, #3]
 8002ff0:	b2db      	uxtb	r3, r3
 8002ff2:	001a      	movs	r2, r3
 8002ff4:	1dfb      	adds	r3, r7, #7
 8002ff6:	781b      	ldrb	r3, [r3, #0]
 8002ff8:	411a      	asrs	r2, r3
 8002ffa:	0013      	movs	r3, r2
 8002ffc:	2201      	movs	r2, #1
 8002ffe:	4013      	ands	r3, r2
 8003000:	d0f0      	beq.n	8002fe4 <CH395SendData+0x18>
 8003002:	4b29      	ldr	r3, [pc, #164]	; (80030a8 <CH395SendData+0xdc>)
 8003004:	78db      	ldrb	r3, [r3, #3]
 8003006:	b2db      	uxtb	r3, r3
 8003008:	b25b      	sxtb	r3, r3
 800300a:	1dfa      	adds	r2, r7, #7
 800300c:	7812      	ldrb	r2, [r2, #0]
 800300e:	2101      	movs	r1, #1
 8003010:	4091      	lsls	r1, r2
 8003012:	000a      	movs	r2, r1
 8003014:	b252      	sxtb	r2, r2
 8003016:	43d2      	mvns	r2, r2
 8003018:	b252      	sxtb	r2, r2
 800301a:	4013      	ands	r3, r2
 800301c:	b25b      	sxtb	r3, r3
 800301e:	b2da      	uxtb	r2, r3
 8003020:	4b21      	ldr	r3, [pc, #132]	; (80030a8 <CH395SendData+0xdc>)
 8003022:	70da      	strb	r2, [r3, #3]
 8003024:	2039      	movs	r0, #57	; 0x39
 8003026:	f000 fb1d 	bl	8003664 <xWriteCH395Cmd>
 800302a:	1dfb      	adds	r3, r7, #7
 800302c:	781b      	ldrb	r3, [r3, #0]
 800302e:	0018      	movs	r0, r3
 8003030:	f000 fb40 	bl	80036b4 <xWriteCH395Data>
 8003034:	1d3b      	adds	r3, r7, #4
 8003036:	881b      	ldrh	r3, [r3, #0]
 8003038:	b2db      	uxtb	r3, r3
 800303a:	0018      	movs	r0, r3
 800303c:	f000 fb3a 	bl	80036b4 <xWriteCH395Data>
 8003040:	1d3b      	adds	r3, r7, #4
 8003042:	881b      	ldrh	r3, [r3, #0]
 8003044:	0a1b      	lsrs	r3, r3, #8
 8003046:	b29b      	uxth	r3, r3
 8003048:	b2db      	uxtb	r3, r3
 800304a:	0018      	movs	r0, r3
 800304c:	f000 fb32 	bl	80036b4 <xWriteCH395Data>
 8003050:	2002      	movs	r0, #2
 8003052:	f000 fb53 	bl	80036fc <Delay_us>
 8003056:	230e      	movs	r3, #14
 8003058:	18fb      	adds	r3, r7, r3
 800305a:	2200      	movs	r2, #0
 800305c:	801a      	strh	r2, [r3, #0]
 800305e:	e00d      	b.n	800307c <CH395SendData+0xb0>
 8003060:	683b      	ldr	r3, [r7, #0]
 8003062:	781b      	ldrb	r3, [r3, #0]
 8003064:	0018      	movs	r0, r3
 8003066:	f000 fb25 	bl	80036b4 <xWriteCH395Data>
 800306a:	683b      	ldr	r3, [r7, #0]
 800306c:	3301      	adds	r3, #1
 800306e:	603b      	str	r3, [r7, #0]
 8003070:	210e      	movs	r1, #14
 8003072:	187b      	adds	r3, r7, r1
 8003074:	881a      	ldrh	r2, [r3, #0]
 8003076:	187b      	adds	r3, r7, r1
 8003078:	3201      	adds	r2, #1
 800307a:	801a      	strh	r2, [r3, #0]
 800307c:	230e      	movs	r3, #14
 800307e:	18fa      	adds	r2, r7, r3
 8003080:	1d3b      	adds	r3, r7, #4
 8003082:	8812      	ldrh	r2, [r2, #0]
 8003084:	881b      	ldrh	r3, [r3, #0]
 8003086:	429a      	cmp	r2, r3
 8003088:	d3ea      	bcc.n	8003060 <CH395SendData+0x94>
 800308a:	4b08      	ldr	r3, [pc, #32]	; (80030ac <CH395SendData+0xe0>)
 800308c:	6818      	ldr	r0, [r3, #0]
 800308e:	4b07      	ldr	r3, [pc, #28]	; (80030ac <CH395SendData+0xe0>)
 8003090:	889b      	ldrh	r3, [r3, #4]
 8003092:	2201      	movs	r2, #1
 8003094:	0019      	movs	r1, r3
 8003096:	f7fd fd62 	bl	8000b5e <HAL_GPIO_WritePin>
 800309a:	46c0      	nop			; (mov r8, r8)
 800309c:	46bd      	mov	sp, r7
 800309e:	b004      	add	sp, #16
 80030a0:	bd80      	pop	{r7, pc}
 80030a2:	46c0      	nop			; (mov r8, r8)
 80030a4:	00002710 	.word	0x00002710
 80030a8:	20000000 	.word	0x20000000
 80030ac:	20000804 	.word	0x20000804

080030b0 <CH395StartSendingData>:
 80030b0:	b580      	push	{r7, lr}
 80030b2:	b082      	sub	sp, #8
 80030b4:	af00      	add	r7, sp, #0
 80030b6:	0002      	movs	r2, r0
 80030b8:	1dfb      	adds	r3, r7, #7
 80030ba:	701a      	strb	r2, [r3, #0]
 80030bc:	1d3b      	adds	r3, r7, #4
 80030be:	1c0a      	adds	r2, r1, #0
 80030c0:	801a      	strh	r2, [r3, #0]
 80030c2:	2039      	movs	r0, #57	; 0x39
 80030c4:	f000 face 	bl	8003664 <xWriteCH395Cmd>
 80030c8:	1dfb      	adds	r3, r7, #7
 80030ca:	781b      	ldrb	r3, [r3, #0]
 80030cc:	0018      	movs	r0, r3
 80030ce:	f000 faf1 	bl	80036b4 <xWriteCH395Data>
 80030d2:	1d3b      	adds	r3, r7, #4
 80030d4:	881b      	ldrh	r3, [r3, #0]
 80030d6:	b2db      	uxtb	r3, r3
 80030d8:	0018      	movs	r0, r3
 80030da:	f000 faeb 	bl	80036b4 <xWriteCH395Data>
 80030de:	1d3b      	adds	r3, r7, #4
 80030e0:	881b      	ldrh	r3, [r3, #0]
 80030e2:	0a1b      	lsrs	r3, r3, #8
 80030e4:	b29b      	uxth	r3, r3
 80030e6:	b2db      	uxtb	r3, r3
 80030e8:	0018      	movs	r0, r3
 80030ea:	f000 fae3 	bl	80036b4 <xWriteCH395Data>
 80030ee:	2002      	movs	r0, #2
 80030f0:	f000 fb04 	bl	80036fc <Delay_us>
 80030f4:	46c0      	nop			; (mov r8, r8)
 80030f6:	46bd      	mov	sp, r7
 80030f8:	b002      	add	sp, #8
 80030fa:	bd80      	pop	{r7, pc}

080030fc <CH395ContinueSendingData>:
 80030fc:	b580      	push	{r7, lr}
 80030fe:	b084      	sub	sp, #16
 8003100:	af00      	add	r7, sp, #0
 8003102:	6078      	str	r0, [r7, #4]
 8003104:	000a      	movs	r2, r1
 8003106:	1cbb      	adds	r3, r7, #2
 8003108:	801a      	strh	r2, [r3, #0]
 800310a:	230e      	movs	r3, #14
 800310c:	18fb      	adds	r3, r7, r3
 800310e:	2200      	movs	r2, #0
 8003110:	801a      	strh	r2, [r3, #0]
 8003112:	e00d      	b.n	8003130 <CH395ContinueSendingData+0x34>
 8003114:	687b      	ldr	r3, [r7, #4]
 8003116:	781b      	ldrb	r3, [r3, #0]
 8003118:	0018      	movs	r0, r3
 800311a:	f000 facb 	bl	80036b4 <xWriteCH395Data>
 800311e:	687b      	ldr	r3, [r7, #4]
 8003120:	3301      	adds	r3, #1
 8003122:	607b      	str	r3, [r7, #4]
 8003124:	220e      	movs	r2, #14
 8003126:	18bb      	adds	r3, r7, r2
 8003128:	18ba      	adds	r2, r7, r2
 800312a:	8812      	ldrh	r2, [r2, #0]
 800312c:	3201      	adds	r2, #1
 800312e:	801a      	strh	r2, [r3, #0]
 8003130:	230e      	movs	r3, #14
 8003132:	18fa      	adds	r2, r7, r3
 8003134:	1cbb      	adds	r3, r7, #2
 8003136:	8812      	ldrh	r2, [r2, #0]
 8003138:	881b      	ldrh	r3, [r3, #0]
 800313a:	429a      	cmp	r2, r3
 800313c:	d3ea      	bcc.n	8003114 <CH395ContinueSendingData+0x18>
 800313e:	46c0      	nop			; (mov r8, r8)
 8003140:	46bd      	mov	sp, r7
 8003142:	b004      	add	sp, #16
 8003144:	bd80      	pop	{r7, pc}
	...

08003148 <CH395Complete>:
 8003148:	b580      	push	{r7, lr}
 800314a:	af00      	add	r7, sp, #0
 800314c:	4b05      	ldr	r3, [pc, #20]	; (8003164 <CH395Complete+0x1c>)
 800314e:	6818      	ldr	r0, [r3, #0]
 8003150:	4b04      	ldr	r3, [pc, #16]	; (8003164 <CH395Complete+0x1c>)
 8003152:	889b      	ldrh	r3, [r3, #4]
 8003154:	2201      	movs	r2, #1
 8003156:	0019      	movs	r1, r3
 8003158:	f7fd fd01 	bl	8000b5e <HAL_GPIO_WritePin>
 800315c:	46c0      	nop			; (mov r8, r8)
 800315e:	46bd      	mov	sp, r7
 8003160:	bd80      	pop	{r7, pc}
 8003162:	46c0      	nop			; (mov r8, r8)
 8003164:	20000804 	.word	0x20000804

08003168 <CH395GetRecvLength>:
 8003168:	b590      	push	{r4, r7, lr}
 800316a:	b085      	sub	sp, #20
 800316c:	af00      	add	r7, sp, #0
 800316e:	0002      	movs	r2, r0
 8003170:	1dfb      	adds	r3, r7, #7
 8003172:	701a      	strb	r2, [r3, #0]
 8003174:	203b      	movs	r0, #59	; 0x3b
 8003176:	f000 fa75 	bl	8003664 <xWriteCH395Cmd>
 800317a:	1dfb      	adds	r3, r7, #7
 800317c:	781b      	ldrb	r3, [r3, #0]
 800317e:	0018      	movs	r0, r3
 8003180:	f000 fa98 	bl	80036b4 <xWriteCH395Data>
 8003184:	f000 faa8 	bl	80036d8 <xReadCH395Data>
 8003188:	0003      	movs	r3, r0
 800318a:	001a      	movs	r2, r3
 800318c:	240e      	movs	r4, #14
 800318e:	193b      	adds	r3, r7, r4
 8003190:	801a      	strh	r2, [r3, #0]
 8003192:	f000 faa1 	bl	80036d8 <xReadCH395Data>
 8003196:	0003      	movs	r3, r0
 8003198:	b29b      	uxth	r3, r3
 800319a:	021b      	lsls	r3, r3, #8
 800319c:	b299      	uxth	r1, r3
 800319e:	193b      	adds	r3, r7, r4
 80031a0:	193a      	adds	r2, r7, r4
 80031a2:	8812      	ldrh	r2, [r2, #0]
 80031a4:	188a      	adds	r2, r1, r2
 80031a6:	801a      	strh	r2, [r3, #0]
 80031a8:	4b06      	ldr	r3, [pc, #24]	; (80031c4 <CH395GetRecvLength+0x5c>)
 80031aa:	6818      	ldr	r0, [r3, #0]
 80031ac:	4b05      	ldr	r3, [pc, #20]	; (80031c4 <CH395GetRecvLength+0x5c>)
 80031ae:	889b      	ldrh	r3, [r3, #4]
 80031b0:	2201      	movs	r2, #1
 80031b2:	0019      	movs	r1, r3
 80031b4:	f7fd fcd3 	bl	8000b5e <HAL_GPIO_WritePin>
 80031b8:	193b      	adds	r3, r7, r4
 80031ba:	881b      	ldrh	r3, [r3, #0]
 80031bc:	0018      	movs	r0, r3
 80031be:	46bd      	mov	sp, r7
 80031c0:	b005      	add	sp, #20
 80031c2:	bd90      	pop	{r4, r7, pc}
 80031c4:	20000804 	.word	0x20000804

080031c8 <CH395ClearRecvBuf>:
 80031c8:	b580      	push	{r7, lr}
 80031ca:	b082      	sub	sp, #8
 80031cc:	af00      	add	r7, sp, #0
 80031ce:	0002      	movs	r2, r0
 80031d0:	1dfb      	adds	r3, r7, #7
 80031d2:	701a      	strb	r2, [r3, #0]
 80031d4:	202e      	movs	r0, #46	; 0x2e
 80031d6:	f000 fa45 	bl	8003664 <xWriteCH395Cmd>
 80031da:	1dfb      	adds	r3, r7, #7
 80031dc:	781b      	ldrb	r3, [r3, #0]
 80031de:	0018      	movs	r0, r3
 80031e0:	f000 fa68 	bl	80036b4 <xWriteCH395Data>
 80031e4:	4b05      	ldr	r3, [pc, #20]	; (80031fc <CH395ClearRecvBuf+0x34>)
 80031e6:	6818      	ldr	r0, [r3, #0]
 80031e8:	4b04      	ldr	r3, [pc, #16]	; (80031fc <CH395ClearRecvBuf+0x34>)
 80031ea:	889b      	ldrh	r3, [r3, #4]
 80031ec:	2201      	movs	r2, #1
 80031ee:	0019      	movs	r1, r3
 80031f0:	f7fd fcb5 	bl	8000b5e <HAL_GPIO_WritePin>
 80031f4:	46c0      	nop			; (mov r8, r8)
 80031f6:	46bd      	mov	sp, r7
 80031f8:	b002      	add	sp, #8
 80031fa:	bd80      	pop	{r7, pc}
 80031fc:	20000804 	.word	0x20000804

08003200 <CH395GetRecvData>:
 8003200:	b580      	push	{r7, lr}
 8003202:	b084      	sub	sp, #16
 8003204:	af00      	add	r7, sp, #0
 8003206:	603a      	str	r2, [r7, #0]
 8003208:	1dfb      	adds	r3, r7, #7
 800320a:	1c02      	adds	r2, r0, #0
 800320c:	701a      	strb	r2, [r3, #0]
 800320e:	1d3b      	adds	r3, r7, #4
 8003210:	1c0a      	adds	r2, r1, #0
 8003212:	801a      	strh	r2, [r3, #0]
 8003214:	1d3b      	adds	r3, r7, #4
 8003216:	881b      	ldrh	r3, [r3, #0]
 8003218:	2b00      	cmp	r3, #0
 800321a:	d03c      	beq.n	8003296 <CH395GetRecvData+0x96>
 800321c:	203c      	movs	r0, #60	; 0x3c
 800321e:	f000 fa21 	bl	8003664 <xWriteCH395Cmd>
 8003222:	1dfb      	adds	r3, r7, #7
 8003224:	781b      	ldrb	r3, [r3, #0]
 8003226:	0018      	movs	r0, r3
 8003228:	f000 fa44 	bl	80036b4 <xWriteCH395Data>
 800322c:	1d3b      	adds	r3, r7, #4
 800322e:	881b      	ldrh	r3, [r3, #0]
 8003230:	b2db      	uxtb	r3, r3
 8003232:	0018      	movs	r0, r3
 8003234:	f000 fa3e 	bl	80036b4 <xWriteCH395Data>
 8003238:	1d3b      	adds	r3, r7, #4
 800323a:	881b      	ldrh	r3, [r3, #0]
 800323c:	0a1b      	lsrs	r3, r3, #8
 800323e:	b29b      	uxth	r3, r3
 8003240:	b2db      	uxtb	r3, r3
 8003242:	0018      	movs	r0, r3
 8003244:	f000 fa36 	bl	80036b4 <xWriteCH395Data>
 8003248:	2001      	movs	r0, #1
 800324a:	f000 fa57 	bl	80036fc <Delay_us>
 800324e:	230e      	movs	r3, #14
 8003250:	18fb      	adds	r3, r7, r3
 8003252:	2200      	movs	r2, #0
 8003254:	801a      	strh	r2, [r3, #0]
 8003256:	e00e      	b.n	8003276 <CH395GetRecvData+0x76>
 8003258:	f000 fa3e 	bl	80036d8 <xReadCH395Data>
 800325c:	0003      	movs	r3, r0
 800325e:	001a      	movs	r2, r3
 8003260:	683b      	ldr	r3, [r7, #0]
 8003262:	701a      	strb	r2, [r3, #0]
 8003264:	683b      	ldr	r3, [r7, #0]
 8003266:	3301      	adds	r3, #1
 8003268:	603b      	str	r3, [r7, #0]
 800326a:	210e      	movs	r1, #14
 800326c:	187b      	adds	r3, r7, r1
 800326e:	881a      	ldrh	r2, [r3, #0]
 8003270:	187b      	adds	r3, r7, r1
 8003272:	3201      	adds	r2, #1
 8003274:	801a      	strh	r2, [r3, #0]
 8003276:	230e      	movs	r3, #14
 8003278:	18fa      	adds	r2, r7, r3
 800327a:	1d3b      	adds	r3, r7, #4
 800327c:	8812      	ldrh	r2, [r2, #0]
 800327e:	881b      	ldrh	r3, [r3, #0]
 8003280:	429a      	cmp	r2, r3
 8003282:	d3e9      	bcc.n	8003258 <CH395GetRecvData+0x58>
 8003284:	4b06      	ldr	r3, [pc, #24]	; (80032a0 <CH395GetRecvData+0xa0>)
 8003286:	6818      	ldr	r0, [r3, #0]
 8003288:	4b05      	ldr	r3, [pc, #20]	; (80032a0 <CH395GetRecvData+0xa0>)
 800328a:	889b      	ldrh	r3, [r3, #4]
 800328c:	2201      	movs	r2, #1
 800328e:	0019      	movs	r1, r3
 8003290:	f7fd fc65 	bl	8000b5e <HAL_GPIO_WritePin>
 8003294:	e000      	b.n	8003298 <CH395GetRecvData+0x98>
 8003296:	46c0      	nop			; (mov r8, r8)
 8003298:	46bd      	mov	sp, r7
 800329a:	b004      	add	sp, #16
 800329c:	bd80      	pop	{r7, pc}
 800329e:	46c0      	nop			; (mov r8, r8)
 80032a0:	20000804 	.word	0x20000804

080032a4 <CH395OpenSocket>:
 80032a4:	b5b0      	push	{r4, r5, r7, lr}
 80032a6:	b084      	sub	sp, #16
 80032a8:	af00      	add	r7, sp, #0
 80032aa:	0002      	movs	r2, r0
 80032ac:	1dfb      	adds	r3, r7, #7
 80032ae:	701a      	strb	r2, [r3, #0]
 80032b0:	230f      	movs	r3, #15
 80032b2:	18fb      	adds	r3, r7, r3
 80032b4:	2200      	movs	r2, #0
 80032b6:	701a      	strb	r2, [r3, #0]
 80032b8:	230e      	movs	r3, #14
 80032ba:	18fb      	adds	r3, r7, r3
 80032bc:	2200      	movs	r2, #0
 80032be:	701a      	strb	r2, [r3, #0]
 80032c0:	2035      	movs	r0, #53	; 0x35
 80032c2:	f000 f9cf 	bl	8003664 <xWriteCH395Cmd>
 80032c6:	1dfb      	adds	r3, r7, #7
 80032c8:	781b      	ldrb	r3, [r3, #0]
 80032ca:	0018      	movs	r0, r3
 80032cc:	f000 f9f2 	bl	80036b4 <xWriteCH395Data>
 80032d0:	4b13      	ldr	r3, [pc, #76]	; (8003320 <CH395OpenSocket+0x7c>)
 80032d2:	6818      	ldr	r0, [r3, #0]
 80032d4:	4b12      	ldr	r3, [pc, #72]	; (8003320 <CH395OpenSocket+0x7c>)
 80032d6:	889b      	ldrh	r3, [r3, #4]
 80032d8:	2201      	movs	r2, #1
 80032da:	0019      	movs	r1, r3
 80032dc:	f7fd fc3f 	bl	8000b5e <HAL_GPIO_WritePin>
 80032e0:	4b10      	ldr	r3, [pc, #64]	; (8003324 <CH395OpenSocket+0x80>)
 80032e2:	0018      	movs	r0, r3
 80032e4:	f000 fa0a 	bl	80036fc <Delay_us>
 80032e8:	250e      	movs	r5, #14
 80032ea:	197c      	adds	r4, r7, r5
 80032ec:	f7ff fd7c 	bl	8002de8 <CH395GetCmdStatus>
 80032f0:	0003      	movs	r3, r0
 80032f2:	7023      	strb	r3, [r4, #0]
 80032f4:	197b      	adds	r3, r7, r5
 80032f6:	781b      	ldrb	r3, [r3, #0]
 80032f8:	2b10      	cmp	r3, #16
 80032fa:	d109      	bne.n	8003310 <CH395OpenSocket+0x6c>
 80032fc:	220f      	movs	r2, #15
 80032fe:	18bb      	adds	r3, r7, r2
 8003300:	781b      	ldrb	r3, [r3, #0]
 8003302:	18ba      	adds	r2, r7, r2
 8003304:	1c59      	adds	r1, r3, #1
 8003306:	7011      	strb	r1, [r2, #0]
 8003308:	2bc8      	cmp	r3, #200	; 0xc8
 800330a:	d9e9      	bls.n	80032e0 <CH395OpenSocket+0x3c>
 800330c:	23fa      	movs	r3, #250	; 0xfa
 800330e:	e003      	b.n	8003318 <CH395OpenSocket+0x74>
 8003310:	46c0      	nop			; (mov r8, r8)
 8003312:	230e      	movs	r3, #14
 8003314:	18fb      	adds	r3, r7, r3
 8003316:	781b      	ldrb	r3, [r3, #0]
 8003318:	0018      	movs	r0, r3
 800331a:	46bd      	mov	sp, r7
 800331c:	b004      	add	sp, #16
 800331e:	bdb0      	pop	{r4, r5, r7, pc}
 8003320:	20000804 	.word	0x20000804
 8003324:	00001388 	.word	0x00001388

08003328 <CH395TCPListen>:
 8003328:	b5b0      	push	{r4, r5, r7, lr}
 800332a:	b084      	sub	sp, #16
 800332c:	af00      	add	r7, sp, #0
 800332e:	0002      	movs	r2, r0
 8003330:	1dfb      	adds	r3, r7, #7
 8003332:	701a      	strb	r2, [r3, #0]
 8003334:	230f      	movs	r3, #15
 8003336:	18fb      	adds	r3, r7, r3
 8003338:	2200      	movs	r2, #0
 800333a:	701a      	strb	r2, [r3, #0]
 800333c:	230e      	movs	r3, #14
 800333e:	18fb      	adds	r3, r7, r3
 8003340:	2200      	movs	r2, #0
 8003342:	701a      	strb	r2, [r3, #0]
 8003344:	2036      	movs	r0, #54	; 0x36
 8003346:	f000 f98d 	bl	8003664 <xWriteCH395Cmd>
 800334a:	1dfb      	adds	r3, r7, #7
 800334c:	781b      	ldrb	r3, [r3, #0]
 800334e:	0018      	movs	r0, r3
 8003350:	f000 f9b0 	bl	80036b4 <xWriteCH395Data>
 8003354:	4b13      	ldr	r3, [pc, #76]	; (80033a4 <CH395TCPListen+0x7c>)
 8003356:	6818      	ldr	r0, [r3, #0]
 8003358:	4b12      	ldr	r3, [pc, #72]	; (80033a4 <CH395TCPListen+0x7c>)
 800335a:	889b      	ldrh	r3, [r3, #4]
 800335c:	2201      	movs	r2, #1
 800335e:	0019      	movs	r1, r3
 8003360:	f7fd fbfd 	bl	8000b5e <HAL_GPIO_WritePin>
 8003364:	4b10      	ldr	r3, [pc, #64]	; (80033a8 <CH395TCPListen+0x80>)
 8003366:	0018      	movs	r0, r3
 8003368:	f000 f9c8 	bl	80036fc <Delay_us>
 800336c:	250e      	movs	r5, #14
 800336e:	197c      	adds	r4, r7, r5
 8003370:	f7ff fd3a 	bl	8002de8 <CH395GetCmdStatus>
 8003374:	0003      	movs	r3, r0
 8003376:	7023      	strb	r3, [r4, #0]
 8003378:	197b      	adds	r3, r7, r5
 800337a:	781b      	ldrb	r3, [r3, #0]
 800337c:	2b10      	cmp	r3, #16
 800337e:	d109      	bne.n	8003394 <CH395TCPListen+0x6c>
 8003380:	220f      	movs	r2, #15
 8003382:	18bb      	adds	r3, r7, r2
 8003384:	781b      	ldrb	r3, [r3, #0]
 8003386:	18ba      	adds	r2, r7, r2
 8003388:	1c59      	adds	r1, r3, #1
 800338a:	7011      	strb	r1, [r2, #0]
 800338c:	2bc8      	cmp	r3, #200	; 0xc8
 800338e:	d9e9      	bls.n	8003364 <CH395TCPListen+0x3c>
 8003390:	23fa      	movs	r3, #250	; 0xfa
 8003392:	e003      	b.n	800339c <CH395TCPListen+0x74>
 8003394:	46c0      	nop			; (mov r8, r8)
 8003396:	230e      	movs	r3, #14
 8003398:	18fb      	adds	r3, r7, r3
 800339a:	781b      	ldrb	r3, [r3, #0]
 800339c:	0018      	movs	r0, r3
 800339e:	46bd      	mov	sp, r7
 80033a0:	b004      	add	sp, #16
 80033a2:	bdb0      	pop	{r4, r5, r7, pc}
 80033a4:	20000804 	.word	0x20000804
 80033a8:	00001388 	.word	0x00001388

080033ac <CH395TCPDisconnect>:
 80033ac:	b5b0      	push	{r4, r5, r7, lr}
 80033ae:	b084      	sub	sp, #16
 80033b0:	af00      	add	r7, sp, #0
 80033b2:	0002      	movs	r2, r0
 80033b4:	1dfb      	adds	r3, r7, #7
 80033b6:	701a      	strb	r2, [r3, #0]
 80033b8:	230f      	movs	r3, #15
 80033ba:	18fb      	adds	r3, r7, r3
 80033bc:	2200      	movs	r2, #0
 80033be:	701a      	strb	r2, [r3, #0]
 80033c0:	230e      	movs	r3, #14
 80033c2:	18fb      	adds	r3, r7, r3
 80033c4:	2200      	movs	r2, #0
 80033c6:	701a      	strb	r2, [r3, #0]
 80033c8:	2038      	movs	r0, #56	; 0x38
 80033ca:	f000 f94b 	bl	8003664 <xWriteCH395Cmd>
 80033ce:	1dfb      	adds	r3, r7, #7
 80033d0:	781b      	ldrb	r3, [r3, #0]
 80033d2:	0018      	movs	r0, r3
 80033d4:	f000 f96e 	bl	80036b4 <xWriteCH395Data>
 80033d8:	4b13      	ldr	r3, [pc, #76]	; (8003428 <CH395TCPDisconnect+0x7c>)
 80033da:	6818      	ldr	r0, [r3, #0]
 80033dc:	4b12      	ldr	r3, [pc, #72]	; (8003428 <CH395TCPDisconnect+0x7c>)
 80033de:	889b      	ldrh	r3, [r3, #4]
 80033e0:	2201      	movs	r2, #1
 80033e2:	0019      	movs	r1, r3
 80033e4:	f7fd fbbb 	bl	8000b5e <HAL_GPIO_WritePin>
 80033e8:	4b10      	ldr	r3, [pc, #64]	; (800342c <CH395TCPDisconnect+0x80>)
 80033ea:	0018      	movs	r0, r3
 80033ec:	f000 f986 	bl	80036fc <Delay_us>
 80033f0:	250e      	movs	r5, #14
 80033f2:	197c      	adds	r4, r7, r5
 80033f4:	f7ff fcf8 	bl	8002de8 <CH395GetCmdStatus>
 80033f8:	0003      	movs	r3, r0
 80033fa:	7023      	strb	r3, [r4, #0]
 80033fc:	197b      	adds	r3, r7, r5
 80033fe:	781b      	ldrb	r3, [r3, #0]
 8003400:	2b10      	cmp	r3, #16
 8003402:	d109      	bne.n	8003418 <CH395TCPDisconnect+0x6c>
 8003404:	220f      	movs	r2, #15
 8003406:	18bb      	adds	r3, r7, r2
 8003408:	781b      	ldrb	r3, [r3, #0]
 800340a:	18ba      	adds	r2, r7, r2
 800340c:	1c59      	adds	r1, r3, #1
 800340e:	7011      	strb	r1, [r2, #0]
 8003410:	2bc8      	cmp	r3, #200	; 0xc8
 8003412:	d9e9      	bls.n	80033e8 <CH395TCPDisconnect+0x3c>
 8003414:	23fa      	movs	r3, #250	; 0xfa
 8003416:	e003      	b.n	8003420 <CH395TCPDisconnect+0x74>
 8003418:	46c0      	nop			; (mov r8, r8)
 800341a:	230e      	movs	r3, #14
 800341c:	18fb      	adds	r3, r7, r3
 800341e:	781b      	ldrb	r3, [r3, #0]
 8003420:	0018      	movs	r0, r3
 8003422:	46bd      	mov	sp, r7
 8003424:	b004      	add	sp, #16
 8003426:	bdb0      	pop	{r4, r5, r7, pc}
 8003428:	20000804 	.word	0x20000804
 800342c:	00001388 	.word	0x00001388

08003430 <CH395GetSocketInt>:
 8003430:	b5b0      	push	{r4, r5, r7, lr}
 8003432:	b084      	sub	sp, #16
 8003434:	af00      	add	r7, sp, #0
 8003436:	0002      	movs	r2, r0
 8003438:	1dfb      	adds	r3, r7, #7
 800343a:	701a      	strb	r2, [r3, #0]
 800343c:	2030      	movs	r0, #48	; 0x30
 800343e:	f000 f911 	bl	8003664 <xWriteCH395Cmd>
 8003442:	1dfb      	adds	r3, r7, #7
 8003444:	781b      	ldrb	r3, [r3, #0]
 8003446:	0018      	movs	r0, r3
 8003448:	f000 f934 	bl	80036b4 <xWriteCH395Data>
 800344c:	2002      	movs	r0, #2
 800344e:	f000 f955 	bl	80036fc <Delay_us>
 8003452:	250f      	movs	r5, #15
 8003454:	197c      	adds	r4, r7, r5
 8003456:	f000 f93f 	bl	80036d8 <xReadCH395Data>
 800345a:	0003      	movs	r3, r0
 800345c:	7023      	strb	r3, [r4, #0]
 800345e:	4b07      	ldr	r3, [pc, #28]	; (800347c <CH395GetSocketInt+0x4c>)
 8003460:	6818      	ldr	r0, [r3, #0]
 8003462:	4b06      	ldr	r3, [pc, #24]	; (800347c <CH395GetSocketInt+0x4c>)
 8003464:	889b      	ldrh	r3, [r3, #4]
 8003466:	2201      	movs	r2, #1
 8003468:	0019      	movs	r1, r3
 800346a:	f7fd fb78 	bl	8000b5e <HAL_GPIO_WritePin>
 800346e:	197b      	adds	r3, r7, r5
 8003470:	781b      	ldrb	r3, [r3, #0]
 8003472:	0018      	movs	r0, r3
 8003474:	46bd      	mov	sp, r7
 8003476:	b004      	add	sp, #16
 8003478:	bdb0      	pop	{r4, r5, r7, pc}
 800347a:	46c0      	nop			; (mov r8, r8)
 800347c:	20000804 	.word	0x20000804

08003480 <CH395DHCPEnable>:
 8003480:	b5b0      	push	{r4, r5, r7, lr}
 8003482:	b084      	sub	sp, #16
 8003484:	af00      	add	r7, sp, #0
 8003486:	0002      	movs	r2, r0
 8003488:	1dfb      	adds	r3, r7, #7
 800348a:	701a      	strb	r2, [r3, #0]
 800348c:	230f      	movs	r3, #15
 800348e:	18fb      	adds	r3, r7, r3
 8003490:	2200      	movs	r2, #0
 8003492:	701a      	strb	r2, [r3, #0]
 8003494:	2041      	movs	r0, #65	; 0x41
 8003496:	f000 f8e5 	bl	8003664 <xWriteCH395Cmd>
 800349a:	1dfb      	adds	r3, r7, #7
 800349c:	781b      	ldrb	r3, [r3, #0]
 800349e:	0018      	movs	r0, r3
 80034a0:	f000 f908 	bl	80036b4 <xWriteCH395Data>
 80034a4:	4b13      	ldr	r3, [pc, #76]	; (80034f4 <CH395DHCPEnable+0x74>)
 80034a6:	6818      	ldr	r0, [r3, #0]
 80034a8:	4b12      	ldr	r3, [pc, #72]	; (80034f4 <CH395DHCPEnable+0x74>)
 80034aa:	889b      	ldrh	r3, [r3, #4]
 80034ac:	2201      	movs	r2, #1
 80034ae:	0019      	movs	r1, r3
 80034b0:	f7fd fb55 	bl	8000b5e <HAL_GPIO_WritePin>
 80034b4:	4b10      	ldr	r3, [pc, #64]	; (80034f8 <CH395DHCPEnable+0x78>)
 80034b6:	0018      	movs	r0, r3
 80034b8:	f000 f920 	bl	80036fc <Delay_us>
 80034bc:	250e      	movs	r5, #14
 80034be:	197c      	adds	r4, r7, r5
 80034c0:	f7ff fc92 	bl	8002de8 <CH395GetCmdStatus>
 80034c4:	0003      	movs	r3, r0
 80034c6:	7023      	strb	r3, [r4, #0]
 80034c8:	197b      	adds	r3, r7, r5
 80034ca:	781b      	ldrb	r3, [r3, #0]
 80034cc:	2b10      	cmp	r3, #16
 80034ce:	d109      	bne.n	80034e4 <CH395DHCPEnable+0x64>
 80034d0:	220f      	movs	r2, #15
 80034d2:	18bb      	adds	r3, r7, r2
 80034d4:	781b      	ldrb	r3, [r3, #0]
 80034d6:	18ba      	adds	r2, r7, r2
 80034d8:	1c59      	adds	r1, r3, #1
 80034da:	7011      	strb	r1, [r2, #0]
 80034dc:	2bc8      	cmp	r3, #200	; 0xc8
 80034de:	d9e9      	bls.n	80034b4 <CH395DHCPEnable+0x34>
 80034e0:	23fa      	movs	r3, #250	; 0xfa
 80034e2:	e003      	b.n	80034ec <CH395DHCPEnable+0x6c>
 80034e4:	46c0      	nop			; (mov r8, r8)
 80034e6:	230e      	movs	r3, #14
 80034e8:	18fb      	adds	r3, r7, r3
 80034ea:	781b      	ldrb	r3, [r3, #0]
 80034ec:	0018      	movs	r0, r3
 80034ee:	46bd      	mov	sp, r7
 80034f0:	b004      	add	sp, #16
 80034f2:	bdb0      	pop	{r4, r5, r7, pc}
 80034f4:	20000804 	.word	0x20000804
 80034f8:	00004e20 	.word	0x00004e20

080034fc <CH395GetDHCPStatus>:
 80034fc:	b590      	push	{r4, r7, lr}
 80034fe:	b083      	sub	sp, #12
 8003500:	af00      	add	r7, sp, #0
 8003502:	2042      	movs	r0, #66	; 0x42
 8003504:	f000 f8ae 	bl	8003664 <xWriteCH395Cmd>
 8003508:	1dfc      	adds	r4, r7, #7
 800350a:	f000 f8e5 	bl	80036d8 <xReadCH395Data>
 800350e:	0003      	movs	r3, r0
 8003510:	7023      	strb	r3, [r4, #0]
 8003512:	4b07      	ldr	r3, [pc, #28]	; (8003530 <CH395GetDHCPStatus+0x34>)
 8003514:	6818      	ldr	r0, [r3, #0]
 8003516:	4b06      	ldr	r3, [pc, #24]	; (8003530 <CH395GetDHCPStatus+0x34>)
 8003518:	889b      	ldrh	r3, [r3, #4]
 800351a:	2201      	movs	r2, #1
 800351c:	0019      	movs	r1, r3
 800351e:	f7fd fb1e 	bl	8000b5e <HAL_GPIO_WritePin>
 8003522:	1dfb      	adds	r3, r7, #7
 8003524:	781b      	ldrb	r3, [r3, #0]
 8003526:	0018      	movs	r0, r3
 8003528:	46bd      	mov	sp, r7
 800352a:	b003      	add	sp, #12
 800352c:	bd90      	pop	{r4, r7, pc}
 800352e:	46c0      	nop			; (mov r8, r8)
 8003530:	20000804 	.word	0x20000804

08003534 <CH395SetSocketRecvBuf>:
 8003534:	b590      	push	{r4, r7, lr}
 8003536:	b083      	sub	sp, #12
 8003538:	af00      	add	r7, sp, #0
 800353a:	0004      	movs	r4, r0
 800353c:	0008      	movs	r0, r1
 800353e:	0011      	movs	r1, r2
 8003540:	1dfb      	adds	r3, r7, #7
 8003542:	1c22      	adds	r2, r4, #0
 8003544:	701a      	strb	r2, [r3, #0]
 8003546:	1dbb      	adds	r3, r7, #6
 8003548:	1c02      	adds	r2, r0, #0
 800354a:	701a      	strb	r2, [r3, #0]
 800354c:	1d7b      	adds	r3, r7, #5
 800354e:	1c0a      	adds	r2, r1, #0
 8003550:	701a      	strb	r2, [r3, #0]
 8003552:	2052      	movs	r0, #82	; 0x52
 8003554:	f000 f886 	bl	8003664 <xWriteCH395Cmd>
 8003558:	1dfb      	adds	r3, r7, #7
 800355a:	781b      	ldrb	r3, [r3, #0]
 800355c:	0018      	movs	r0, r3
 800355e:	f000 f8a9 	bl	80036b4 <xWriteCH395Data>
 8003562:	1dbb      	adds	r3, r7, #6
 8003564:	781b      	ldrb	r3, [r3, #0]
 8003566:	0018      	movs	r0, r3
 8003568:	f000 f8a4 	bl	80036b4 <xWriteCH395Data>
 800356c:	1d7b      	adds	r3, r7, #5
 800356e:	781b      	ldrb	r3, [r3, #0]
 8003570:	0018      	movs	r0, r3
 8003572:	f000 f89f 	bl	80036b4 <xWriteCH395Data>
 8003576:	46c0      	nop			; (mov r8, r8)
 8003578:	46bd      	mov	sp, r7
 800357a:	b003      	add	sp, #12
 800357c:	bd90      	pop	{r4, r7, pc}

0800357e <CH395SetSocketSendBuf>:
 800357e:	b590      	push	{r4, r7, lr}
 8003580:	b083      	sub	sp, #12
 8003582:	af00      	add	r7, sp, #0
 8003584:	0004      	movs	r4, r0
 8003586:	0008      	movs	r0, r1
 8003588:	0011      	movs	r1, r2
 800358a:	1dfb      	adds	r3, r7, #7
 800358c:	1c22      	adds	r2, r4, #0
 800358e:	701a      	strb	r2, [r3, #0]
 8003590:	1dbb      	adds	r3, r7, #6
 8003592:	1c02      	adds	r2, r0, #0
 8003594:	701a      	strb	r2, [r3, #0]
 8003596:	1d7b      	adds	r3, r7, #5
 8003598:	1c0a      	adds	r2, r1, #0
 800359a:	701a      	strb	r2, [r3, #0]
 800359c:	2053      	movs	r0, #83	; 0x53
 800359e:	f000 f861 	bl	8003664 <xWriteCH395Cmd>
 80035a2:	1dfb      	adds	r3, r7, #7
 80035a4:	781b      	ldrb	r3, [r3, #0]
 80035a6:	0018      	movs	r0, r3
 80035a8:	f000 f884 	bl	80036b4 <xWriteCH395Data>
 80035ac:	1dbb      	adds	r3, r7, #6
 80035ae:	781b      	ldrb	r3, [r3, #0]
 80035b0:	0018      	movs	r0, r3
 80035b2:	f000 f87f 	bl	80036b4 <xWriteCH395Data>
 80035b6:	1d7b      	adds	r3, r7, #5
 80035b8:	781b      	ldrb	r3, [r3, #0]
 80035ba:	0018      	movs	r0, r3
 80035bc:	f000 f87a 	bl	80036b4 <xWriteCH395Data>
 80035c0:	46c0      	nop			; (mov r8, r8)
 80035c2:	46bd      	mov	sp, r7
 80035c4:	b003      	add	sp, #12
 80035c6:	bd90      	pop	{r4, r7, pc}

080035c8 <CH395SetStartPara>:
 80035c8:	b580      	push	{r7, lr}
 80035ca:	b082      	sub	sp, #8
 80035cc:	af00      	add	r7, sp, #0
 80035ce:	6078      	str	r0, [r7, #4]
 80035d0:	2055      	movs	r0, #85	; 0x55
 80035d2:	f000 f847 	bl	8003664 <xWriteCH395Cmd>
 80035d6:	687b      	ldr	r3, [r7, #4]
 80035d8:	b2db      	uxtb	r3, r3
 80035da:	0018      	movs	r0, r3
 80035dc:	f000 f86a 	bl	80036b4 <xWriteCH395Data>
 80035e0:	687b      	ldr	r3, [r7, #4]
 80035e2:	b29b      	uxth	r3, r3
 80035e4:	0a1b      	lsrs	r3, r3, #8
 80035e6:	b29b      	uxth	r3, r3
 80035e8:	b2db      	uxtb	r3, r3
 80035ea:	0018      	movs	r0, r3
 80035ec:	f000 f862 	bl	80036b4 <xWriteCH395Data>
 80035f0:	687b      	ldr	r3, [r7, #4]
 80035f2:	0c1b      	lsrs	r3, r3, #16
 80035f4:	b2db      	uxtb	r3, r3
 80035f6:	0018      	movs	r0, r3
 80035f8:	f000 f85c 	bl	80036b4 <xWriteCH395Data>
 80035fc:	687b      	ldr	r3, [r7, #4]
 80035fe:	0e1b      	lsrs	r3, r3, #24
 8003600:	b2db      	uxtb	r3, r3
 8003602:	0018      	movs	r0, r3
 8003604:	f000 f856 	bl	80036b4 <xWriteCH395Data>
 8003608:	46c0      	nop			; (mov r8, r8)
 800360a:	46bd      	mov	sp, r7
 800360c:	b002      	add	sp, #8
 800360e:	bd80      	pop	{r7, pc}

08003610 <CH395CMDGetGlobIntStatus_ALL>:
 8003610:	b580      	push	{r7, lr}
 8003612:	b082      	sub	sp, #8
 8003614:	af00      	add	r7, sp, #0
 8003616:	2019      	movs	r0, #25
 8003618:	f000 f824 	bl	8003664 <xWriteCH395Cmd>
 800361c:	2002      	movs	r0, #2
 800361e:	f000 f86d 	bl	80036fc <Delay_us>
 8003622:	f000 f859 	bl	80036d8 <xReadCH395Data>
 8003626:	0003      	movs	r3, r0
 8003628:	001a      	movs	r2, r3
 800362a:	1dbb      	adds	r3, r7, #6
 800362c:	801a      	strh	r2, [r3, #0]
 800362e:	f000 f853 	bl	80036d8 <xReadCH395Data>
 8003632:	0003      	movs	r3, r0
 8003634:	b29b      	uxth	r3, r3
 8003636:	021b      	lsls	r3, r3, #8
 8003638:	b299      	uxth	r1, r3
 800363a:	1dbb      	adds	r3, r7, #6
 800363c:	1dba      	adds	r2, r7, #6
 800363e:	8812      	ldrh	r2, [r2, #0]
 8003640:	188a      	adds	r2, r1, r2
 8003642:	801a      	strh	r2, [r3, #0]
 8003644:	4b06      	ldr	r3, [pc, #24]	; (8003660 <CH395CMDGetGlobIntStatus_ALL+0x50>)
 8003646:	6818      	ldr	r0, [r3, #0]
 8003648:	4b05      	ldr	r3, [pc, #20]	; (8003660 <CH395CMDGetGlobIntStatus_ALL+0x50>)
 800364a:	889b      	ldrh	r3, [r3, #4]
 800364c:	2201      	movs	r2, #1
 800364e:	0019      	movs	r1, r3
 8003650:	f7fd fa85 	bl	8000b5e <HAL_GPIO_WritePin>
 8003654:	1dbb      	adds	r3, r7, #6
 8003656:	881b      	ldrh	r3, [r3, #0]
 8003658:	0018      	movs	r0, r3
 800365a:	46bd      	mov	sp, r7
 800365c:	b002      	add	sp, #8
 800365e:	bd80      	pop	{r7, pc}
 8003660:	20000804 	.word	0x20000804

08003664 <xWriteCH395Cmd>:
 8003664:	b580      	push	{r7, lr}
 8003666:	b082      	sub	sp, #8
 8003668:	af00      	add	r7, sp, #0
 800366a:	0002      	movs	r2, r0
 800366c:	1dfb      	adds	r3, r7, #7
 800366e:	701a      	strb	r2, [r3, #0]
 8003670:	4b0e      	ldr	r3, [pc, #56]	; (80036ac <xWriteCH395Cmd+0x48>)
 8003672:	6818      	ldr	r0, [r3, #0]
 8003674:	4b0d      	ldr	r3, [pc, #52]	; (80036ac <xWriteCH395Cmd+0x48>)
 8003676:	889b      	ldrh	r3, [r3, #4]
 8003678:	2201      	movs	r2, #1
 800367a:	0019      	movs	r1, r3
 800367c:	f7fd fa6f 	bl	8000b5e <HAL_GPIO_WritePin>
 8003680:	4b0a      	ldr	r3, [pc, #40]	; (80036ac <xWriteCH395Cmd+0x48>)
 8003682:	6818      	ldr	r0, [r3, #0]
 8003684:	4b09      	ldr	r3, [pc, #36]	; (80036ac <xWriteCH395Cmd+0x48>)
 8003686:	889b      	ldrh	r3, [r3, #4]
 8003688:	2200      	movs	r2, #0
 800368a:	0019      	movs	r1, r3
 800368c:	f7fd fa67 	bl	8000b5e <HAL_GPIO_WritePin>
 8003690:	1df9      	adds	r1, r7, #7
 8003692:	4807      	ldr	r0, [pc, #28]	; (80036b0 <xWriteCH395Cmd+0x4c>)
 8003694:	2364      	movs	r3, #100	; 0x64
 8003696:	2201      	movs	r2, #1
 8003698:	f7fd ffd2 	bl	8001640 <HAL_SPI_Transmit>
 800369c:	2002      	movs	r0, #2
 800369e:	f000 f82d 	bl	80036fc <Delay_us>
 80036a2:	46c0      	nop			; (mov r8, r8)
 80036a4:	46bd      	mov	sp, r7
 80036a6:	b002      	add	sp, #8
 80036a8:	bd80      	pop	{r7, pc}
 80036aa:	46c0      	nop			; (mov r8, r8)
 80036ac:	20000804 	.word	0x20000804
 80036b0:	20001894 	.word	0x20001894

080036b4 <xWriteCH395Data>:
 80036b4:	b580      	push	{r7, lr}
 80036b6:	b082      	sub	sp, #8
 80036b8:	af00      	add	r7, sp, #0
 80036ba:	0002      	movs	r2, r0
 80036bc:	1dfb      	adds	r3, r7, #7
 80036be:	701a      	strb	r2, [r3, #0]
 80036c0:	1df9      	adds	r1, r7, #7
 80036c2:	4804      	ldr	r0, [pc, #16]	; (80036d4 <xWriteCH395Data+0x20>)
 80036c4:	2364      	movs	r3, #100	; 0x64
 80036c6:	2201      	movs	r2, #1
 80036c8:	f7fd ffba 	bl	8001640 <HAL_SPI_Transmit>
 80036cc:	46c0      	nop			; (mov r8, r8)
 80036ce:	46bd      	mov	sp, r7
 80036d0:	b002      	add	sp, #8
 80036d2:	bd80      	pop	{r7, pc}
 80036d4:	20001894 	.word	0x20001894

080036d8 <xReadCH395Data>:
 80036d8:	b580      	push	{r7, lr}
 80036da:	b082      	sub	sp, #8
 80036dc:	af00      	add	r7, sp, #0
 80036de:	1df9      	adds	r1, r7, #7
 80036e0:	4805      	ldr	r0, [pc, #20]	; (80036f8 <xReadCH395Data+0x20>)
 80036e2:	2364      	movs	r3, #100	; 0x64
 80036e4:	2201      	movs	r2, #1
 80036e6:	f7fe f915 	bl	8001914 <HAL_SPI_Receive>
 80036ea:	1dfb      	adds	r3, r7, #7
 80036ec:	781b      	ldrb	r3, [r3, #0]
 80036ee:	0018      	movs	r0, r3
 80036f0:	46bd      	mov	sp, r7
 80036f2:	b002      	add	sp, #8
 80036f4:	bd80      	pop	{r7, pc}
 80036f6:	46c0      	nop			; (mov r8, r8)
 80036f8:	20001894 	.word	0x20001894

080036fc <Delay_us>:
 80036fc:	b580      	push	{r7, lr}
 80036fe:	b084      	sub	sp, #16
 8003700:	af00      	add	r7, sp, #0
 8003702:	6078      	str	r0, [r7, #4]
 8003704:	687b      	ldr	r3, [r7, #4]
 8003706:	015b      	lsls	r3, r3, #5
 8003708:	085b      	lsrs	r3, r3, #1
 800370a:	60fb      	str	r3, [r7, #12]
 800370c:	e000      	b.n	8003710 <Delay_us+0x14>
 800370e:	46c0      	nop			; (mov r8, r8)
 8003710:	68fb      	ldr	r3, [r7, #12]
 8003712:	3b01      	subs	r3, #1
 8003714:	60fb      	str	r3, [r7, #12]
 8003716:	68fb      	ldr	r3, [r7, #12]
 8003718:	2b00      	cmp	r3, #0
 800371a:	d1f8      	bne.n	800370e <Delay_us+0x12>
 800371c:	46c0      	nop			; (mov r8, r8)
 800371e:	46bd      	mov	sp, r7
 8003720:	b004      	add	sp, #16
 8003722:	bd80      	pop	{r7, pc}

08003724 <FS_begin>:
 8003724:	b580      	push	{r7, lr}
 8003726:	b082      	sub	sp, #8
 8003728:	af00      	add	r7, sp, #0
 800372a:	6078      	str	r0, [r7, #4]
 800372c:	6039      	str	r1, [r7, #0]
 800372e:	683b      	ldr	r3, [r7, #0]
 8003730:	4a0a      	ldr	r2, [pc, #40]	; (800375c <FS_begin+0x38>)
 8003732:	4293      	cmp	r3, r2
 8003734:	d80c      	bhi.n	8003750 <FS_begin+0x2c>
 8003736:	683b      	ldr	r3, [r7, #0]
 8003738:	681a      	ldr	r2, [r3, #0]
 800373a:	687b      	ldr	r3, [r7, #4]
 800373c:	605a      	str	r2, [r3, #4]
 800373e:	687b      	ldr	r3, [r7, #4]
 8003740:	685b      	ldr	r3, [r3, #4]
 8003742:	3301      	adds	r3, #1
 8003744:	d004      	beq.n	8003750 <FS_begin+0x2c>
 8003746:	687b      	ldr	r3, [r7, #4]
 8003748:	683a      	ldr	r2, [r7, #0]
 800374a:	601a      	str	r2, [r3, #0]
 800374c:	2301      	movs	r3, #1
 800374e:	e000      	b.n	8003752 <FS_begin+0x2e>
 8003750:	2300      	movs	r3, #0
 8003752:	0018      	movs	r0, r3
 8003754:	46bd      	mov	sp, r7
 8003756:	b002      	add	sp, #8
 8003758:	bd80      	pop	{r7, pc}
 800375a:	46c0      	nop			; (mov r8, r8)
 800375c:	0800fffe 	.word	0x0800fffe

08003760 <FS_open>:
 8003760:	b590      	push	{r4, r7, lr}
 8003762:	b08d      	sub	sp, #52	; 0x34
 8003764:	af00      	add	r7, sp, #0
 8003766:	60f8      	str	r0, [r7, #12]
 8003768:	60b9      	str	r1, [r7, #8]
 800376a:	607a      	str	r2, [r7, #4]
 800376c:	68bb      	ldr	r3, [r7, #8]
 800376e:	685b      	ldr	r3, [r3, #4]
 8003770:	62fb      	str	r3, [r7, #44]	; 0x2c
 8003772:	68bb      	ldr	r3, [r7, #8]
 8003774:	681b      	ldr	r3, [r3, #0]
 8003776:	62bb      	str	r3, [r7, #40]	; 0x28
 8003778:	68bb      	ldr	r3, [r7, #8]
 800377a:	681b      	ldr	r3, [r3, #0]
 800377c:	627b      	str	r3, [r7, #36]	; 0x24
 800377e:	2114      	movs	r1, #20
 8003780:	187b      	adds	r3, r7, r1
 8003782:	2200      	movs	r2, #0
 8003784:	609a      	str	r2, [r3, #8]
 8003786:	187b      	adds	r3, r7, r1
 8003788:	2200      	movs	r2, #0
 800378a:	605a      	str	r2, [r3, #4]
 800378c:	187b      	adds	r3, r7, r1
 800378e:	2200      	movs	r2, #0
 8003790:	601a      	str	r2, [r3, #0]
 8003792:	6abb      	ldr	r3, [r7, #40]	; 0x28
 8003794:	3304      	adds	r3, #4
 8003796:	62bb      	str	r3, [r7, #40]	; 0x28
 8003798:	6afb      	ldr	r3, [r7, #44]	; 0x2c
 800379a:	3b01      	subs	r3, #1
 800379c:	62fb      	str	r3, [r7, #44]	; 0x2c
 800379e:	6abb      	ldr	r3, [r7, #40]	; 0x28
 80037a0:	681a      	ldr	r2, [r3, #0]
 80037a2:	6a7b      	ldr	r3, [r7, #36]	; 0x24
 80037a4:	18d3      	adds	r3, r2, r3
 80037a6:	3308      	adds	r3, #8
 80037a8:	623b      	str	r3, [r7, #32]
 80037aa:	6a3a      	ldr	r2, [r7, #32]
 80037ac:	687b      	ldr	r3, [r7, #4]
 80037ae:	0011      	movs	r1, r2
 80037b0:	0018      	movs	r0, r3
 80037b2:	f7fc fca9 	bl	8000108 <strcmp>
 80037b6:	1e03      	subs	r3, r0, #0
 80037b8:	d116      	bne.n	80037e8 <FS_open+0x88>
 80037ba:	2114      	movs	r1, #20
 80037bc:	187b      	adds	r3, r7, r1
 80037be:	6a3a      	ldr	r2, [r7, #32]
 80037c0:	601a      	str	r2, [r3, #0]
 80037c2:	6abb      	ldr	r3, [r7, #40]	; 0x28
 80037c4:	681a      	ldr	r2, [r3, #0]
 80037c6:	6a7b      	ldr	r3, [r7, #36]	; 0x24
 80037c8:	18d3      	adds	r3, r2, r3
 80037ca:	3304      	adds	r3, #4
 80037cc:	681a      	ldr	r2, [r3, #0]
 80037ce:	6a7b      	ldr	r3, [r7, #36]	; 0x24
 80037d0:	18d3      	adds	r3, r2, r3
 80037d2:	001a      	movs	r2, r3
 80037d4:	187b      	adds	r3, r7, r1
 80037d6:	605a      	str	r2, [r3, #4]
 80037d8:	6abb      	ldr	r3, [r7, #40]	; 0x28
 80037da:	681a      	ldr	r2, [r3, #0]
 80037dc:	6a7b      	ldr	r3, [r7, #36]	; 0x24
 80037de:	18d3      	adds	r3, r2, r3
 80037e0:	681a      	ldr	r2, [r3, #0]
 80037e2:	187b      	adds	r3, r7, r1
 80037e4:	609a      	str	r2, [r3, #8]
 80037e6:	e002      	b.n	80037ee <FS_open+0x8e>
 80037e8:	6afb      	ldr	r3, [r7, #44]	; 0x2c
 80037ea:	2b00      	cmp	r3, #0
 80037ec:	dcd1      	bgt.n	8003792 <FS_open+0x32>
 80037ee:	68fb      	ldr	r3, [r7, #12]
 80037f0:	2214      	movs	r2, #20
 80037f2:	18ba      	adds	r2, r7, r2
 80037f4:	ca13      	ldmia	r2!, {r0, r1, r4}
 80037f6:	c313      	stmia	r3!, {r0, r1, r4}
 80037f8:	68f8      	ldr	r0, [r7, #12]
 80037fa:	46bd      	mov	sp, r7
 80037fc:	b00d      	add	sp, #52	; 0x34
 80037fe:	bd90      	pop	{r4, r7, pc}

08003800 <FS_exists>:
 8003800:	b580      	push	{r7, lr}
 8003802:	b086      	sub	sp, #24
 8003804:	af00      	add	r7, sp, #0
 8003806:	6078      	str	r0, [r7, #4]
 8003808:	6039      	str	r1, [r7, #0]
 800380a:	687b      	ldr	r3, [r7, #4]
 800380c:	681b      	ldr	r3, [r3, #0]
 800380e:	613b      	str	r3, [r7, #16]
 8003810:	687b      	ldr	r3, [r7, #4]
 8003812:	681b      	ldr	r3, [r3, #0]
 8003814:	60fb      	str	r3, [r7, #12]
 8003816:	2300      	movs	r3, #0
 8003818:	617b      	str	r3, [r7, #20]
 800381a:	e015      	b.n	8003848 <FS_exists+0x48>
 800381c:	693b      	ldr	r3, [r7, #16]
 800381e:	3304      	adds	r3, #4
 8003820:	613b      	str	r3, [r7, #16]
 8003822:	693b      	ldr	r3, [r7, #16]
 8003824:	681a      	ldr	r2, [r3, #0]
 8003826:	68fb      	ldr	r3, [r7, #12]
 8003828:	18d3      	adds	r3, r2, r3
 800382a:	3308      	adds	r3, #8
 800382c:	60bb      	str	r3, [r7, #8]
 800382e:	68ba      	ldr	r2, [r7, #8]
 8003830:	683b      	ldr	r3, [r7, #0]
 8003832:	0011      	movs	r1, r2
 8003834:	0018      	movs	r0, r3
 8003836:	f7fc fc67 	bl	8000108 <strcmp>
 800383a:	1e03      	subs	r3, r0, #0
 800383c:	d101      	bne.n	8003842 <FS_exists+0x42>
 800383e:	2301      	movs	r3, #1
 8003840:	e008      	b.n	8003854 <FS_exists+0x54>
 8003842:	697b      	ldr	r3, [r7, #20]
 8003844:	3301      	adds	r3, #1
 8003846:	617b      	str	r3, [r7, #20]
 8003848:	687b      	ldr	r3, [r7, #4]
 800384a:	685b      	ldr	r3, [r3, #4]
 800384c:	697a      	ldr	r2, [r7, #20]
 800384e:	429a      	cmp	r2, r3
 8003850:	d3e4      	bcc.n	800381c <FS_exists+0x1c>
 8003852:	2300      	movs	r3, #0
 8003854:	0018      	movs	r0, r3
 8003856:	46bd      	mov	sp, r7
 8003858:	b006      	add	sp, #24
 800385a:	bd80      	pop	{r7, pc}

0800385c <EEPROM_WriteBytes>:
 800385c:	b5f0      	push	{r4, r5, r6, r7, lr}
 800385e:	b08d      	sub	sp, #52	; 0x34
 8003860:	af00      	add	r7, sp, #0
 8003862:	60f8      	str	r0, [r7, #12]
 8003864:	60b9      	str	r1, [r7, #8]
 8003866:	1dbb      	adds	r3, r7, #6
 8003868:	801a      	strh	r2, [r3, #0]
 800386a:	68fb      	ldr	r3, [r7, #12]
 800386c:	681b      	ldr	r3, [r3, #0]
 800386e:	62bb      	str	r3, [r7, #40]	; 0x28
 8003870:	2618      	movs	r6, #24
 8003872:	19bb      	adds	r3, r7, r6
 8003874:	2200      	movs	r2, #0
 8003876:	601a      	str	r2, [r3, #0]
 8003878:	6aba      	ldr	r2, [r7, #40]	; 0x28
 800387a:	19bb      	adds	r3, r7, r6
 800387c:	605a      	str	r2, [r3, #4]
 800387e:	19bb      	adds	r3, r7, r6
 8003880:	2201      	movs	r2, #1
 8003882:	609a      	str	r2, [r3, #8]
 8003884:	2300      	movs	r3, #0
 8003886:	617b      	str	r3, [r7, #20]
 8003888:	b672      	cpsid	i
 800388a:	f7fc fe6b 	bl	8000564 <HAL_FLASH_Unlock>
 800388e:	2314      	movs	r3, #20
 8003890:	18fa      	adds	r2, r7, r3
 8003892:	19bb      	adds	r3, r7, r6
 8003894:	0011      	movs	r1, r2
 8003896:	0018      	movs	r0, r3
 8003898:	f7fc ff24 	bl	80006e4 <HAL_FLASHEx_Erase>
 800389c:	e036      	b.n	800390c <EEPROM_WriteBytes+0xb0>
 800389e:	2324      	movs	r3, #36	; 0x24
 80038a0:	18fb      	adds	r3, r7, r3
 80038a2:	2204      	movs	r2, #4
 80038a4:	2100      	movs	r1, #0
 80038a6:	0018      	movs	r0, r3
 80038a8:	f002 fca3 	bl	80061f2 <memset>
 80038ac:	232e      	movs	r3, #46	; 0x2e
 80038ae:	18fb      	adds	r3, r7, r3
 80038b0:	2200      	movs	r2, #0
 80038b2:	801a      	strh	r2, [r3, #0]
 80038b4:	e014      	b.n	80038e0 <EEPROM_WriteBytes+0x84>
 80038b6:	202e      	movs	r0, #46	; 0x2e
 80038b8:	183b      	adds	r3, r7, r0
 80038ba:	881b      	ldrh	r3, [r3, #0]
 80038bc:	68ba      	ldr	r2, [r7, #8]
 80038be:	7811      	ldrb	r1, [r2, #0]
 80038c0:	2224      	movs	r2, #36	; 0x24
 80038c2:	18ba      	adds	r2, r7, r2
 80038c4:	54d1      	strb	r1, [r2, r3]
 80038c6:	1dbb      	adds	r3, r7, #6
 80038c8:	881a      	ldrh	r2, [r3, #0]
 80038ca:	1dbb      	adds	r3, r7, #6
 80038cc:	3a01      	subs	r2, #1
 80038ce:	801a      	strh	r2, [r3, #0]
 80038d0:	68bb      	ldr	r3, [r7, #8]
 80038d2:	3301      	adds	r3, #1
 80038d4:	60bb      	str	r3, [r7, #8]
 80038d6:	183b      	adds	r3, r7, r0
 80038d8:	183a      	adds	r2, r7, r0
 80038da:	8812      	ldrh	r2, [r2, #0]
 80038dc:	3201      	adds	r2, #1
 80038de:	801a      	strh	r2, [r3, #0]
 80038e0:	232e      	movs	r3, #46	; 0x2e
 80038e2:	18fb      	adds	r3, r7, r3
 80038e4:	881b      	ldrh	r3, [r3, #0]
 80038e6:	2b03      	cmp	r3, #3
 80038e8:	d803      	bhi.n	80038f2 <EEPROM_WriteBytes+0x96>
 80038ea:	1dbb      	adds	r3, r7, #6
 80038ec:	881b      	ldrh	r3, [r3, #0]
 80038ee:	2b00      	cmp	r3, #0
 80038f0:	d1e1      	bne.n	80038b6 <EEPROM_WriteBytes+0x5a>
 80038f2:	6abb      	ldr	r3, [r7, #40]	; 0x28
 80038f4:	1d1a      	adds	r2, r3, #4
 80038f6:	62ba      	str	r2, [r7, #40]	; 0x28
 80038f8:	0019      	movs	r1, r3
 80038fa:	6a7b      	ldr	r3, [r7, #36]	; 0x24
 80038fc:	001c      	movs	r4, r3
 80038fe:	2300      	movs	r3, #0
 8003900:	001d      	movs	r5, r3
 8003902:	0022      	movs	r2, r4
 8003904:	002b      	movs	r3, r5
 8003906:	2002      	movs	r0, #2
 8003908:	f7fc fd96 	bl	8000438 <HAL_FLASH_Program>
 800390c:	1dbb      	adds	r3, r7, #6
 800390e:	881b      	ldrh	r3, [r3, #0]
 8003910:	2b00      	cmp	r3, #0
 8003912:	d1c4      	bne.n	800389e <EEPROM_WriteBytes+0x42>
 8003914:	f7fc fe4c 	bl	80005b0 <HAL_FLASH_Lock>
 8003918:	b662      	cpsie	i
 800391a:	46c0      	nop			; (mov r8, r8)
 800391c:	46bd      	mov	sp, r7
 800391e:	b00d      	add	sp, #52	; 0x34
 8003920:	bdf0      	pop	{r4, r5, r6, r7, pc}

08003922 <EEPROM_ReadBytes>:
 8003922:	b580      	push	{r7, lr}
 8003924:	b086      	sub	sp, #24
 8003926:	af00      	add	r7, sp, #0
 8003928:	60f8      	str	r0, [r7, #12]
 800392a:	60b9      	str	r1, [r7, #8]
 800392c:	1dbb      	adds	r3, r7, #6
 800392e:	801a      	strh	r2, [r3, #0]
 8003930:	68fb      	ldr	r3, [r7, #12]
 8003932:	681b      	ldr	r3, [r3, #0]
 8003934:	617b      	str	r3, [r7, #20]
 8003936:	e00e      	b.n	8003956 <EEPROM_ReadBytes+0x34>
 8003938:	697b      	ldr	r3, [r7, #20]
 800393a:	781a      	ldrb	r2, [r3, #0]
 800393c:	68bb      	ldr	r3, [r7, #8]
 800393e:	701a      	strb	r2, [r3, #0]
 8003940:	68bb      	ldr	r3, [r7, #8]
 8003942:	3301      	adds	r3, #1
 8003944:	60bb      	str	r3, [r7, #8]
 8003946:	697b      	ldr	r3, [r7, #20]
 8003948:	3301      	adds	r3, #1
 800394a:	617b      	str	r3, [r7, #20]
 800394c:	1dbb      	adds	r3, r7, #6
 800394e:	881a      	ldrh	r2, [r3, #0]
 8003950:	1dbb      	adds	r3, r7, #6
 8003952:	3a01      	subs	r2, #1
 8003954:	801a      	strh	r2, [r3, #0]
 8003956:	1dbb      	adds	r3, r7, #6
 8003958:	881b      	ldrh	r3, [r3, #0]
 800395a:	2b00      	cmp	r3, #0
 800395c:	d1ec      	bne.n	8003938 <EEPROM_ReadBytes+0x16>
 800395e:	46c0      	nop			; (mov r8, r8)
 8003960:	46bd      	mov	sp, r7
 8003962:	b006      	add	sp, #24
 8003964:	bd80      	pop	{r7, pc}
	...

08003968 <onHome>:
 8003968:	b590      	push	{r4, r7, lr}
 800396a:	b083      	sub	sp, #12
 800396c:	af00      	add	r7, sp, #0
 800396e:	6078      	str	r0, [r7, #4]
 8003970:	687b      	ldr	r3, [r7, #4]
 8003972:	1d5c      	adds	r4, r3, #5
 8003974:	0020      	movs	r0, r4
 8003976:	f7fc fbd1 	bl	800011c <strlen>
 800397a:	0003      	movs	r3, r0
 800397c:	18e2      	adds	r2, r4, r3
 800397e:	4b07      	ldr	r3, [pc, #28]	; (800399c <onHome+0x34>)
 8003980:	0010      	movs	r0, r2
 8003982:	0019      	movs	r1, r3
 8003984:	230b      	movs	r3, #11
 8003986:	001a      	movs	r2, r3
 8003988:	f002 fc2a 	bl	80061e0 <memcpy>
 800398c:	687b      	ldr	r3, [r7, #4]
 800398e:	0018      	movs	r0, r3
 8003990:	f000 fd68 	bl	8004464 <HTTPonNotFound>
 8003994:	46c0      	nop			; (mov r8, r8)
 8003996:	46bd      	mov	sp, r7
 8003998:	b003      	add	sp, #12
 800399a:	bd90      	pop	{r4, r7, pc}
 800399c:	08006594 	.word	0x08006594

080039a0 <onSwitch>:
 80039a0:	b5b0      	push	{r4, r5, r7, lr}
 80039a2:	b086      	sub	sp, #24
 80039a4:	af00      	add	r7, sp, #0
 80039a6:	6078      	str	r0, [r7, #4]
 80039a8:	4a24      	ldr	r2, [pc, #144]	; (8003a3c <onSwitch+0x9c>)
 80039aa:	687b      	ldr	r3, [r7, #4]
 80039ac:	0011      	movs	r1, r2
 80039ae:	0018      	movs	r0, r3
 80039b0:	f001 f9c0 	bl	8004d34 <getHTTPArg>
 80039b4:	0003      	movs	r3, r0
 80039b6:	617b      	str	r3, [r7, #20]
 80039b8:	4a21      	ldr	r2, [pc, #132]	; (8003a40 <onSwitch+0xa0>)
 80039ba:	687b      	ldr	r3, [r7, #4]
 80039bc:	0011      	movs	r1, r2
 80039be:	0018      	movs	r0, r3
 80039c0:	f001 f9b8 	bl	8004d34 <getHTTPArg>
 80039c4:	0003      	movs	r3, r0
 80039c6:	613b      	str	r3, [r7, #16]
 80039c8:	697b      	ldr	r3, [r7, #20]
 80039ca:	2b00      	cmp	r3, #0
 80039cc:	d02c      	beq.n	8003a28 <onSwitch+0x88>
 80039ce:	693b      	ldr	r3, [r7, #16]
 80039d0:	2b00      	cmp	r3, #0
 80039d2:	d029      	beq.n	8003a28 <onSwitch+0x88>
 80039d4:	250f      	movs	r5, #15
 80039d6:	197c      	adds	r4, r7, r5
 80039d8:	697b      	ldr	r3, [r7, #20]
 80039da:	0018      	movs	r0, r3
 80039dc:	f001 f9f4 	bl	8004dc8 <atou8>
 80039e0:	0003      	movs	r3, r0
 80039e2:	7023      	strb	r3, [r4, #0]
 80039e4:	230e      	movs	r3, #14
 80039e6:	18fc      	adds	r4, r7, r3
 80039e8:	693b      	ldr	r3, [r7, #16]
 80039ea:	0018      	movs	r0, r3
 80039ec:	f001 f9ec 	bl	8004dc8 <atou8>
 80039f0:	0003      	movs	r3, r0
 80039f2:	7023      	strb	r3, [r4, #0]
 80039f4:	197b      	adds	r3, r7, r5
 80039f6:	781b      	ldrb	r3, [r3, #0]
 80039f8:	2b06      	cmp	r3, #6
 80039fa:	d815      	bhi.n	8003a28 <onSwitch+0x88>
 80039fc:	230e      	movs	r3, #14
 80039fe:	18fb      	adds	r3, r7, r3
 8003a00:	781b      	ldrb	r3, [r3, #0]
 8003a02:	2b06      	cmp	r3, #6
 8003a04:	d810      	bhi.n	8003a28 <onSwitch+0x88>
 8003a06:	230e      	movs	r3, #14
 8003a08:	18fb      	adds	r3, r7, r3
 8003a0a:	781a      	ldrb	r2, [r3, #0]
 8003a0c:	230f      	movs	r3, #15
 8003a0e:	18fb      	adds	r3, r7, r3
 8003a10:	781b      	ldrb	r3, [r3, #0]
 8003a12:	0011      	movs	r1, r2
 8003a14:	0018      	movs	r0, r3
 8003a16:	f002 f91d 	bl	8005c54 <switch_Antenna>
 8003a1a:	4a0a      	ldr	r2, [pc, #40]	; (8003a44 <onSwitch+0xa4>)
 8003a1c:	687b      	ldr	r3, [r7, #4]
 8003a1e:	0011      	movs	r1, r2
 8003a20:	0018      	movs	r0, r3
 8003a22:	f000 fcef 	bl	8004404 <HTTPredirect>
 8003a26:	e006      	b.n	8003a36 <onSwitch+0x96>
 8003a28:	4a07      	ldr	r2, [pc, #28]	; (8003a48 <onSwitch+0xa8>)
 8003a2a:	2396      	movs	r3, #150	; 0x96
 8003a2c:	0059      	lsls	r1, r3, #1
 8003a2e:	687b      	ldr	r3, [r7, #4]
 8003a30:	0018      	movs	r0, r3
 8003a32:	f000 fbad 	bl	8004190 <HTTPSendStr>
 8003a36:	46bd      	mov	sp, r7
 8003a38:	b006      	add	sp, #24
 8003a3a:	bdb0      	pop	{r4, r5, r7, pc}
 8003a3c:	080065a0 	.word	0x080065a0
 8003a40:	080065a8 	.word	0x080065a8
 8003a44:	080065b0 	.word	0x080065b0
 8003a48:	080065b4 	.word	0x080065b4

08003a4c <onGetAlloc>:
 8003a4c:	b5b0      	push	{r4, r5, r7, lr}
 8003a4e:	b084      	sub	sp, #16
 8003a50:	af00      	add	r7, sp, #0
 8003a52:	6078      	str	r0, [r7, #4]
 8003a54:	240f      	movs	r4, #15
 8003a56:	0025      	movs	r5, r4
 8003a58:	193c      	adds	r4, r7, r4
 8003a5a:	f002 f993 	bl	8005d84 <get_Antenna>
 8003a5e:	0003      	movs	r3, r0
 8003a60:	7023      	strb	r3, [r4, #0]
 8003a62:	4b24      	ldr	r3, [pc, #144]	; (8003af4 <onGetAlloc+0xa8>)
 8003a64:	60bb      	str	r3, [r7, #8]
 8003a66:	68ba      	ldr	r2, [r7, #8]
 8003a68:	4b23      	ldr	r3, [pc, #140]	; (8003af8 <onGetAlloc+0xac>)
 8003a6a:	0010      	movs	r0, r2
 8003a6c:	0019      	movs	r1, r3
 8003a6e:	2306      	movs	r3, #6
 8003a70:	001a      	movs	r2, r3
 8003a72:	f002 fbb5 	bl	80061e0 <memcpy>
 8003a76:	68bb      	ldr	r3, [r7, #8]
 8003a78:	3305      	adds	r3, #5
 8003a7a:	60bb      	str	r3, [r7, #8]
 8003a7c:	002c      	movs	r4, r5
 8003a7e:	193b      	adds	r3, r7, r4
 8003a80:	781b      	ldrb	r3, [r3, #0]
 8003a82:	220f      	movs	r2, #15
 8003a84:	4013      	ands	r3, r2
 8003a86:	b2db      	uxtb	r3, r3
 8003a88:	3330      	adds	r3, #48	; 0x30
 8003a8a:	b2da      	uxtb	r2, r3
 8003a8c:	68bb      	ldr	r3, [r7, #8]
 8003a8e:	701a      	strb	r2, [r3, #0]
 8003a90:	68bb      	ldr	r3, [r7, #8]
 8003a92:	3301      	adds	r3, #1
 8003a94:	60bb      	str	r3, [r7, #8]
 8003a96:	68ba      	ldr	r2, [r7, #8]
 8003a98:	4b18      	ldr	r3, [pc, #96]	; (8003afc <onGetAlloc+0xb0>)
 8003a9a:	0010      	movs	r0, r2
 8003a9c:	0019      	movs	r1, r3
 8003a9e:	2307      	movs	r3, #7
 8003aa0:	001a      	movs	r2, r3
 8003aa2:	f002 fb9d 	bl	80061e0 <memcpy>
 8003aa6:	68bb      	ldr	r3, [r7, #8]
 8003aa8:	3306      	adds	r3, #6
 8003aaa:	60bb      	str	r3, [r7, #8]
 8003aac:	193b      	adds	r3, r7, r4
 8003aae:	781b      	ldrb	r3, [r3, #0]
 8003ab0:	091b      	lsrs	r3, r3, #4
 8003ab2:	b2db      	uxtb	r3, r3
 8003ab4:	3330      	adds	r3, #48	; 0x30
 8003ab6:	b2da      	uxtb	r2, r3
 8003ab8:	68bb      	ldr	r3, [r7, #8]
 8003aba:	701a      	strb	r2, [r3, #0]
 8003abc:	68bb      	ldr	r3, [r7, #8]
 8003abe:	3301      	adds	r3, #1
 8003ac0:	60bb      	str	r3, [r7, #8]
 8003ac2:	68ba      	ldr	r2, [r7, #8]
 8003ac4:	4b0e      	ldr	r3, [pc, #56]	; (8003b00 <onGetAlloc+0xb4>)
 8003ac6:	0010      	movs	r0, r2
 8003ac8:	0019      	movs	r1, r3
 8003aca:	2303      	movs	r3, #3
 8003acc:	001a      	movs	r2, r3
 8003ace:	f002 fb87 	bl	80061e0 <memcpy>
 8003ad2:	68bb      	ldr	r3, [r7, #8]
 8003ad4:	3302      	adds	r3, #2
 8003ad6:	60bb      	str	r3, [r7, #8]
 8003ad8:	68bb      	ldr	r3, [r7, #8]
 8003ada:	2200      	movs	r2, #0
 8003adc:	701a      	strb	r2, [r3, #0]
 8003ade:	4a05      	ldr	r2, [pc, #20]	; (8003af4 <onGetAlloc+0xa8>)
 8003ae0:	687b      	ldr	r3, [r7, #4]
 8003ae2:	21c8      	movs	r1, #200	; 0xc8
 8003ae4:	0018      	movs	r0, r3
 8003ae6:	f000 fb53 	bl	8004190 <HTTPSendStr>
 8003aea:	46c0      	nop			; (mov r8, r8)
 8003aec:	46bd      	mov	sp, r7
 8003aee:	b004      	add	sp, #16
 8003af0:	bdb0      	pop	{r4, r5, r7, pc}
 8003af2:	46c0      	nop			; (mov r8, r8)
 8003af4:	200008f4 	.word	0x200008f4
 8003af8:	080065c0 	.word	0x080065c0
 8003afc:	080065c8 	.word	0x080065c8
 8003b00:	080065d0 	.word	0x080065d0

08003b04 <onStatus>:
 8003b04:	b580      	push	{r7, lr}
 8003b06:	b082      	sub	sp, #8
 8003b08:	af00      	add	r7, sp, #0
 8003b0a:	6078      	str	r0, [r7, #4]
 8003b0c:	4a04      	ldr	r2, [pc, #16]	; (8003b20 <onStatus+0x1c>)
 8003b0e:	687b      	ldr	r3, [r7, #4]
 8003b10:	21c8      	movs	r1, #200	; 0xc8
 8003b12:	0018      	movs	r0, r3
 8003b14:	f000 fb3c 	bl	8004190 <HTTPSendStr>
 8003b18:	46c0      	nop			; (mov r8, r8)
 8003b1a:	46bd      	mov	sp, r7
 8003b1c:	b002      	add	sp, #8
 8003b1e:	bd80      	pop	{r7, pc}
 8003b20:	080065d4 	.word	0x080065d4

08003b24 <onReset>:
 8003b24:	b580      	push	{r7, lr}
 8003b26:	b082      	sub	sp, #8
 8003b28:	af00      	add	r7, sp, #0
 8003b2a:	6078      	str	r0, [r7, #4]
 8003b2c:	4a04      	ldr	r2, [pc, #16]	; (8003b40 <onReset+0x1c>)
 8003b2e:	687b      	ldr	r3, [r7, #4]
 8003b30:	21c8      	movs	r1, #200	; 0xc8
 8003b32:	0018      	movs	r0, r3
 8003b34:	f000 fb2c 	bl	8004190 <HTTPSendStr>
 8003b38:	46c0      	nop			; (mov r8, r8)
 8003b3a:	46bd      	mov	sp, r7
 8003b3c:	b002      	add	sp, #8
 8003b3e:	bd80      	pop	{r7, pc}
 8003b40:	080065e0 	.word	0x080065e0

08003b44 <onSetLabel>:
 8003b44:	b590      	push	{r4, r7, lr}
 8003b46:	b087      	sub	sp, #28
 8003b48:	af00      	add	r7, sp, #0
 8003b4a:	6078      	str	r0, [r7, #4]
 8003b4c:	2308      	movs	r3, #8
 8003b4e:	18fb      	adds	r3, r7, r3
 8003b50:	4a29      	ldr	r2, [pc, #164]	; (8003bf8 <onSetLabel+0xb4>)
 8003b52:	601a      	str	r2, [r3, #0]
 8003b54:	2200      	movs	r2, #0
 8003b56:	711a      	strb	r2, [r3, #4]
 8003b58:	687b      	ldr	r3, [r7, #4]
 8003b5a:	2245      	movs	r2, #69	; 0x45
 8003b5c:	5c9b      	ldrb	r3, [r3, r2]
 8003b5e:	2b00      	cmp	r3, #0
 8003b60:	d107      	bne.n	8003b72 <onSetLabel+0x2e>
 8003b62:	4a26      	ldr	r2, [pc, #152]	; (8003bfc <onSetLabel+0xb8>)
 8003b64:	2396      	movs	r3, #150	; 0x96
 8003b66:	0059      	lsls	r1, r3, #1
 8003b68:	687b      	ldr	r3, [r7, #4]
 8003b6a:	0018      	movs	r0, r3
 8003b6c:	f000 fb10 	bl	8004190 <HTTPSendStr>
 8003b70:	e03e      	b.n	8003bf0 <onSetLabel+0xac>
 8003b72:	2317      	movs	r3, #23
 8003b74:	18fb      	adds	r3, r7, r3
 8003b76:	2201      	movs	r2, #1
 8003b78:	701a      	strb	r2, [r3, #0]
 8003b7a:	e028      	b.n	8003bce <onSetLabel+0x8a>
 8003b7c:	2317      	movs	r3, #23
 8003b7e:	18fb      	adds	r3, r7, r3
 8003b80:	781b      	ldrb	r3, [r3, #0]
 8003b82:	b29a      	uxth	r2, r3
 8003b84:	2408      	movs	r4, #8
 8003b86:	193b      	adds	r3, r7, r4
 8003b88:	3303      	adds	r3, #3
 8003b8a:	0019      	movs	r1, r3
 8003b8c:	0010      	movs	r0, r2
 8003b8e:	f001 f95e 	bl	8004e4e <u16toa>
 8003b92:	193a      	adds	r2, r7, r4
 8003b94:	687b      	ldr	r3, [r7, #4]
 8003b96:	0011      	movs	r1, r2
 8003b98:	0018      	movs	r0, r3
 8003b9a:	f001 f8cb 	bl	8004d34 <getHTTPArg>
 8003b9e:	0003      	movs	r3, r0
 8003ba0:	613b      	str	r3, [r7, #16]
 8003ba2:	693b      	ldr	r3, [r7, #16]
 8003ba4:	2b00      	cmp	r3, #0
 8003ba6:	d00c      	beq.n	8003bc2 <onSetLabel+0x7e>
 8003ba8:	2317      	movs	r3, #23
 8003baa:	18fb      	adds	r3, r7, r3
 8003bac:	781b      	ldrb	r3, [r3, #0]
 8003bae:	3b01      	subs	r3, #1
 8003bb0:	011a      	lsls	r2, r3, #4
 8003bb2:	4b13      	ldr	r3, [pc, #76]	; (8003c00 <onSetLabel+0xbc>)
 8003bb4:	18d3      	adds	r3, r2, r3
 8003bb6:	3301      	adds	r3, #1
 8003bb8:	6939      	ldr	r1, [r7, #16]
 8003bba:	2210      	movs	r2, #16
 8003bbc:	0018      	movs	r0, r3
 8003bbe:	f002 fb6b 	bl	8006298 <strncpy>
 8003bc2:	2217      	movs	r2, #23
 8003bc4:	18bb      	adds	r3, r7, r2
 8003bc6:	18ba      	adds	r2, r7, r2
 8003bc8:	7812      	ldrb	r2, [r2, #0]
 8003bca:	3201      	adds	r2, #1
 8003bcc:	701a      	strb	r2, [r3, #0]
 8003bce:	2317      	movs	r3, #23
 8003bd0:	18fb      	adds	r3, r7, r3
 8003bd2:	781b      	ldrb	r3, [r3, #0]
 8003bd4:	2b06      	cmp	r3, #6
 8003bd6:	d9d1      	bls.n	8003b7c <onSetLabel+0x38>
 8003bd8:	4909      	ldr	r1, [pc, #36]	; (8003c00 <onSetLabel+0xbc>)
 8003bda:	4b0a      	ldr	r3, [pc, #40]	; (8003c04 <onSetLabel+0xc0>)
 8003bdc:	2261      	movs	r2, #97	; 0x61
 8003bde:	0018      	movs	r0, r3
 8003be0:	f7ff fe3c 	bl	800385c <EEPROM_WriteBytes>
 8003be4:	4a08      	ldr	r2, [pc, #32]	; (8003c08 <onSetLabel+0xc4>)
 8003be6:	687b      	ldr	r3, [r7, #4]
 8003be8:	0011      	movs	r1, r2
 8003bea:	0018      	movs	r0, r3
 8003bec:	f000 fc0a 	bl	8004404 <HTTPredirect>
 8003bf0:	46bd      	mov	sp, r7
 8003bf2:	b007      	add	sp, #28
 8003bf4:	bd90      	pop	{r4, r7, pc}
 8003bf6:	46c0      	nop			; (mov r8, r8)
 8003bf8:	00746e61 	.word	0x00746e61
 8003bfc:	080065e8 	.word	0x080065e8
 8003c00:	200017f8 	.word	0x200017f8
 8003c04:	2000080c 	.word	0x2000080c
 8003c08:	080065b0 	.word	0x080065b0

08003c0c <onGetLabel>:
 8003c0c:	b590      	push	{r4, r7, lr}
 8003c0e:	b085      	sub	sp, #20
 8003c10:	af00      	add	r7, sp, #0
 8003c12:	6078      	str	r0, [r7, #4]
 8003c14:	4b26      	ldr	r3, [pc, #152]	; (8003cb0 <onGetLabel+0xa4>)
 8003c16:	60bb      	str	r3, [r7, #8]
 8003c18:	230f      	movs	r3, #15
 8003c1a:	18fb      	adds	r3, r7, r3
 8003c1c:	2200      	movs	r2, #0
 8003c1e:	701a      	strb	r2, [r3, #0]
 8003c20:	e036      	b.n	8003c90 <onGetLabel+0x84>
 8003c22:	4a24      	ldr	r2, [pc, #144]	; (8003cb4 <onGetLabel+0xa8>)
 8003c24:	68bb      	ldr	r3, [r7, #8]
 8003c26:	0011      	movs	r1, r2
 8003c28:	0018      	movs	r0, r3
 8003c2a:	f001 f985 	bl	8004f38 <strcpy_f>
 8003c2e:	0003      	movs	r3, r0
 8003c30:	60bb      	str	r3, [r7, #8]
 8003c32:	210f      	movs	r1, #15
 8003c34:	187b      	adds	r3, r7, r1
 8003c36:	781b      	ldrb	r3, [r3, #0]
 8003c38:	3331      	adds	r3, #49	; 0x31
 8003c3a:	b2da      	uxtb	r2, r3
 8003c3c:	68bb      	ldr	r3, [r7, #8]
 8003c3e:	701a      	strb	r2, [r3, #0]
 8003c40:	68bb      	ldr	r3, [r7, #8]
 8003c42:	3301      	adds	r3, #1
 8003c44:	60bb      	str	r3, [r7, #8]
 8003c46:	68bb      	ldr	r3, [r7, #8]
 8003c48:	223d      	movs	r2, #61	; 0x3d
 8003c4a:	701a      	strb	r2, [r3, #0]
 8003c4c:	68bb      	ldr	r3, [r7, #8]
 8003c4e:	3301      	adds	r3, #1
 8003c50:	60bb      	str	r3, [r7, #8]
 8003c52:	000c      	movs	r4, r1
 8003c54:	187b      	adds	r3, r7, r1
 8003c56:	781b      	ldrb	r3, [r3, #0]
 8003c58:	011a      	lsls	r2, r3, #4
 8003c5a:	4b17      	ldr	r3, [pc, #92]	; (8003cb8 <onGetLabel+0xac>)
 8003c5c:	18d3      	adds	r3, r2, r3
 8003c5e:	1c59      	adds	r1, r3, #1
 8003c60:	68bb      	ldr	r3, [r7, #8]
 8003c62:	2210      	movs	r2, #16
 8003c64:	0018      	movs	r0, r3
 8003c66:	f001 f983 	bl	8004f70 <strncpy_f>
 8003c6a:	0003      	movs	r3, r0
 8003c6c:	60bb      	str	r3, [r7, #8]
 8003c6e:	0021      	movs	r1, r4
 8003c70:	187b      	adds	r3, r7, r1
 8003c72:	781b      	ldrb	r3, [r3, #0]
 8003c74:	2b05      	cmp	r3, #5
 8003c76:	d005      	beq.n	8003c84 <onGetLabel+0x78>
 8003c78:	68bb      	ldr	r3, [r7, #8]
 8003c7a:	2226      	movs	r2, #38	; 0x26
 8003c7c:	701a      	strb	r2, [r3, #0]
 8003c7e:	68bb      	ldr	r3, [r7, #8]
 8003c80:	3301      	adds	r3, #1
 8003c82:	60bb      	str	r3, [r7, #8]
 8003c84:	220f      	movs	r2, #15
 8003c86:	18bb      	adds	r3, r7, r2
 8003c88:	18ba      	adds	r2, r7, r2
 8003c8a:	7812      	ldrb	r2, [r2, #0]
 8003c8c:	3201      	adds	r2, #1
 8003c8e:	701a      	strb	r2, [r3, #0]
 8003c90:	230f      	movs	r3, #15
 8003c92:	18fb      	adds	r3, r7, r3
 8003c94:	781b      	ldrb	r3, [r3, #0]
 8003c96:	2b05      	cmp	r3, #5
 8003c98:	d9c3      	bls.n	8003c22 <onGetLabel+0x16>
 8003c9a:	4a05      	ldr	r2, [pc, #20]	; (8003cb0 <onGetLabel+0xa4>)
 8003c9c:	687b      	ldr	r3, [r7, #4]
 8003c9e:	21c8      	movs	r1, #200	; 0xc8
 8003ca0:	0018      	movs	r0, r3
 8003ca2:	f000 fa75 	bl	8004190 <HTTPSendStr>
 8003ca6:	46c0      	nop			; (mov r8, r8)
 8003ca8:	46bd      	mov	sp, r7
 8003caa:	b005      	add	sp, #20
 8003cac:	bd90      	pop	{r4, r7, pc}
 8003cae:	46c0      	nop			; (mov r8, r8)
 8003cb0:	20000900 	.word	0x20000900
 8003cb4:	080065f4 	.word	0x080065f4
 8003cb8:	200017f8 	.word	0x200017f8

08003cbc <resetHTTPParseState>:
 8003cbc:	b580      	push	{r7, lr}
 8003cbe:	b082      	sub	sp, #8
 8003cc0:	af00      	add	r7, sp, #0
 8003cc2:	6078      	str	r0, [r7, #4]
 8003cc4:	687b      	ldr	r3, [r7, #4]
 8003cc6:	2200      	movs	r2, #0
 8003cc8:	701a      	strb	r2, [r3, #0]
 8003cca:	687b      	ldr	r3, [r7, #4]
 8003ccc:	2245      	movs	r2, #69	; 0x45
 8003cce:	2100      	movs	r1, #0
 8003cd0:	5499      	strb	r1, [r3, r2]
 8003cd2:	687b      	ldr	r3, [r7, #4]
 8003cd4:	2200      	movs	r2, #0
 8003cd6:	711a      	strb	r2, [r3, #4]
 8003cd8:	687b      	ldr	r3, [r7, #4]
 8003cda:	2200      	movs	r2, #0
 8003cdc:	70da      	strb	r2, [r3, #3]
 8003cde:	687a      	ldr	r2, [r7, #4]
 8003ce0:	23b4      	movs	r3, #180	; 0xb4
 8003ce2:	005b      	lsls	r3, r3, #1
 8003ce4:	2100      	movs	r1, #0
 8003ce6:	54d1      	strb	r1, [r2, r3]
 8003ce8:	687a      	ldr	r2, [r7, #4]
 8003cea:	23ac      	movs	r3, #172	; 0xac
 8003cec:	005b      	lsls	r3, r3, #1
 8003cee:	2100      	movs	r1, #0
 8003cf0:	54d1      	strb	r1, [r2, r3]
 8003cf2:	687a      	ldr	r2, [r7, #4]
 8003cf4:	23b0      	movs	r3, #176	; 0xb0
 8003cf6:	005b      	lsls	r3, r3, #1
 8003cf8:	2100      	movs	r1, #0
 8003cfa:	52d1      	strh	r1, [r2, r3]
 8003cfc:	687a      	ldr	r2, [r7, #4]
 8003cfe:	23ae      	movs	r3, #174	; 0xae
 8003d00:	005b      	lsls	r3, r3, #1
 8003d02:	4903      	ldr	r1, [pc, #12]	; (8003d10 <resetHTTPParseState+0x54>)
 8003d04:	50d1      	str	r1, [r2, r3]
 8003d06:	46c0      	nop			; (mov r8, r8)
 8003d08:	46bd      	mov	sp, r7
 8003d0a:	b002      	add	sp, #8
 8003d0c:	bd80      	pop	{r7, pc}
 8003d0e:	46c0      	nop			; (mov r8, r8)
 8003d10:	20001568 	.word	0x20001568

08003d14 <HTTPGetContentType>:
 8003d14:	b580      	push	{r7, lr}
 8003d16:	b082      	sub	sp, #8
 8003d18:	af00      	add	r7, sp, #0
 8003d1a:	6078      	str	r0, [r7, #4]
 8003d1c:	687b      	ldr	r3, [r7, #4]
 8003d1e:	0018      	movs	r0, r3
 8003d20:	f7fc f9fc 	bl	800011c <strlen>
 8003d24:	0003      	movs	r3, r0
 8003d26:	2b03      	cmp	r3, #3
 8003d28:	d800      	bhi.n	8003d2c <HTTPGetContentType+0x18>
 8003d2a:	e087      	b.n	8003e3c <HTTPGetContentType+0x128>
 8003d2c:	687b      	ldr	r3, [r7, #4]
 8003d2e:	0018      	movs	r0, r3
 8003d30:	f7fc f9f4 	bl	800011c <strlen>
 8003d34:	0003      	movs	r3, r0
 8003d36:	3b05      	subs	r3, #5
 8003d38:	687a      	ldr	r2, [r7, #4]
 8003d3a:	18d3      	adds	r3, r2, r3
 8003d3c:	4a42      	ldr	r2, [pc, #264]	; (8003e48 <HTTPGetContentType+0x134>)
 8003d3e:	0011      	movs	r1, r2
 8003d40:	0018      	movs	r0, r3
 8003d42:	f7fc f9e1 	bl	8000108 <strcmp>
 8003d46:	1e03      	subs	r3, r0, #0
 8003d48:	d101      	bne.n	8003d4e <HTTPGetContentType+0x3a>
 8003d4a:	4b40      	ldr	r3, [pc, #256]	; (8003e4c <HTTPGetContentType+0x138>)
 8003d4c:	e077      	b.n	8003e3e <HTTPGetContentType+0x12a>
 8003d4e:	687b      	ldr	r3, [r7, #4]
 8003d50:	0018      	movs	r0, r3
 8003d52:	f7fc f9e3 	bl	800011c <strlen>
 8003d56:	0003      	movs	r3, r0
 8003d58:	3b04      	subs	r3, #4
 8003d5a:	687a      	ldr	r2, [r7, #4]
 8003d5c:	18d3      	adds	r3, r2, r3
 8003d5e:	4a3c      	ldr	r2, [pc, #240]	; (8003e50 <HTTPGetContentType+0x13c>)
 8003d60:	0011      	movs	r1, r2
 8003d62:	0018      	movs	r0, r3
 8003d64:	f7fc f9d0 	bl	8000108 <strcmp>
 8003d68:	1e03      	subs	r3, r0, #0
 8003d6a:	d101      	bne.n	8003d70 <HTTPGetContentType+0x5c>
 8003d6c:	4b37      	ldr	r3, [pc, #220]	; (8003e4c <HTTPGetContentType+0x138>)
 8003d6e:	e066      	b.n	8003e3e <HTTPGetContentType+0x12a>
 8003d70:	687b      	ldr	r3, [r7, #4]
 8003d72:	0018      	movs	r0, r3
 8003d74:	f7fc f9d2 	bl	800011c <strlen>
 8003d78:	0003      	movs	r3, r0
 8003d7a:	3b04      	subs	r3, #4
 8003d7c:	687a      	ldr	r2, [r7, #4]
 8003d7e:	18d3      	adds	r3, r2, r3
 8003d80:	4a34      	ldr	r2, [pc, #208]	; (8003e54 <HTTPGetContentType+0x140>)
 8003d82:	0011      	movs	r1, r2
 8003d84:	0018      	movs	r0, r3
 8003d86:	f7fc f9bf 	bl	8000108 <strcmp>
 8003d8a:	1e03      	subs	r3, r0, #0
 8003d8c:	d101      	bne.n	8003d92 <HTTPGetContentType+0x7e>
 8003d8e:	4b32      	ldr	r3, [pc, #200]	; (8003e58 <HTTPGetContentType+0x144>)
 8003d90:	e055      	b.n	8003e3e <HTTPGetContentType+0x12a>
 8003d92:	687b      	ldr	r3, [r7, #4]
 8003d94:	0018      	movs	r0, r3
 8003d96:	f7fc f9c1 	bl	800011c <strlen>
 8003d9a:	0003      	movs	r3, r0
 8003d9c:	3b03      	subs	r3, #3
 8003d9e:	687a      	ldr	r2, [r7, #4]
 8003da0:	18d3      	adds	r3, r2, r3
 8003da2:	4a2e      	ldr	r2, [pc, #184]	; (8003e5c <HTTPGetContentType+0x148>)
 8003da4:	0011      	movs	r1, r2
 8003da6:	0018      	movs	r0, r3
 8003da8:	f7fc f9ae 	bl	8000108 <strcmp>
 8003dac:	1e03      	subs	r3, r0, #0
 8003dae:	d101      	bne.n	8003db4 <HTTPGetContentType+0xa0>
 8003db0:	4b2b      	ldr	r3, [pc, #172]	; (8003e60 <HTTPGetContentType+0x14c>)
 8003db2:	e044      	b.n	8003e3e <HTTPGetContentType+0x12a>
 8003db4:	687b      	ldr	r3, [r7, #4]
 8003db6:	0018      	movs	r0, r3
 8003db8:	f7fc f9b0 	bl	800011c <strlen>
 8003dbc:	0003      	movs	r3, r0
 8003dbe:	3b04      	subs	r3, #4
 8003dc0:	687a      	ldr	r2, [r7, #4]
 8003dc2:	18d3      	adds	r3, r2, r3
 8003dc4:	4a27      	ldr	r2, [pc, #156]	; (8003e64 <HTTPGetContentType+0x150>)
 8003dc6:	0011      	movs	r1, r2
 8003dc8:	0018      	movs	r0, r3
 8003dca:	f7fc f99d 	bl	8000108 <strcmp>
 8003dce:	1e03      	subs	r3, r0, #0
 8003dd0:	d101      	bne.n	8003dd6 <HTTPGetContentType+0xc2>
 8003dd2:	4b25      	ldr	r3, [pc, #148]	; (8003e68 <HTTPGetContentType+0x154>)
 8003dd4:	e033      	b.n	8003e3e <HTTPGetContentType+0x12a>
 8003dd6:	687b      	ldr	r3, [r7, #4]
 8003dd8:	0018      	movs	r0, r3
 8003dda:	f7fc f99f 	bl	800011c <strlen>
 8003dde:	0003      	movs	r3, r0
 8003de0:	3b04      	subs	r3, #4
 8003de2:	687a      	ldr	r2, [r7, #4]
 8003de4:	18d3      	adds	r3, r2, r3
 8003de6:	4a21      	ldr	r2, [pc, #132]	; (8003e6c <HTTPGetContentType+0x158>)
 8003de8:	0011      	movs	r1, r2
 8003dea:	0018      	movs	r0, r3
 8003dec:	f7fc f98c 	bl	8000108 <strcmp>
 8003df0:	1e03      	subs	r3, r0, #0
 8003df2:	d101      	bne.n	8003df8 <HTTPGetContentType+0xe4>
 8003df4:	4b1e      	ldr	r3, [pc, #120]	; (8003e70 <HTTPGetContentType+0x15c>)
 8003df6:	e022      	b.n	8003e3e <HTTPGetContentType+0x12a>
 8003df8:	687b      	ldr	r3, [r7, #4]
 8003dfa:	0018      	movs	r0, r3
 8003dfc:	f7fc f98e 	bl	800011c <strlen>
 8003e00:	0003      	movs	r3, r0
 8003e02:	3b05      	subs	r3, #5
 8003e04:	687a      	ldr	r2, [r7, #4]
 8003e06:	18d3      	adds	r3, r2, r3
 8003e08:	4a1a      	ldr	r2, [pc, #104]	; (8003e74 <HTTPGetContentType+0x160>)
 8003e0a:	0011      	movs	r1, r2
 8003e0c:	0018      	movs	r0, r3
 8003e0e:	f7fc f97b 	bl	8000108 <strcmp>
 8003e12:	1e03      	subs	r3, r0, #0
 8003e14:	d101      	bne.n	8003e1a <HTTPGetContentType+0x106>
 8003e16:	4b16      	ldr	r3, [pc, #88]	; (8003e70 <HTTPGetContentType+0x15c>)
 8003e18:	e011      	b.n	8003e3e <HTTPGetContentType+0x12a>
 8003e1a:	687b      	ldr	r3, [r7, #4]
 8003e1c:	0018      	movs	r0, r3
 8003e1e:	f7fc f97d 	bl	800011c <strlen>
 8003e22:	0003      	movs	r3, r0
 8003e24:	3b04      	subs	r3, #4
 8003e26:	687a      	ldr	r2, [r7, #4]
 8003e28:	18d3      	adds	r3, r2, r3
 8003e2a:	4a13      	ldr	r2, [pc, #76]	; (8003e78 <HTTPGetContentType+0x164>)
 8003e2c:	0011      	movs	r1, r2
 8003e2e:	0018      	movs	r0, r3
 8003e30:	f7fc f96a 	bl	8000108 <strcmp>
 8003e34:	1e03      	subs	r3, r0, #0
 8003e36:	d101      	bne.n	8003e3c <HTTPGetContentType+0x128>
 8003e38:	4b10      	ldr	r3, [pc, #64]	; (8003e7c <HTTPGetContentType+0x168>)
 8003e3a:	e000      	b.n	8003e3e <HTTPGetContentType+0x12a>
 8003e3c:	4b10      	ldr	r3, [pc, #64]	; (8003e80 <HTTPGetContentType+0x16c>)
 8003e3e:	0018      	movs	r0, r3
 8003e40:	46bd      	mov	sp, r7
 8003e42:	b002      	add	sp, #8
 8003e44:	bd80      	pop	{r7, pc}
 8003e46:	46c0      	nop			; (mov r8, r8)
 8003e48:	08006634 	.word	0x08006634
 8003e4c:	080067b0 	.word	0x080067b0
 8003e50:	0800663c 	.word	0x0800663c
 8003e54:	08006644 	.word	0x08006644
 8003e58:	080067bc 	.word	0x080067bc
 8003e5c:	0800664c 	.word	0x0800664c
 8003e60:	080067c8 	.word	0x080067c8
 8003e64:	08006650 	.word	0x08006650
 8003e68:	080067e0 	.word	0x080067e0
 8003e6c:	08006658 	.word	0x08006658
 8003e70:	080067ec 	.word	0x080067ec
 8003e74:	08006660 	.word	0x08006660
 8003e78:	08006668 	.word	0x08006668
 8003e7c:	080067f8 	.word	0x080067f8
 8003e80:	080067a4 	.word	0x080067a4

08003e84 <HTTPSendFile>:
 8003e84:	b082      	sub	sp, #8
 8003e86:	b590      	push	{r4, r7, lr}
 8003e88:	b08f      	sub	sp, #60	; 0x3c
 8003e8a:	af00      	add	r7, sp, #0
 8003e8c:	6078      	str	r0, [r7, #4]
 8003e8e:	6039      	str	r1, [r7, #0]
 8003e90:	2048      	movs	r0, #72	; 0x48
 8003e92:	1839      	adds	r1, r7, r0
 8003e94:	600a      	str	r2, [r1, #0]
 8003e96:	604b      	str	r3, [r1, #4]
 8003e98:	687a      	ldr	r2, [r7, #4]
 8003e9a:	23ae      	movs	r3, #174	; 0xae
 8003e9c:	005b      	lsls	r3, r3, #1
 8003e9e:	58d3      	ldr	r3, [r2, r3]
 8003ea0:	633b      	str	r3, [r7, #48]	; 0x30
 8003ea2:	232f      	movs	r3, #47	; 0x2f
 8003ea4:	18fb      	adds	r3, r7, r3
 8003ea6:	2200      	movs	r2, #0
 8003ea8:	701a      	strb	r2, [r3, #0]
 8003eaa:	183b      	adds	r3, r7, r0
 8003eac:	681c      	ldr	r4, [r3, #0]
 8003eae:	183b      	adds	r3, r7, r0
 8003eb0:	681b      	ldr	r3, [r3, #0]
 8003eb2:	0018      	movs	r0, r3
 8003eb4:	f7fc f932 	bl	800011c <strlen>
 8003eb8:	0003      	movs	r3, r0
 8003eba:	3b03      	subs	r3, #3
 8003ebc:	18e3      	adds	r3, r4, r3
 8003ebe:	4aa9      	ldr	r2, [pc, #676]	; (8004164 <HTTPSendFile+0x2e0>)
 8003ec0:	0011      	movs	r1, r2
 8003ec2:	0018      	movs	r0, r3
 8003ec4:	f7fc f920 	bl	8000108 <strcmp>
 8003ec8:	1e03      	subs	r3, r0, #0
 8003eca:	d11c      	bne.n	8003f06 <HTTPSendFile+0x82>
 8003ecc:	232f      	movs	r3, #47	; 0x2f
 8003ece:	18fb      	adds	r3, r7, r3
 8003ed0:	2201      	movs	r2, #1
 8003ed2:	701a      	strb	r2, [r3, #0]
 8003ed4:	2348      	movs	r3, #72	; 0x48
 8003ed6:	18fb      	adds	r3, r7, r3
 8003ed8:	681a      	ldr	r2, [r3, #0]
 8003eda:	240c      	movs	r4, #12
 8003edc:	193b      	adds	r3, r7, r4
 8003ede:	0011      	movs	r1, r2
 8003ee0:	0018      	movs	r0, r3
 8003ee2:	f002 f9aa 	bl	800623a <strcpy>
 8003ee6:	193b      	adds	r3, r7, r4
 8003ee8:	0018      	movs	r0, r3
 8003eea:	f7fc f917 	bl	800011c <strlen>
 8003eee:	0003      	movs	r3, r0
 8003ef0:	3b03      	subs	r3, #3
 8003ef2:	193a      	adds	r2, r7, r4
 8003ef4:	2100      	movs	r1, #0
 8003ef6:	54d1      	strb	r1, [r2, r3]
 8003ef8:	193b      	adds	r3, r7, r4
 8003efa:	0018      	movs	r0, r3
 8003efc:	f7ff ff0a 	bl	8003d14 <HTTPGetContentType>
 8003f00:	0003      	movs	r3, r0
 8003f02:	637b      	str	r3, [r7, #52]	; 0x34
 8003f04:	e007      	b.n	8003f16 <HTTPSendFile+0x92>
 8003f06:	2348      	movs	r3, #72	; 0x48
 8003f08:	18fb      	adds	r3, r7, r3
 8003f0a:	681b      	ldr	r3, [r3, #0]
 8003f0c:	0018      	movs	r0, r3
 8003f0e:	f7ff ff01 	bl	8003d14 <HTTPGetContentType>
 8003f12:	0003      	movs	r3, r0
 8003f14:	637b      	str	r3, [r7, #52]	; 0x34
 8003f16:	6b3b      	ldr	r3, [r7, #48]	; 0x30
 8003f18:	2200      	movs	r2, #0
 8003f1a:	701a      	strb	r2, [r3, #0]
 8003f1c:	6b3b      	ldr	r3, [r7, #48]	; 0x30
 8003f1e:	0018      	movs	r0, r3
 8003f20:	f7fc f8fc 	bl	800011c <strlen>
 8003f24:	0003      	movs	r3, r0
 8003f26:	001a      	movs	r2, r3
 8003f28:	6b3b      	ldr	r3, [r7, #48]	; 0x30
 8003f2a:	189a      	adds	r2, r3, r2
 8003f2c:	4b8e      	ldr	r3, [pc, #568]	; (8004168 <HTTPSendFile+0x2e4>)
 8003f2e:	0010      	movs	r0, r2
 8003f30:	0019      	movs	r1, r3
 8003f32:	2309      	movs	r3, #9
 8003f34:	001a      	movs	r2, r3
 8003f36:	f002 f953 	bl	80061e0 <memcpy>
 8003f3a:	6b3b      	ldr	r3, [r7, #48]	; 0x30
 8003f3c:	3308      	adds	r3, #8
 8003f3e:	633b      	str	r3, [r7, #48]	; 0x30
 8003f40:	6b3b      	ldr	r3, [r7, #48]	; 0x30
 8003f42:	2220      	movs	r2, #32
 8003f44:	701a      	strb	r2, [r3, #0]
 8003f46:	6b3b      	ldr	r3, [r7, #48]	; 0x30
 8003f48:	3301      	adds	r3, #1
 8003f4a:	633b      	str	r3, [r7, #48]	; 0x30
 8003f4c:	683b      	ldr	r3, [r7, #0]
 8003f4e:	b29b      	uxth	r3, r3
 8003f50:	6b3a      	ldr	r2, [r7, #48]	; 0x30
 8003f52:	0011      	movs	r1, r2
 8003f54:	0018      	movs	r0, r3
 8003f56:	f000 ff7a 	bl	8004e4e <u16toa>
 8003f5a:	0003      	movs	r3, r0
 8003f5c:	001a      	movs	r2, r3
 8003f5e:	6b3b      	ldr	r3, [r7, #48]	; 0x30
 8003f60:	189b      	adds	r3, r3, r2
 8003f62:	633b      	str	r3, [r7, #48]	; 0x30
 8003f64:	6b3b      	ldr	r3, [r7, #48]	; 0x30
 8003f66:	0018      	movs	r0, r3
 8003f68:	f7fc f8d8 	bl	800011c <strlen>
 8003f6c:	0003      	movs	r3, r0
 8003f6e:	001a      	movs	r2, r3
 8003f70:	6b3b      	ldr	r3, [r7, #48]	; 0x30
 8003f72:	189a      	adds	r2, r3, r2
 8003f74:	4b7d      	ldr	r3, [pc, #500]	; (800416c <HTTPSendFile+0x2e8>)
 8003f76:	0010      	movs	r0, r2
 8003f78:	0019      	movs	r1, r3
 8003f7a:	2306      	movs	r3, #6
 8003f7c:	001a      	movs	r2, r3
 8003f7e:	f002 f92f 	bl	80061e0 <memcpy>
 8003f82:	6b3b      	ldr	r3, [r7, #48]	; 0x30
 8003f84:	3305      	adds	r3, #5
 8003f86:	633b      	str	r3, [r7, #48]	; 0x30
 8003f88:	6b3b      	ldr	r3, [r7, #48]	; 0x30
 8003f8a:	0018      	movs	r0, r3
 8003f8c:	f7fc f8c6 	bl	800011c <strlen>
 8003f90:	0003      	movs	r3, r0
 8003f92:	001a      	movs	r2, r3
 8003f94:	6b3b      	ldr	r3, [r7, #48]	; 0x30
 8003f96:	189a      	adds	r2, r3, r2
 8003f98:	4b75      	ldr	r3, [pc, #468]	; (8004170 <HTTPSendFile+0x2ec>)
 8003f9a:	0010      	movs	r0, r2
 8003f9c:	0019      	movs	r1, r3
 8003f9e:	230d      	movs	r3, #13
 8003fa0:	001a      	movs	r2, r3
 8003fa2:	f002 f91d 	bl	80061e0 <memcpy>
 8003fa6:	6b3b      	ldr	r3, [r7, #48]	; 0x30
 8003fa8:	330c      	adds	r3, #12
 8003faa:	633b      	str	r3, [r7, #48]	; 0x30
 8003fac:	687b      	ldr	r3, [r7, #4]
 8003fae:	791b      	ldrb	r3, [r3, #4]
 8003fb0:	2b01      	cmp	r3, #1
 8003fb2:	d112      	bne.n	8003fda <HTTPSendFile+0x156>
 8003fb4:	6b3b      	ldr	r3, [r7, #48]	; 0x30
 8003fb6:	0018      	movs	r0, r3
 8003fb8:	f7fc f8b0 	bl	800011c <strlen>
 8003fbc:	0003      	movs	r3, r0
 8003fbe:	001a      	movs	r2, r3
 8003fc0:	6b3b      	ldr	r3, [r7, #48]	; 0x30
 8003fc2:	189a      	adds	r2, r3, r2
 8003fc4:	4b6b      	ldr	r3, [pc, #428]	; (8004174 <HTTPSendFile+0x2f0>)
 8003fc6:	0010      	movs	r0, r2
 8003fc8:	0019      	movs	r1, r3
 8003fca:	230d      	movs	r3, #13
 8003fcc:	001a      	movs	r2, r3
 8003fce:	f002 f907 	bl	80061e0 <memcpy>
 8003fd2:	6b3b      	ldr	r3, [r7, #48]	; 0x30
 8003fd4:	330c      	adds	r3, #12
 8003fd6:	633b      	str	r3, [r7, #48]	; 0x30
 8003fd8:	e011      	b.n	8003ffe <HTTPSendFile+0x17a>
 8003fda:	6b3b      	ldr	r3, [r7, #48]	; 0x30
 8003fdc:	0018      	movs	r0, r3
 8003fde:	f7fc f89d 	bl	800011c <strlen>
 8003fe2:	0003      	movs	r3, r0
 8003fe4:	001a      	movs	r2, r3
 8003fe6:	6b3b      	ldr	r3, [r7, #48]	; 0x30
 8003fe8:	189a      	adds	r2, r3, r2
 8003fea:	4b63      	ldr	r3, [pc, #396]	; (8004178 <HTTPSendFile+0x2f4>)
 8003fec:	0010      	movs	r0, r2
 8003fee:	0019      	movs	r1, r3
 8003ff0:	2309      	movs	r3, #9
 8003ff2:	001a      	movs	r2, r3
 8003ff4:	f002 f8f4 	bl	80061e0 <memcpy>
 8003ff8:	6b3b      	ldr	r3, [r7, #48]	; 0x30
 8003ffa:	3308      	adds	r3, #8
 8003ffc:	633b      	str	r3, [r7, #48]	; 0x30
 8003ffe:	232f      	movs	r3, #47	; 0x2f
 8004000:	18fb      	adds	r3, r7, r3
 8004002:	781b      	ldrb	r3, [r3, #0]
 8004004:	2b00      	cmp	r3, #0
 8004006:	d011      	beq.n	800402c <HTTPSendFile+0x1a8>
 8004008:	6b3b      	ldr	r3, [r7, #48]	; 0x30
 800400a:	0018      	movs	r0, r3
 800400c:	f7fc f886 	bl	800011c <strlen>
 8004010:	0003      	movs	r3, r0
 8004012:	001a      	movs	r2, r3
 8004014:	6b3b      	ldr	r3, [r7, #48]	; 0x30
 8004016:	189a      	adds	r2, r3, r2
 8004018:	4b58      	ldr	r3, [pc, #352]	; (800417c <HTTPSendFile+0x2f8>)
 800401a:	0010      	movs	r0, r2
 800401c:	0019      	movs	r1, r3
 800401e:	2319      	movs	r3, #25
 8004020:	001a      	movs	r2, r3
 8004022:	f002 f8dd 	bl	80061e0 <memcpy>
 8004026:	6b3b      	ldr	r3, [r7, #48]	; 0x30
 8004028:	3318      	adds	r3, #24
 800402a:	633b      	str	r3, [r7, #48]	; 0x30
 800402c:	6b3b      	ldr	r3, [r7, #48]	; 0x30
 800402e:	0018      	movs	r0, r3
 8004030:	f7fc f874 	bl	800011c <strlen>
 8004034:	0003      	movs	r3, r0
 8004036:	001a      	movs	r2, r3
 8004038:	6b3b      	ldr	r3, [r7, #48]	; 0x30
 800403a:	189a      	adds	r2, r3, r2
 800403c:	4b50      	ldr	r3, [pc, #320]	; (8004180 <HTTPSendFile+0x2fc>)
 800403e:	0010      	movs	r0, r2
 8004040:	0019      	movs	r1, r3
 8004042:	230f      	movs	r3, #15
 8004044:	001a      	movs	r2, r3
 8004046:	f002 f8cb 	bl	80061e0 <memcpy>
 800404a:	6b3b      	ldr	r3, [r7, #48]	; 0x30
 800404c:	330e      	adds	r3, #14
 800404e:	633b      	str	r3, [r7, #48]	; 0x30
 8004050:	6b7a      	ldr	r2, [r7, #52]	; 0x34
 8004052:	6b3b      	ldr	r3, [r7, #48]	; 0x30
 8004054:	0011      	movs	r1, r2
 8004056:	0018      	movs	r0, r3
 8004058:	f002 f8d3 	bl	8006202 <strcat>
 800405c:	6b7b      	ldr	r3, [r7, #52]	; 0x34
 800405e:	0018      	movs	r0, r3
 8004060:	f7fc f85c 	bl	800011c <strlen>
 8004064:	0002      	movs	r2, r0
 8004066:	6b3b      	ldr	r3, [r7, #48]	; 0x30
 8004068:	189b      	adds	r3, r3, r2
 800406a:	633b      	str	r3, [r7, #48]	; 0x30
 800406c:	6b3b      	ldr	r3, [r7, #48]	; 0x30
 800406e:	0018      	movs	r0, r3
 8004070:	f7fc f854 	bl	800011c <strlen>
 8004074:	0003      	movs	r3, r0
 8004076:	001a      	movs	r2, r3
 8004078:	6b3b      	ldr	r3, [r7, #48]	; 0x30
 800407a:	189a      	adds	r2, r3, r2
 800407c:	4b41      	ldr	r3, [pc, #260]	; (8004184 <HTTPSendFile+0x300>)
 800407e:	0010      	movs	r0, r2
 8004080:	0019      	movs	r1, r3
 8004082:	2303      	movs	r3, #3
 8004084:	001a      	movs	r2, r3
 8004086:	f002 f8ab 	bl	80061e0 <memcpy>
 800408a:	6b3b      	ldr	r3, [r7, #48]	; 0x30
 800408c:	3302      	adds	r3, #2
 800408e:	633b      	str	r3, [r7, #48]	; 0x30
 8004090:	6b3b      	ldr	r3, [r7, #48]	; 0x30
 8004092:	0018      	movs	r0, r3
 8004094:	f7fc f842 	bl	800011c <strlen>
 8004098:	0003      	movs	r3, r0
 800409a:	001a      	movs	r2, r3
 800409c:	6b3b      	ldr	r3, [r7, #48]	; 0x30
 800409e:	189a      	adds	r2, r3, r2
 80040a0:	4b39      	ldr	r3, [pc, #228]	; (8004188 <HTTPSendFile+0x304>)
 80040a2:	0010      	movs	r0, r2
 80040a4:	0019      	movs	r1, r3
 80040a6:	2311      	movs	r3, #17
 80040a8:	001a      	movs	r2, r3
 80040aa:	f002 f899 	bl	80061e0 <memcpy>
 80040ae:	6b3b      	ldr	r3, [r7, #48]	; 0x30
 80040b0:	3310      	adds	r3, #16
 80040b2:	633b      	str	r3, [r7, #48]	; 0x30
 80040b4:	2448      	movs	r4, #72	; 0x48
 80040b6:	193b      	adds	r3, r7, r4
 80040b8:	689b      	ldr	r3, [r3, #8]
 80040ba:	b29b      	uxth	r3, r3
 80040bc:	6b3a      	ldr	r2, [r7, #48]	; 0x30
 80040be:	0011      	movs	r1, r2
 80040c0:	0018      	movs	r0, r3
 80040c2:	f000 fec4 	bl	8004e4e <u16toa>
 80040c6:	0003      	movs	r3, r0
 80040c8:	001a      	movs	r2, r3
 80040ca:	6b3b      	ldr	r3, [r7, #48]	; 0x30
 80040cc:	189b      	adds	r3, r3, r2
 80040ce:	633b      	str	r3, [r7, #48]	; 0x30
 80040d0:	6b3b      	ldr	r3, [r7, #48]	; 0x30
 80040d2:	0018      	movs	r0, r3
 80040d4:	f7fc f822 	bl	800011c <strlen>
 80040d8:	0003      	movs	r3, r0
 80040da:	001a      	movs	r2, r3
 80040dc:	6b3b      	ldr	r3, [r7, #48]	; 0x30
 80040de:	189a      	adds	r2, r3, r2
 80040e0:	4b2a      	ldr	r3, [pc, #168]	; (800418c <HTTPSendFile+0x308>)
 80040e2:	0010      	movs	r0, r2
 80040e4:	0019      	movs	r1, r3
 80040e6:	2303      	movs	r3, #3
 80040e8:	001a      	movs	r2, r3
 80040ea:	f002 f879 	bl	80061e0 <memcpy>
 80040ee:	6b3b      	ldr	r3, [r7, #48]	; 0x30
 80040f0:	3302      	adds	r3, #2
 80040f2:	633b      	str	r3, [r7, #48]	; 0x30
 80040f4:	6b3b      	ldr	r3, [r7, #48]	; 0x30
 80040f6:	0018      	movs	r0, r3
 80040f8:	f7fc f810 	bl	800011c <strlen>
 80040fc:	0003      	movs	r3, r0
 80040fe:	001a      	movs	r2, r3
 8004100:	6b3b      	ldr	r3, [r7, #48]	; 0x30
 8004102:	189a      	adds	r2, r3, r2
 8004104:	4b21      	ldr	r3, [pc, #132]	; (800418c <HTTPSendFile+0x308>)
 8004106:	0010      	movs	r0, r2
 8004108:	0019      	movs	r1, r3
 800410a:	2303      	movs	r3, #3
 800410c:	001a      	movs	r2, r3
 800410e:	f002 f867 	bl	80061e0 <memcpy>
 8004112:	6b3b      	ldr	r3, [r7, #48]	; 0x30
 8004114:	3302      	adds	r3, #2
 8004116:	633b      	str	r3, [r7, #48]	; 0x30
 8004118:	687a      	ldr	r2, [r7, #4]
 800411a:	23ae      	movs	r3, #174	; 0xae
 800411c:	005b      	lsls	r3, r3, #1
 800411e:	58d3      	ldr	r3, [r2, r3]
 8004120:	0018      	movs	r0, r3
 8004122:	f7fb fffb 	bl	800011c <strlen>
 8004126:	0003      	movs	r3, r0
 8004128:	b299      	uxth	r1, r3
 800412a:	687a      	ldr	r2, [r7, #4]
 800412c:	23ad      	movs	r3, #173	; 0xad
 800412e:	005b      	lsls	r3, r3, #1
 8004130:	52d1      	strh	r1, [r2, r3]
 8004132:	193b      	adds	r3, r7, r4
 8004134:	689b      	ldr	r3, [r3, #8]
 8004136:	b299      	uxth	r1, r3
 8004138:	687a      	ldr	r2, [r7, #4]
 800413a:	23b0      	movs	r3, #176	; 0xb0
 800413c:	005b      	lsls	r3, r3, #1
 800413e:	52d1      	strh	r1, [r2, r3]
 8004140:	193b      	adds	r3, r7, r4
 8004142:	6859      	ldr	r1, [r3, #4]
 8004144:	687a      	ldr	r2, [r7, #4]
 8004146:	23b2      	movs	r3, #178	; 0xb2
 8004148:	005b      	lsls	r3, r3, #1
 800414a:	50d1      	str	r1, [r2, r3]
 800414c:	687a      	ldr	r2, [r7, #4]
 800414e:	23ac      	movs	r3, #172	; 0xac
 8004150:	005b      	lsls	r3, r3, #1
 8004152:	2101      	movs	r1, #1
 8004154:	54d1      	strb	r1, [r2, r3]
 8004156:	46c0      	nop			; (mov r8, r8)
 8004158:	46bd      	mov	sp, r7
 800415a:	b00f      	add	sp, #60	; 0x3c
 800415c:	bc90      	pop	{r4, r7}
 800415e:	bc08      	pop	{r3}
 8004160:	b002      	add	sp, #8
 8004162:	4718      	bx	r3
 8004164:	08006670 	.word	0x08006670
 8004168:	08006798 	.word	0x08006798
 800416c:	08006674 	.word	0x08006674
 8004170:	0800667c 	.word	0x0800667c
 8004174:	0800668c 	.word	0x0800668c
 8004178:	0800669c 	.word	0x0800669c
 800417c:	080066a8 	.word	0x080066a8
 8004180:	080066c4 	.word	0x080066c4
 8004184:	080066d4 	.word	0x080066d4
 8004188:	080066d8 	.word	0x080066d8
 800418c:	0800678c 	.word	0x0800678c

08004190 <HTTPSendStr>:
 8004190:	b580      	push	{r7, lr}
 8004192:	b088      	sub	sp, #32
 8004194:	af00      	add	r7, sp, #0
 8004196:	60f8      	str	r0, [r7, #12]
 8004198:	60b9      	str	r1, [r7, #8]
 800419a:	607a      	str	r2, [r7, #4]
 800419c:	68fa      	ldr	r2, [r7, #12]
 800419e:	23ae      	movs	r3, #174	; 0xae
 80041a0:	005b      	lsls	r3, r3, #1
 80041a2:	58d3      	ldr	r3, [r2, r3]
 80041a4:	61fb      	str	r3, [r7, #28]
 80041a6:	69fb      	ldr	r3, [r7, #28]
 80041a8:	2200      	movs	r2, #0
 80041aa:	701a      	strb	r2, [r3, #0]
 80041ac:	69fb      	ldr	r3, [r7, #28]
 80041ae:	0018      	movs	r0, r3
 80041b0:	f7fb ffb4 	bl	800011c <strlen>
 80041b4:	0003      	movs	r3, r0
 80041b6:	001a      	movs	r2, r3
 80041b8:	69fb      	ldr	r3, [r7, #28]
 80041ba:	189a      	adds	r2, r3, r2
 80041bc:	4b88      	ldr	r3, [pc, #544]	; (80043e0 <HTTPSendStr+0x250>)
 80041be:	0010      	movs	r0, r2
 80041c0:	0019      	movs	r1, r3
 80041c2:	2309      	movs	r3, #9
 80041c4:	001a      	movs	r2, r3
 80041c6:	f002 f80b 	bl	80061e0 <memcpy>
 80041ca:	69fb      	ldr	r3, [r7, #28]
 80041cc:	3308      	adds	r3, #8
 80041ce:	61fb      	str	r3, [r7, #28]
 80041d0:	69fb      	ldr	r3, [r7, #28]
 80041d2:	2220      	movs	r2, #32
 80041d4:	701a      	strb	r2, [r3, #0]
 80041d6:	69fb      	ldr	r3, [r7, #28]
 80041d8:	3301      	adds	r3, #1
 80041da:	61fb      	str	r3, [r7, #28]
 80041dc:	68bb      	ldr	r3, [r7, #8]
 80041de:	b29b      	uxth	r3, r3
 80041e0:	69fa      	ldr	r2, [r7, #28]
 80041e2:	0011      	movs	r1, r2
 80041e4:	0018      	movs	r0, r3
 80041e6:	f000 fe32 	bl	8004e4e <u16toa>
 80041ea:	0003      	movs	r3, r0
 80041ec:	001a      	movs	r2, r3
 80041ee:	69fb      	ldr	r3, [r7, #28]
 80041f0:	189b      	adds	r3, r3, r2
 80041f2:	61fb      	str	r3, [r7, #28]
 80041f4:	69fb      	ldr	r3, [r7, #28]
 80041f6:	0018      	movs	r0, r3
 80041f8:	f7fb ff90 	bl	800011c <strlen>
 80041fc:	0003      	movs	r3, r0
 80041fe:	001a      	movs	r2, r3
 8004200:	69fb      	ldr	r3, [r7, #28]
 8004202:	189a      	adds	r2, r3, r2
 8004204:	4b77      	ldr	r3, [pc, #476]	; (80043e4 <HTTPSendStr+0x254>)
 8004206:	0010      	movs	r0, r2
 8004208:	0019      	movs	r1, r3
 800420a:	2306      	movs	r3, #6
 800420c:	001a      	movs	r2, r3
 800420e:	f001 ffe7 	bl	80061e0 <memcpy>
 8004212:	69fb      	ldr	r3, [r7, #28]
 8004214:	3305      	adds	r3, #5
 8004216:	61fb      	str	r3, [r7, #28]
 8004218:	69fb      	ldr	r3, [r7, #28]
 800421a:	0018      	movs	r0, r3
 800421c:	f7fb ff7e 	bl	800011c <strlen>
 8004220:	0003      	movs	r3, r0
 8004222:	001a      	movs	r2, r3
 8004224:	69fb      	ldr	r3, [r7, #28]
 8004226:	189a      	adds	r2, r3, r2
 8004228:	4b6f      	ldr	r3, [pc, #444]	; (80043e8 <HTTPSendStr+0x258>)
 800422a:	0010      	movs	r0, r2
 800422c:	0019      	movs	r1, r3
 800422e:	230d      	movs	r3, #13
 8004230:	001a      	movs	r2, r3
 8004232:	f001 ffd5 	bl	80061e0 <memcpy>
 8004236:	69fb      	ldr	r3, [r7, #28]
 8004238:	330c      	adds	r3, #12
 800423a:	61fb      	str	r3, [r7, #28]
 800423c:	68fb      	ldr	r3, [r7, #12]
 800423e:	791b      	ldrb	r3, [r3, #4]
 8004240:	2b01      	cmp	r3, #1
 8004242:	d112      	bne.n	800426a <HTTPSendStr+0xda>
 8004244:	69fb      	ldr	r3, [r7, #28]
 8004246:	0018      	movs	r0, r3
 8004248:	f7fb ff68 	bl	800011c <strlen>
 800424c:	0003      	movs	r3, r0
 800424e:	001a      	movs	r2, r3
 8004250:	69fb      	ldr	r3, [r7, #28]
 8004252:	189a      	adds	r2, r3, r2
 8004254:	4b65      	ldr	r3, [pc, #404]	; (80043ec <HTTPSendStr+0x25c>)
 8004256:	0010      	movs	r0, r2
 8004258:	0019      	movs	r1, r3
 800425a:	230d      	movs	r3, #13
 800425c:	001a      	movs	r2, r3
 800425e:	f001 ffbf 	bl	80061e0 <memcpy>
 8004262:	69fb      	ldr	r3, [r7, #28]
 8004264:	330c      	adds	r3, #12
 8004266:	61fb      	str	r3, [r7, #28]
 8004268:	e011      	b.n	800428e <HTTPSendStr+0xfe>
 800426a:	69fb      	ldr	r3, [r7, #28]
 800426c:	0018      	movs	r0, r3
 800426e:	f7fb ff55 	bl	800011c <strlen>
 8004272:	0003      	movs	r3, r0
 8004274:	001a      	movs	r2, r3
 8004276:	69fb      	ldr	r3, [r7, #28]
 8004278:	189a      	adds	r2, r3, r2
 800427a:	4b5d      	ldr	r3, [pc, #372]	; (80043f0 <HTTPSendStr+0x260>)
 800427c:	0010      	movs	r0, r2
 800427e:	0019      	movs	r1, r3
 8004280:	2309      	movs	r3, #9
 8004282:	001a      	movs	r2, r3
 8004284:	f001 ffac 	bl	80061e0 <memcpy>
 8004288:	69fb      	ldr	r3, [r7, #28]
 800428a:	3308      	adds	r3, #8
 800428c:	61fb      	str	r3, [r7, #28]
 800428e:	68fb      	ldr	r3, [r7, #12]
 8004290:	3305      	adds	r3, #5
 8004292:	0018      	movs	r0, r3
 8004294:	f7ff fd3e 	bl	8003d14 <HTTPGetContentType>
 8004298:	0003      	movs	r3, r0
 800429a:	61bb      	str	r3, [r7, #24]
 800429c:	69fb      	ldr	r3, [r7, #28]
 800429e:	0018      	movs	r0, r3
 80042a0:	f7fb ff3c 	bl	800011c <strlen>
 80042a4:	0003      	movs	r3, r0
 80042a6:	001a      	movs	r2, r3
 80042a8:	69fb      	ldr	r3, [r7, #28]
 80042aa:	189a      	adds	r2, r3, r2
 80042ac:	4b51      	ldr	r3, [pc, #324]	; (80043f4 <HTTPSendStr+0x264>)
 80042ae:	0010      	movs	r0, r2
 80042b0:	0019      	movs	r1, r3
 80042b2:	230f      	movs	r3, #15
 80042b4:	001a      	movs	r2, r3
 80042b6:	f001 ff93 	bl	80061e0 <memcpy>
 80042ba:	69fb      	ldr	r3, [r7, #28]
 80042bc:	330e      	adds	r3, #14
 80042be:	61fb      	str	r3, [r7, #28]
 80042c0:	69ba      	ldr	r2, [r7, #24]
 80042c2:	69fb      	ldr	r3, [r7, #28]
 80042c4:	0011      	movs	r1, r2
 80042c6:	0018      	movs	r0, r3
 80042c8:	f001 ff9b 	bl	8006202 <strcat>
 80042cc:	69bb      	ldr	r3, [r7, #24]
 80042ce:	0018      	movs	r0, r3
 80042d0:	f7fb ff24 	bl	800011c <strlen>
 80042d4:	0002      	movs	r2, r0
 80042d6:	69fb      	ldr	r3, [r7, #28]
 80042d8:	189b      	adds	r3, r3, r2
 80042da:	61fb      	str	r3, [r7, #28]
 80042dc:	69fb      	ldr	r3, [r7, #28]
 80042de:	0018      	movs	r0, r3
 80042e0:	f7fb ff1c 	bl	800011c <strlen>
 80042e4:	0003      	movs	r3, r0
 80042e6:	001a      	movs	r2, r3
 80042e8:	69fb      	ldr	r3, [r7, #28]
 80042ea:	189a      	adds	r2, r3, r2
 80042ec:	4b42      	ldr	r3, [pc, #264]	; (80043f8 <HTTPSendStr+0x268>)
 80042ee:	0010      	movs	r0, r2
 80042f0:	0019      	movs	r1, r3
 80042f2:	2303      	movs	r3, #3
 80042f4:	001a      	movs	r2, r3
 80042f6:	f001 ff73 	bl	80061e0 <memcpy>
 80042fa:	69fb      	ldr	r3, [r7, #28]
 80042fc:	3302      	adds	r3, #2
 80042fe:	61fb      	str	r3, [r7, #28]
 8004300:	69fb      	ldr	r3, [r7, #28]
 8004302:	0018      	movs	r0, r3
 8004304:	f7fb ff0a 	bl	800011c <strlen>
 8004308:	0003      	movs	r3, r0
 800430a:	001a      	movs	r2, r3
 800430c:	69fb      	ldr	r3, [r7, #28]
 800430e:	189a      	adds	r2, r3, r2
 8004310:	4b3a      	ldr	r3, [pc, #232]	; (80043fc <HTTPSendStr+0x26c>)
 8004312:	0010      	movs	r0, r2
 8004314:	0019      	movs	r1, r3
 8004316:	2311      	movs	r3, #17
 8004318:	001a      	movs	r2, r3
 800431a:	f001 ff61 	bl	80061e0 <memcpy>
 800431e:	69fb      	ldr	r3, [r7, #28]
 8004320:	3310      	adds	r3, #16
 8004322:	61fb      	str	r3, [r7, #28]
 8004324:	687b      	ldr	r3, [r7, #4]
 8004326:	0018      	movs	r0, r3
 8004328:	f7fb fef8 	bl	800011c <strlen>
 800432c:	0002      	movs	r2, r0
 800432e:	2116      	movs	r1, #22
 8004330:	187b      	adds	r3, r7, r1
 8004332:	801a      	strh	r2, [r3, #0]
 8004334:	69fa      	ldr	r2, [r7, #28]
 8004336:	187b      	adds	r3, r7, r1
 8004338:	881b      	ldrh	r3, [r3, #0]
 800433a:	0011      	movs	r1, r2
 800433c:	0018      	movs	r0, r3
 800433e:	f000 fd86 	bl	8004e4e <u16toa>
 8004342:	0003      	movs	r3, r0
 8004344:	001a      	movs	r2, r3
 8004346:	69fb      	ldr	r3, [r7, #28]
 8004348:	189b      	adds	r3, r3, r2
 800434a:	61fb      	str	r3, [r7, #28]
 800434c:	69fb      	ldr	r3, [r7, #28]
 800434e:	0018      	movs	r0, r3
 8004350:	f7fb fee4 	bl	800011c <strlen>
 8004354:	0003      	movs	r3, r0
 8004356:	001a      	movs	r2, r3
 8004358:	69fb      	ldr	r3, [r7, #28]
 800435a:	189a      	adds	r2, r3, r2
 800435c:	4b28      	ldr	r3, [pc, #160]	; (8004400 <HTTPSendStr+0x270>)
 800435e:	0010      	movs	r0, r2
 8004360:	0019      	movs	r1, r3
 8004362:	2303      	movs	r3, #3
 8004364:	001a      	movs	r2, r3
 8004366:	f001 ff3b 	bl	80061e0 <memcpy>
 800436a:	69fb      	ldr	r3, [r7, #28]
 800436c:	3302      	adds	r3, #2
 800436e:	61fb      	str	r3, [r7, #28]
 8004370:	69fb      	ldr	r3, [r7, #28]
 8004372:	0018      	movs	r0, r3
 8004374:	f7fb fed2 	bl	800011c <strlen>
 8004378:	0003      	movs	r3, r0
 800437a:	001a      	movs	r2, r3
 800437c:	69fb      	ldr	r3, [r7, #28]
 800437e:	189a      	adds	r2, r3, r2
 8004380:	4b1f      	ldr	r3, [pc, #124]	; (8004400 <HTTPSendStr+0x270>)
 8004382:	0010      	movs	r0, r2
 8004384:	0019      	movs	r1, r3
 8004386:	2303      	movs	r3, #3
 8004388:	001a      	movs	r2, r3
 800438a:	f001 ff29 	bl	80061e0 <memcpy>
 800438e:	69fb      	ldr	r3, [r7, #28]
 8004390:	3302      	adds	r3, #2
 8004392:	61fb      	str	r3, [r7, #28]
 8004394:	68fa      	ldr	r2, [r7, #12]
 8004396:	23ae      	movs	r3, #174	; 0xae
 8004398:	005b      	lsls	r3, r3, #1
 800439a:	58d3      	ldr	r3, [r2, r3]
 800439c:	0018      	movs	r0, r3
 800439e:	f7fb febd 	bl	800011c <strlen>
 80043a2:	0003      	movs	r3, r0
 80043a4:	b299      	uxth	r1, r3
 80043a6:	68fa      	ldr	r2, [r7, #12]
 80043a8:	23ad      	movs	r3, #173	; 0xad
 80043aa:	005b      	lsls	r3, r3, #1
 80043ac:	52d1      	strh	r1, [r2, r3]
 80043ae:	687b      	ldr	r3, [r7, #4]
 80043b0:	0018      	movs	r0, r3
 80043b2:	f7fb feb3 	bl	800011c <strlen>
 80043b6:	0003      	movs	r3, r0
 80043b8:	b299      	uxth	r1, r3
 80043ba:	68fa      	ldr	r2, [r7, #12]
 80043bc:	23b0      	movs	r3, #176	; 0xb0
 80043be:	005b      	lsls	r3, r3, #1
 80043c0:	52d1      	strh	r1, [r2, r3]
 80043c2:	68fa      	ldr	r2, [r7, #12]
 80043c4:	23b2      	movs	r3, #178	; 0xb2
 80043c6:	005b      	lsls	r3, r3, #1
 80043c8:	6879      	ldr	r1, [r7, #4]
 80043ca:	50d1      	str	r1, [r2, r3]
 80043cc:	68fa      	ldr	r2, [r7, #12]
 80043ce:	23ac      	movs	r3, #172	; 0xac
 80043d0:	005b      	lsls	r3, r3, #1
 80043d2:	2101      	movs	r1, #1
 80043d4:	54d1      	strb	r1, [r2, r3]
 80043d6:	46c0      	nop			; (mov r8, r8)
 80043d8:	46bd      	mov	sp, r7
 80043da:	b008      	add	sp, #32
 80043dc:	bd80      	pop	{r7, pc}
 80043de:	46c0      	nop			; (mov r8, r8)
 80043e0:	08006798 	.word	0x08006798
 80043e4:	08006674 	.word	0x08006674
 80043e8:	0800667c 	.word	0x0800667c
 80043ec:	0800668c 	.word	0x0800668c
 80043f0:	0800669c 	.word	0x0800669c
 80043f4:	080066c4 	.word	0x080066c4
 80043f8:	080066d4 	.word	0x080066d4
 80043fc:	080066d8 	.word	0x080066d8
 8004400:	0800678c 	.word	0x0800678c

08004404 <HTTPredirect>:
 8004404:	b5b0      	push	{r4, r5, r7, lr}
 8004406:	b0a2      	sub	sp, #136	; 0x88
 8004408:	af00      	add	r7, sp, #0
 800440a:	6078      	str	r0, [r7, #4]
 800440c:	6039      	str	r1, [r7, #0]
 800440e:	2108      	movs	r1, #8
 8004410:	187b      	adds	r3, r7, r1
 8004412:	4a12      	ldr	r2, [pc, #72]	; (800445c <HTTPredirect+0x58>)
 8004414:	ca31      	ldmia	r2!, {r0, r4, r5}
 8004416:	c331      	stmia	r3!, {r0, r4, r5}
 8004418:	ca31      	ldmia	r2!, {r0, r4, r5}
 800441a:	c331      	stmia	r3!, {r0, r4, r5}
 800441c:	683a      	ldr	r2, [r7, #0]
 800441e:	000c      	movs	r4, r1
 8004420:	193b      	adds	r3, r7, r4
 8004422:	0011      	movs	r1, r2
 8004424:	0018      	movs	r0, r3
 8004426:	f001 feec 	bl	8006202 <strcat>
 800442a:	193b      	adds	r3, r7, r4
 800442c:	0018      	movs	r0, r3
 800442e:	f7fb fe75 	bl	800011c <strlen>
 8004432:	0003      	movs	r3, r0
 8004434:	001a      	movs	r2, r3
 8004436:	193b      	adds	r3, r7, r4
 8004438:	189a      	adds	r2, r3, r2
 800443a:	4b09      	ldr	r3, [pc, #36]	; (8004460 <HTTPredirect+0x5c>)
 800443c:	0010      	movs	r0, r2
 800443e:	0019      	movs	r1, r3
 8004440:	230f      	movs	r3, #15
 8004442:	001a      	movs	r2, r3
 8004444:	f001 fecc 	bl	80061e0 <memcpy>
 8004448:	193a      	adds	r2, r7, r4
 800444a:	687b      	ldr	r3, [r7, #4]
 800444c:	21c8      	movs	r1, #200	; 0xc8
 800444e:	0018      	movs	r0, r3
 8004450:	f7ff fe9e 	bl	8004190 <HTTPSendStr>
 8004454:	46c0      	nop			; (mov r8, r8)
 8004456:	46bd      	mov	sp, r7
 8004458:	b022      	add	sp, #136	; 0x88
 800445a:	bdb0      	pop	{r4, r5, r7, pc}
 800445c:	080066ec 	.word	0x080066ec
 8004460:	08006704 	.word	0x08006704

08004464 <HTTPonNotFound>:
 8004464:	b590      	push	{r4, r7, lr}
 8004466:	b0a3      	sub	sp, #140	; 0x8c
 8004468:	af02      	add	r7, sp, #8
 800446a:	6078      	str	r0, [r7, #4]
 800446c:	687b      	ldr	r3, [r7, #4]
 800446e:	1d5a      	adds	r2, r3, #5
 8004470:	4b43      	ldr	r3, [pc, #268]	; (8004580 <HTTPonNotFound+0x11c>)
 8004472:	0011      	movs	r1, r2
 8004474:	0018      	movs	r0, r3
 8004476:	f7ff f9c3 	bl	8003800 <FS_exists>
 800447a:	1e03      	subs	r3, r0, #0
 800447c:	d01e      	beq.n	80044bc <HTTPonNotFound+0x58>
 800447e:	687b      	ldr	r3, [r7, #4]
 8004480:	1d5a      	adds	r2, r3, #5
 8004482:	2418      	movs	r4, #24
 8004484:	193b      	adds	r3, r7, r4
 8004486:	493e      	ldr	r1, [pc, #248]	; (8004580 <HTTPonNotFound+0x11c>)
 8004488:	0018      	movs	r0, r3
 800448a:	f7ff f969 	bl	8003760 <FS_open>
 800448e:	193b      	adds	r3, r7, r4
 8004490:	681b      	ldr	r3, [r3, #0]
 8004492:	2b00      	cmp	r3, #0
 8004494:	d050      	beq.n	8004538 <HTTPonNotFound+0xd4>
 8004496:	687b      	ldr	r3, [r7, #4]
 8004498:	1d5a      	adds	r2, r3, #5
 800449a:	2468      	movs	r4, #104	; 0x68
 800449c:	193b      	adds	r3, r7, r4
 800449e:	4938      	ldr	r1, [pc, #224]	; (8004580 <HTTPonNotFound+0x11c>)
 80044a0:	0018      	movs	r0, r3
 80044a2:	f7ff f95d 	bl	8003760 <FS_open>
 80044a6:	193b      	adds	r3, r7, r4
 80044a8:	6878      	ldr	r0, [r7, #4]
 80044aa:	466a      	mov	r2, sp
 80044ac:	6899      	ldr	r1, [r3, #8]
 80044ae:	6011      	str	r1, [r2, #0]
 80044b0:	681a      	ldr	r2, [r3, #0]
 80044b2:	685b      	ldr	r3, [r3, #4]
 80044b4:	21c8      	movs	r1, #200	; 0xc8
 80044b6:	f7ff fce5 	bl	8003e84 <HTTPSendFile>
 80044ba:	e05e      	b.n	800457a <HTTPonNotFound+0x116>
 80044bc:	687b      	ldr	r3, [r7, #4]
 80044be:	1d5a      	adds	r2, r3, #5
 80044c0:	2424      	movs	r4, #36	; 0x24
 80044c2:	193b      	adds	r3, r7, r4
 80044c4:	0011      	movs	r1, r2
 80044c6:	0018      	movs	r0, r3
 80044c8:	f001 feb7 	bl	800623a <strcpy>
 80044cc:	193b      	adds	r3, r7, r4
 80044ce:	0018      	movs	r0, r3
 80044d0:	f7fb fe24 	bl	800011c <strlen>
 80044d4:	0003      	movs	r3, r0
 80044d6:	001a      	movs	r2, r3
 80044d8:	193b      	adds	r3, r7, r4
 80044da:	189a      	adds	r2, r3, r2
 80044dc:	4b29      	ldr	r3, [pc, #164]	; (8004584 <HTTPonNotFound+0x120>)
 80044de:	0010      	movs	r0, r2
 80044e0:	0019      	movs	r1, r3
 80044e2:	2304      	movs	r3, #4
 80044e4:	001a      	movs	r2, r3
 80044e6:	f001 fe7b 	bl	80061e0 <memcpy>
 80044ea:	193a      	adds	r2, r7, r4
 80044ec:	4b24      	ldr	r3, [pc, #144]	; (8004580 <HTTPonNotFound+0x11c>)
 80044ee:	0011      	movs	r1, r2
 80044f0:	0018      	movs	r0, r3
 80044f2:	f7ff f985 	bl	8003800 <FS_exists>
 80044f6:	1e03      	subs	r3, r0, #0
 80044f8:	d01e      	beq.n	8004538 <HTTPonNotFound+0xd4>
 80044fa:	240c      	movs	r4, #12
 80044fc:	193b      	adds	r3, r7, r4
 80044fe:	2224      	movs	r2, #36	; 0x24
 8004500:	18ba      	adds	r2, r7, r2
 8004502:	491f      	ldr	r1, [pc, #124]	; (8004580 <HTTPonNotFound+0x11c>)
 8004504:	0018      	movs	r0, r3
 8004506:	f7ff f92b 	bl	8003760 <FS_open>
 800450a:	193b      	adds	r3, r7, r4
 800450c:	681b      	ldr	r3, [r3, #0]
 800450e:	2b00      	cmp	r3, #0
 8004510:	d012      	beq.n	8004538 <HTTPonNotFound+0xd4>
 8004512:	2474      	movs	r4, #116	; 0x74
 8004514:	193b      	adds	r3, r7, r4
 8004516:	2224      	movs	r2, #36	; 0x24
 8004518:	18ba      	adds	r2, r7, r2
 800451a:	4919      	ldr	r1, [pc, #100]	; (8004580 <HTTPonNotFound+0x11c>)
 800451c:	0018      	movs	r0, r3
 800451e:	f7ff f91f 	bl	8003760 <FS_open>
 8004522:	193b      	adds	r3, r7, r4
 8004524:	6878      	ldr	r0, [r7, #4]
 8004526:	466a      	mov	r2, sp
 8004528:	6899      	ldr	r1, [r3, #8]
 800452a:	6011      	str	r1, [r2, #0]
 800452c:	681a      	ldr	r2, [r3, #0]
 800452e:	685b      	ldr	r3, [r3, #4]
 8004530:	21c8      	movs	r1, #200	; 0xc8
 8004532:	f7ff fca7 	bl	8003e84 <HTTPSendFile>
 8004536:	e020      	b.n	800457a <HTTPonNotFound+0x116>
 8004538:	4b13      	ldr	r3, [pc, #76]	; (8004588 <HTTPonNotFound+0x124>)
 800453a:	4a14      	ldr	r2, [pc, #80]	; (800458c <HTTPonNotFound+0x128>)
 800453c:	ca13      	ldmia	r2!, {r0, r1, r4}
 800453e:	c313      	stmia	r3!, {r0, r1, r4}
 8004540:	687b      	ldr	r3, [r7, #4]
 8004542:	1d59      	adds	r1, r3, #5
 8004544:	4b10      	ldr	r3, [pc, #64]	; (8004588 <HTTPonNotFound+0x124>)
 8004546:	2240      	movs	r2, #64	; 0x40
 8004548:	0018      	movs	r0, r3
 800454a:	f001 fe7e 	bl	800624a <strncat>
 800454e:	4b0e      	ldr	r3, [pc, #56]	; (8004588 <HTTPonNotFound+0x124>)
 8004550:	0018      	movs	r0, r3
 8004552:	f7fb fde3 	bl	800011c <strlen>
 8004556:	0003      	movs	r3, r0
 8004558:	001a      	movs	r2, r3
 800455a:	4b0b      	ldr	r3, [pc, #44]	; (8004588 <HTTPonNotFound+0x124>)
 800455c:	18d2      	adds	r2, r2, r3
 800455e:	4b0c      	ldr	r3, [pc, #48]	; (8004590 <HTTPonNotFound+0x12c>)
 8004560:	0010      	movs	r0, r2
 8004562:	0019      	movs	r1, r3
 8004564:	2303      	movs	r3, #3
 8004566:	001a      	movs	r2, r3
 8004568:	f001 fe3a 	bl	80061e0 <memcpy>
 800456c:	4a06      	ldr	r2, [pc, #24]	; (8004588 <HTTPonNotFound+0x124>)
 800456e:	23ca      	movs	r3, #202	; 0xca
 8004570:	0059      	lsls	r1, r3, #1
 8004572:	687b      	ldr	r3, [r7, #4]
 8004574:	0018      	movs	r0, r3
 8004576:	f7ff fe0b 	bl	8004190 <HTTPSendStr>
 800457a:	46bd      	mov	sp, r7
 800457c:	b021      	add	sp, #132	; 0x84
 800457e:	bd90      	pop	{r4, r7, pc}
 8004580:	20001768 	.word	0x20001768
 8004584:	08006670 	.word	0x08006670
 8004588:	200014e0 	.word	0x200014e0
 800458c:	08006714 	.word	0x08006714
 8004590:	0800678c 	.word	0x0800678c

08004594 <HTTPHandle>:
 8004594:	b5b0      	push	{r4, r5, r7, lr}
 8004596:	b086      	sub	sp, #24
 8004598:	af00      	add	r7, sp, #0
 800459a:	6078      	str	r0, [r7, #4]
 800459c:	2113      	movs	r1, #19
 800459e:	187b      	adds	r3, r7, r1
 80045a0:	687a      	ldr	r2, [r7, #4]
 80045a2:	7892      	ldrb	r2, [r2, #2]
 80045a4:	701a      	strb	r2, [r3, #0]
 80045a6:	187b      	adds	r3, r7, r1
 80045a8:	781b      	ldrb	r3, [r3, #0]
 80045aa:	b25b      	sxtb	r3, r3
 80045ac:	2b00      	cmp	r3, #0
 80045ae:	dc00      	bgt.n	80045b2 <HTTPHandle+0x1e>
 80045b0:	e1b6      	b.n	8004920 <HTTPHandle+0x38c>
 80045b2:	2313      	movs	r3, #19
 80045b4:	18fb      	adds	r3, r7, r3
 80045b6:	781b      	ldrb	r3, [r3, #0]
 80045b8:	b25b      	sxtb	r3, r3
 80045ba:	3b01      	subs	r3, #1
 80045bc:	22b6      	movs	r2, #182	; 0xb6
 80045be:	0052      	lsls	r2, r2, #1
 80045c0:	435a      	muls	r2, r3
 80045c2:	4bd2      	ldr	r3, [pc, #840]	; (800490c <HTTPHandle+0x378>)
 80045c4:	18d3      	adds	r3, r2, r3
 80045c6:	60fb      	str	r3, [r7, #12]
 80045c8:	68fa      	ldr	r2, [r7, #12]
 80045ca:	23b4      	movs	r3, #180	; 0xb4
 80045cc:	005b      	lsls	r3, r3, #1
 80045ce:	5cd3      	ldrb	r3, [r2, r3]
 80045d0:	2b00      	cmp	r3, #0
 80045d2:	d038      	beq.n	8004646 <HTTPHandle+0xb2>
 80045d4:	68fa      	ldr	r2, [r7, #12]
 80045d6:	23ac      	movs	r3, #172	; 0xac
 80045d8:	005b      	lsls	r3, r3, #1
 80045da:	5cd3      	ldrb	r3, [r2, r3]
 80045dc:	2b00      	cmp	r3, #0
 80045de:	d132      	bne.n	8004646 <HTTPHandle+0xb2>
 80045e0:	2317      	movs	r3, #23
 80045e2:	18fb      	adds	r3, r7, r3
 80045e4:	2200      	movs	r2, #0
 80045e6:	701a      	strb	r2, [r3, #0]
 80045e8:	e01f      	b.n	800462a <HTTPHandle+0x96>
 80045ea:	68fb      	ldr	r3, [r7, #12]
 80045ec:	1d58      	adds	r0, r3, #5
 80045ee:	2317      	movs	r3, #23
 80045f0:	18fb      	adds	r3, r7, r3
 80045f2:	781a      	ldrb	r2, [r3, #0]
 80045f4:	4bc6      	ldr	r3, [pc, #792]	; (8004910 <HTTPHandle+0x37c>)
 80045f6:	00d2      	lsls	r2, r2, #3
 80045f8:	58d3      	ldr	r3, [r2, r3]
 80045fa:	2240      	movs	r2, #64	; 0x40
 80045fc:	0019      	movs	r1, r3
 80045fe:	f001 fe3a 	bl	8006276 <strncmp>
 8004602:	1e03      	subs	r3, r0, #0
 8004604:	d10b      	bne.n	800461e <HTTPHandle+0x8a>
 8004606:	2317      	movs	r3, #23
 8004608:	18fb      	adds	r3, r7, r3
 800460a:	781b      	ldrb	r3, [r3, #0]
 800460c:	4ac0      	ldr	r2, [pc, #768]	; (8004910 <HTTPHandle+0x37c>)
 800460e:	00db      	lsls	r3, r3, #3
 8004610:	18d3      	adds	r3, r2, r3
 8004612:	3304      	adds	r3, #4
 8004614:	681b      	ldr	r3, [r3, #0]
 8004616:	68fa      	ldr	r2, [r7, #12]
 8004618:	0010      	movs	r0, r2
 800461a:	4798      	blx	r3
 800461c:	e00a      	b.n	8004634 <HTTPHandle+0xa0>
 800461e:	2217      	movs	r2, #23
 8004620:	18bb      	adds	r3, r7, r2
 8004622:	18ba      	adds	r2, r7, r2
 8004624:	7812      	ldrb	r2, [r2, #0]
 8004626:	3201      	adds	r2, #1
 8004628:	701a      	strb	r2, [r3, #0]
 800462a:	2317      	movs	r3, #23
 800462c:	18fb      	adds	r3, r7, r3
 800462e:	781b      	ldrb	r3, [r3, #0]
 8004630:	2b06      	cmp	r3, #6
 8004632:	d9da      	bls.n	80045ea <HTTPHandle+0x56>
 8004634:	2317      	movs	r3, #23
 8004636:	18fb      	adds	r3, r7, r3
 8004638:	781b      	ldrb	r3, [r3, #0]
 800463a:	2b06      	cmp	r3, #6
 800463c:	d903      	bls.n	8004646 <HTTPHandle+0xb2>
 800463e:	68fb      	ldr	r3, [r7, #12]
 8004640:	0018      	movs	r0, r3
 8004642:	f7ff ff0f 	bl	8004464 <HTTPonNotFound>
 8004646:	687b      	ldr	r3, [r7, #4]
 8004648:	78db      	ldrb	r3, [r3, #3]
 800464a:	b2db      	uxtb	r3, r3
 800464c:	001a      	movs	r2, r3
 800464e:	2313      	movs	r3, #19
 8004650:	18fb      	adds	r3, r7, r3
 8004652:	781b      	ldrb	r3, [r3, #0]
 8004654:	b25b      	sxtb	r3, r3
 8004656:	411a      	asrs	r2, r3
 8004658:	0013      	movs	r3, r2
 800465a:	2201      	movs	r2, #1
 800465c:	4013      	ands	r3, r2
 800465e:	d100      	bne.n	8004662 <HTTPHandle+0xce>
 8004660:	e15e      	b.n	8004920 <HTTPHandle+0x38c>
 8004662:	68fa      	ldr	r2, [r7, #12]
 8004664:	23b4      	movs	r3, #180	; 0xb4
 8004666:	005b      	lsls	r3, r3, #1
 8004668:	5cd3      	ldrb	r3, [r2, r3]
 800466a:	2b00      	cmp	r3, #0
 800466c:	d100      	bne.n	8004670 <HTTPHandle+0xdc>
 800466e:	e157      	b.n	8004920 <HTTPHandle+0x38c>
 8004670:	68fa      	ldr	r2, [r7, #12]
 8004672:	23ac      	movs	r3, #172	; 0xac
 8004674:	005b      	lsls	r3, r3, #1
 8004676:	5cd3      	ldrb	r3, [r2, r3]
 8004678:	2b01      	cmp	r3, #1
 800467a:	d000      	beq.n	800467e <HTTPHandle+0xea>
 800467c:	e0b0      	b.n	80047e0 <HTTPHandle+0x24c>
 800467e:	68fa      	ldr	r2, [r7, #12]
 8004680:	23ad      	movs	r3, #173	; 0xad
 8004682:	005b      	lsls	r3, r3, #1
 8004684:	5ad2      	ldrh	r2, [r2, r3]
 8004686:	200a      	movs	r0, #10
 8004688:	183b      	adds	r3, r7, r0
 800468a:	49a2      	ldr	r1, [pc, #648]	; (8004914 <HTTPHandle+0x380>)
 800468c:	1a8a      	subs	r2, r1, r2
 800468e:	801a      	strh	r2, [r3, #0]
 8004690:	68fa      	ldr	r2, [r7, #12]
 8004692:	23b0      	movs	r3, #176	; 0xb0
 8004694:	005b      	lsls	r3, r3, #1
 8004696:	5ad1      	ldrh	r1, [r2, r3]
 8004698:	2308      	movs	r3, #8
 800469a:	18fa      	adds	r2, r7, r3
 800469c:	183b      	adds	r3, r7, r0
 800469e:	1c0c      	adds	r4, r1, #0
 80046a0:	881b      	ldrh	r3, [r3, #0]
 80046a2:	b298      	uxth	r0, r3
 80046a4:	b2a1      	uxth	r1, r4
 80046a6:	4288      	cmp	r0, r1
 80046a8:	d900      	bls.n	80046ac <HTTPHandle+0x118>
 80046aa:	1c23      	adds	r3, r4, #0
 80046ac:	8013      	strh	r3, [r2, #0]
 80046ae:	2513      	movs	r5, #19
 80046b0:	197b      	adds	r3, r7, r5
 80046b2:	7818      	ldrb	r0, [r3, #0]
 80046b4:	68fa      	ldr	r2, [r7, #12]
 80046b6:	23ad      	movs	r3, #173	; 0xad
 80046b8:	005b      	lsls	r3, r3, #1
 80046ba:	5ad2      	ldrh	r2, [r2, r3]
 80046bc:	2408      	movs	r4, #8
 80046be:	193b      	adds	r3, r7, r4
 80046c0:	881b      	ldrh	r3, [r3, #0]
 80046c2:	18d3      	adds	r3, r2, r3
 80046c4:	b29b      	uxth	r3, r3
 80046c6:	0019      	movs	r1, r3
 80046c8:	f7fe fcf2 	bl	80030b0 <CH395StartSendingData>
 80046cc:	68fa      	ldr	r2, [r7, #12]
 80046ce:	23ae      	movs	r3, #174	; 0xae
 80046d0:	005b      	lsls	r3, r3, #1
 80046d2:	58d0      	ldr	r0, [r2, r3]
 80046d4:	68fa      	ldr	r2, [r7, #12]
 80046d6:	23ad      	movs	r3, #173	; 0xad
 80046d8:	005b      	lsls	r3, r3, #1
 80046da:	5ad3      	ldrh	r3, [r2, r3]
 80046dc:	0019      	movs	r1, r3
 80046de:	f7fe fd0d 	bl	80030fc <CH395ContinueSendingData>
 80046e2:	68fa      	ldr	r2, [r7, #12]
 80046e4:	23b2      	movs	r3, #178	; 0xb2
 80046e6:	005b      	lsls	r3, r3, #1
 80046e8:	58d2      	ldr	r2, [r2, r3]
 80046ea:	193b      	adds	r3, r7, r4
 80046ec:	881b      	ldrh	r3, [r3, #0]
 80046ee:	0019      	movs	r1, r3
 80046f0:	0010      	movs	r0, r2
 80046f2:	f7fe fd03 	bl	80030fc <CH395ContinueSendingData>
 80046f6:	f7fe fd27 	bl	8003148 <CH395Complete>
 80046fa:	4b87      	ldr	r3, [pc, #540]	; (8004918 <HTTPHandle+0x384>)
 80046fc:	78db      	ldrb	r3, [r3, #3]
 80046fe:	b2db      	uxtb	r3, r3
 8004700:	b25b      	sxtb	r3, r3
 8004702:	197a      	adds	r2, r7, r5
 8004704:	7812      	ldrb	r2, [r2, #0]
 8004706:	b252      	sxtb	r2, r2
 8004708:	2101      	movs	r1, #1
 800470a:	4091      	lsls	r1, r2
 800470c:	000a      	movs	r2, r1
 800470e:	b252      	sxtb	r2, r2
 8004710:	43d2      	mvns	r2, r2
 8004712:	b252      	sxtb	r2, r2
 8004714:	4013      	ands	r3, r2
 8004716:	b25b      	sxtb	r3, r3
 8004718:	b2da      	uxtb	r2, r3
 800471a:	4b7f      	ldr	r3, [pc, #508]	; (8004918 <HTTPHandle+0x384>)
 800471c:	70da      	strb	r2, [r3, #3]
 800471e:	68fa      	ldr	r2, [r7, #12]
 8004720:	23b0      	movs	r3, #176	; 0xb0
 8004722:	005b      	lsls	r3, r3, #1
 8004724:	5ad2      	ldrh	r2, [r2, r3]
 8004726:	193b      	adds	r3, r7, r4
 8004728:	881b      	ldrh	r3, [r3, #0]
 800472a:	1ad3      	subs	r3, r2, r3
 800472c:	b299      	uxth	r1, r3
 800472e:	68fa      	ldr	r2, [r7, #12]
 8004730:	23b0      	movs	r3, #176	; 0xb0
 8004732:	005b      	lsls	r3, r3, #1
 8004734:	52d1      	strh	r1, [r2, r3]
 8004736:	68fa      	ldr	r2, [r7, #12]
 8004738:	23b2      	movs	r3, #178	; 0xb2
 800473a:	005b      	lsls	r3, r3, #1
 800473c:	58d2      	ldr	r2, [r2, r3]
 800473e:	193b      	adds	r3, r7, r4
 8004740:	881b      	ldrh	r3, [r3, #0]
 8004742:	18d1      	adds	r1, r2, r3
 8004744:	68fa      	ldr	r2, [r7, #12]
 8004746:	23b2      	movs	r3, #178	; 0xb2
 8004748:	005b      	lsls	r3, r3, #1
 800474a:	50d1      	str	r1, [r2, r3]
 800474c:	68fa      	ldr	r2, [r7, #12]
 800474e:	23b0      	movs	r3, #176	; 0xb0
 8004750:	005b      	lsls	r3, r3, #1
 8004752:	5ad3      	ldrh	r3, [r2, r3]
 8004754:	2b00      	cmp	r3, #0
 8004756:	d13d      	bne.n	80047d4 <HTTPHandle+0x240>
 8004758:	2313      	movs	r3, #19
 800475a:	18fb      	adds	r3, r7, r3
 800475c:	781b      	ldrb	r3, [r3, #0]
 800475e:	0018      	movs	r0, r3
 8004760:	f000 f8e2 	bl	8004928 <HTTPclose>
 8004764:	68fb      	ldr	r3, [r7, #12]
 8004766:	0018      	movs	r0, r3
 8004768:	f7ff faa8 	bl	8003cbc <resetHTTPParseState>
 800476c:	2317      	movs	r3, #23
 800476e:	18fb      	adds	r3, r7, r3
 8004770:	2201      	movs	r2, #1
 8004772:	701a      	strb	r2, [r3, #0]
 8004774:	e028      	b.n	80047c8 <HTTPHandle+0x234>
 8004776:	2317      	movs	r3, #23
 8004778:	18fb      	adds	r3, r7, r3
 800477a:	781b      	ldrb	r3, [r3, #0]
 800477c:	1e5a      	subs	r2, r3, #1
 800477e:	4963      	ldr	r1, [pc, #396]	; (800490c <HTTPHandle+0x378>)
 8004780:	23b4      	movs	r3, #180	; 0xb4
 8004782:	005b      	lsls	r3, r3, #1
 8004784:	20b6      	movs	r0, #182	; 0xb6
 8004786:	0040      	lsls	r0, r0, #1
 8004788:	4342      	muls	r2, r0
 800478a:	188a      	adds	r2, r1, r2
 800478c:	18d3      	adds	r3, r2, r3
 800478e:	781b      	ldrb	r3, [r3, #0]
 8004790:	b2db      	uxtb	r3, r3
 8004792:	2b00      	cmp	r3, #0
 8004794:	d012      	beq.n	80047bc <HTTPHandle+0x228>
 8004796:	687b      	ldr	r3, [r7, #4]
 8004798:	781b      	ldrb	r3, [r3, #0]
 800479a:	b2db      	uxtb	r3, r3
 800479c:	001a      	movs	r2, r3
 800479e:	2317      	movs	r3, #23
 80047a0:	18fb      	adds	r3, r7, r3
 80047a2:	781b      	ldrb	r3, [r3, #0]
 80047a4:	411a      	asrs	r2, r3
 80047a6:	0013      	movs	r3, r2
 80047a8:	2201      	movs	r2, #1
 80047aa:	4013      	ands	r3, r2
 80047ac:	d006      	beq.n	80047bc <HTTPHandle+0x228>
 80047ae:	2317      	movs	r3, #23
 80047b0:	18fb      	adds	r3, r7, r3
 80047b2:	2200      	movs	r2, #0
 80047b4:	569a      	ldrsb	r2, [r3, r2]
 80047b6:	687b      	ldr	r3, [r7, #4]
 80047b8:	709a      	strb	r2, [r3, #2]
 80047ba:	e0b1      	b.n	8004920 <HTTPHandle+0x38c>
 80047bc:	2217      	movs	r2, #23
 80047be:	18bb      	adds	r3, r7, r2
 80047c0:	18ba      	adds	r2, r7, r2
 80047c2:	7812      	ldrb	r2, [r2, #0]
 80047c4:	3201      	adds	r2, #1
 80047c6:	701a      	strb	r2, [r3, #0]
 80047c8:	2317      	movs	r3, #23
 80047ca:	18fb      	adds	r3, r7, r3
 80047cc:	781b      	ldrb	r3, [r3, #0]
 80047ce:	2b07      	cmp	r3, #7
 80047d0:	d9d1      	bls.n	8004776 <HTTPHandle+0x1e2>
 80047d2:	e0a5      	b.n	8004920 <HTTPHandle+0x38c>
 80047d4:	68fa      	ldr	r2, [r7, #12]
 80047d6:	23ac      	movs	r3, #172	; 0xac
 80047d8:	005b      	lsls	r3, r3, #1
 80047da:	2102      	movs	r1, #2
 80047dc:	54d1      	strb	r1, [r2, r3]
 80047de:	e09f      	b.n	8004920 <HTTPHandle+0x38c>
 80047e0:	68fa      	ldr	r2, [r7, #12]
 80047e2:	23ac      	movs	r3, #172	; 0xac
 80047e4:	005b      	lsls	r3, r3, #1
 80047e6:	5cd3      	ldrb	r3, [r2, r3]
 80047e8:	2b02      	cmp	r3, #2
 80047ea:	d000      	beq.n	80047ee <HTTPHandle+0x25a>
 80047ec:	e098      	b.n	8004920 <HTTPHandle+0x38c>
 80047ee:	2414      	movs	r4, #20
 80047f0:	193b      	adds	r3, r7, r4
 80047f2:	68f9      	ldr	r1, [r7, #12]
 80047f4:	22b0      	movs	r2, #176	; 0xb0
 80047f6:	0052      	lsls	r2, r2, #1
 80047f8:	5a8a      	ldrh	r2, [r1, r2]
 80047fa:	801a      	strh	r2, [r3, #0]
 80047fc:	2313      	movs	r3, #19
 80047fe:	18fb      	adds	r3, r7, r3
 8004800:	7818      	ldrb	r0, [r3, #0]
 8004802:	68fa      	ldr	r2, [r7, #12]
 8004804:	23b2      	movs	r3, #178	; 0xb2
 8004806:	005b      	lsls	r3, r3, #1
 8004808:	58d1      	ldr	r1, [r2, r3]
 800480a:	193b      	adds	r3, r7, r4
 800480c:	881b      	ldrh	r3, [r3, #0]
 800480e:	4a43      	ldr	r2, [pc, #268]	; (800491c <HTTPHandle+0x388>)
 8004810:	4293      	cmp	r3, r2
 8004812:	d905      	bls.n	8004820 <HTTPHandle+0x28c>
 8004814:	2314      	movs	r3, #20
 8004816:	18fb      	adds	r3, r7, r3
 8004818:	4a3e      	ldr	r2, [pc, #248]	; (8004914 <HTTPHandle+0x380>)
 800481a:	801a      	strh	r2, [r3, #0]
 800481c:	4b3d      	ldr	r3, [pc, #244]	; (8004914 <HTTPHandle+0x380>)
 800481e:	e002      	b.n	8004826 <HTTPHandle+0x292>
 8004820:	2314      	movs	r3, #20
 8004822:	18fb      	adds	r3, r7, r3
 8004824:	881b      	ldrh	r3, [r3, #0]
 8004826:	001a      	movs	r2, r3
 8004828:	f7fe fbd0 	bl	8002fcc <CH395SendData>
 800482c:	4b3a      	ldr	r3, [pc, #232]	; (8004918 <HTTPHandle+0x384>)
 800482e:	78db      	ldrb	r3, [r3, #3]
 8004830:	b2db      	uxtb	r3, r3
 8004832:	b25b      	sxtb	r3, r3
 8004834:	2213      	movs	r2, #19
 8004836:	18ba      	adds	r2, r7, r2
 8004838:	7812      	ldrb	r2, [r2, #0]
 800483a:	b252      	sxtb	r2, r2
 800483c:	2101      	movs	r1, #1
 800483e:	4091      	lsls	r1, r2
 8004840:	000a      	movs	r2, r1
 8004842:	b252      	sxtb	r2, r2
 8004844:	43d2      	mvns	r2, r2
 8004846:	b252      	sxtb	r2, r2
 8004848:	4013      	ands	r3, r2
 800484a:	b25b      	sxtb	r3, r3
 800484c:	b2da      	uxtb	r2, r3
 800484e:	4b32      	ldr	r3, [pc, #200]	; (8004918 <HTTPHandle+0x384>)
 8004850:	70da      	strb	r2, [r3, #3]
 8004852:	68fa      	ldr	r2, [r7, #12]
 8004854:	23b0      	movs	r3, #176	; 0xb0
 8004856:	005b      	lsls	r3, r3, #1
 8004858:	5ad2      	ldrh	r2, [r2, r3]
 800485a:	2014      	movs	r0, #20
 800485c:	183b      	adds	r3, r7, r0
 800485e:	881b      	ldrh	r3, [r3, #0]
 8004860:	1ad3      	subs	r3, r2, r3
 8004862:	b299      	uxth	r1, r3
 8004864:	68fa      	ldr	r2, [r7, #12]
 8004866:	23b0      	movs	r3, #176	; 0xb0
 8004868:	005b      	lsls	r3, r3, #1
 800486a:	52d1      	strh	r1, [r2, r3]
 800486c:	68fa      	ldr	r2, [r7, #12]
 800486e:	23b2      	movs	r3, #178	; 0xb2
 8004870:	005b      	lsls	r3, r3, #1
 8004872:	58d2      	ldr	r2, [r2, r3]
 8004874:	183b      	adds	r3, r7, r0
 8004876:	881b      	ldrh	r3, [r3, #0]
 8004878:	18d1      	adds	r1, r2, r3
 800487a:	68fa      	ldr	r2, [r7, #12]
 800487c:	23b2      	movs	r3, #178	; 0xb2
 800487e:	005b      	lsls	r3, r3, #1
 8004880:	50d1      	str	r1, [r2, r3]
 8004882:	68fa      	ldr	r2, [r7, #12]
 8004884:	23b0      	movs	r3, #176	; 0xb0
 8004886:	005b      	lsls	r3, r3, #1
 8004888:	5ad3      	ldrh	r3, [r2, r3]
 800488a:	2b00      	cmp	r3, #0
 800488c:	d148      	bne.n	8004920 <HTTPHandle+0x38c>
 800488e:	2313      	movs	r3, #19
 8004890:	18fb      	adds	r3, r7, r3
 8004892:	781b      	ldrb	r3, [r3, #0]
 8004894:	0018      	movs	r0, r3
 8004896:	f000 f847 	bl	8004928 <HTTPclose>
 800489a:	68fb      	ldr	r3, [r7, #12]
 800489c:	0018      	movs	r0, r3
 800489e:	f7ff fa0d 	bl	8003cbc <resetHTTPParseState>
 80048a2:	2317      	movs	r3, #23
 80048a4:	18fb      	adds	r3, r7, r3
 80048a6:	2201      	movs	r2, #1
 80048a8:	701a      	strb	r2, [r3, #0]
 80048aa:	e028      	b.n	80048fe <HTTPHandle+0x36a>
 80048ac:	2317      	movs	r3, #23
 80048ae:	18fb      	adds	r3, r7, r3
 80048b0:	781b      	ldrb	r3, [r3, #0]
 80048b2:	1e5a      	subs	r2, r3, #1
 80048b4:	4915      	ldr	r1, [pc, #84]	; (800490c <HTTPHandle+0x378>)
 80048b6:	23b4      	movs	r3, #180	; 0xb4
 80048b8:	005b      	lsls	r3, r3, #1
 80048ba:	20b6      	movs	r0, #182	; 0xb6
 80048bc:	0040      	lsls	r0, r0, #1
 80048be:	4342      	muls	r2, r0
 80048c0:	188a      	adds	r2, r1, r2
 80048c2:	18d3      	adds	r3, r2, r3
 80048c4:	781b      	ldrb	r3, [r3, #0]
 80048c6:	b2db      	uxtb	r3, r3
 80048c8:	2b00      	cmp	r3, #0
 80048ca:	d012      	beq.n	80048f2 <HTTPHandle+0x35e>
 80048cc:	687b      	ldr	r3, [r7, #4]
 80048ce:	781b      	ldrb	r3, [r3, #0]
 80048d0:	b2db      	uxtb	r3, r3
 80048d2:	001a      	movs	r2, r3
 80048d4:	2317      	movs	r3, #23
 80048d6:	18fb      	adds	r3, r7, r3
 80048d8:	781b      	ldrb	r3, [r3, #0]
 80048da:	411a      	asrs	r2, r3
 80048dc:	0013      	movs	r3, r2
 80048de:	2201      	movs	r2, #1
 80048e0:	4013      	ands	r3, r2
 80048e2:	d006      	beq.n	80048f2 <HTTPHandle+0x35e>
 80048e4:	2317      	movs	r3, #23
 80048e6:	18fb      	adds	r3, r7, r3
 80048e8:	2200      	movs	r2, #0
 80048ea:	569a      	ldrsb	r2, [r3, r2]
 80048ec:	687b      	ldr	r3, [r7, #4]
 80048ee:	709a      	strb	r2, [r3, #2]
 80048f0:	e016      	b.n	8004920 <HTTPHandle+0x38c>
 80048f2:	2217      	movs	r2, #23
 80048f4:	18bb      	adds	r3, r7, r2
 80048f6:	18ba      	adds	r2, r7, r2
 80048f8:	7812      	ldrb	r2, [r2, #0]
 80048fa:	3201      	adds	r2, #1
 80048fc:	701a      	strb	r2, [r3, #0]
 80048fe:	2317      	movs	r3, #23
 8004900:	18fb      	adds	r3, r7, r3
 8004902:	781b      	ldrb	r3, [r3, #0]
 8004904:	2b07      	cmp	r3, #7
 8004906:	d9d1      	bls.n	80048ac <HTTPHandle+0x318>
 8004908:	e00a      	b.n	8004920 <HTTPHandle+0x38c>
 800490a:	46c0      	nop			; (mov r8, r8)
 800490c:	20000980 	.word	0x20000980
 8004910:	20000814 	.word	0x20000814
 8004914:	00000546 	.word	0x00000546
 8004918:	20000000 	.word	0x20000000
 800491c:	00000545 	.word	0x00000545
 8004920:	46c0      	nop			; (mov r8, r8)
 8004922:	46bd      	mov	sp, r7
 8004924:	b006      	add	sp, #24
 8004926:	bdb0      	pop	{r4, r5, r7, pc}

08004928 <HTTPclose>:
 8004928:	b580      	push	{r7, lr}
 800492a:	b082      	sub	sp, #8
 800492c:	af00      	add	r7, sp, #0
 800492e:	0002      	movs	r2, r0
 8004930:	1dfb      	adds	r3, r7, #7
 8004932:	701a      	strb	r2, [r3, #0]
 8004934:	1dfb      	adds	r3, r7, #7
 8004936:	781b      	ldrb	r3, [r3, #0]
 8004938:	0018      	movs	r0, r3
 800493a:	f7fe fd37 	bl	80033ac <CH395TCPDisconnect>
 800493e:	4b14      	ldr	r3, [pc, #80]	; (8004990 <HTTPclose+0x68>)
 8004940:	785b      	ldrb	r3, [r3, #1]
 8004942:	b2db      	uxtb	r3, r3
 8004944:	b25b      	sxtb	r3, r3
 8004946:	1dfa      	adds	r2, r7, #7
 8004948:	7812      	ldrb	r2, [r2, #0]
 800494a:	2101      	movs	r1, #1
 800494c:	4091      	lsls	r1, r2
 800494e:	000a      	movs	r2, r1
 8004950:	b252      	sxtb	r2, r2
 8004952:	43d2      	mvns	r2, r2
 8004954:	b252      	sxtb	r2, r2
 8004956:	4013      	ands	r3, r2
 8004958:	b25b      	sxtb	r3, r3
 800495a:	b2da      	uxtb	r2, r3
 800495c:	4b0c      	ldr	r3, [pc, #48]	; (8004990 <HTTPclose+0x68>)
 800495e:	705a      	strb	r2, [r3, #1]
 8004960:	4b0b      	ldr	r3, [pc, #44]	; (8004990 <HTTPclose+0x68>)
 8004962:	781b      	ldrb	r3, [r3, #0]
 8004964:	b2db      	uxtb	r3, r3
 8004966:	b25b      	sxtb	r3, r3
 8004968:	1dfa      	adds	r2, r7, #7
 800496a:	7812      	ldrb	r2, [r2, #0]
 800496c:	2101      	movs	r1, #1
 800496e:	4091      	lsls	r1, r2
 8004970:	000a      	movs	r2, r1
 8004972:	b252      	sxtb	r2, r2
 8004974:	43d2      	mvns	r2, r2
 8004976:	b252      	sxtb	r2, r2
 8004978:	4013      	ands	r3, r2
 800497a:	b25b      	sxtb	r3, r3
 800497c:	b2da      	uxtb	r2, r3
 800497e:	4b04      	ldr	r3, [pc, #16]	; (8004990 <HTTPclose+0x68>)
 8004980:	701a      	strb	r2, [r3, #0]
 8004982:	4b03      	ldr	r3, [pc, #12]	; (8004990 <HTTPclose+0x68>)
 8004984:	22ff      	movs	r2, #255	; 0xff
 8004986:	709a      	strb	r2, [r3, #2]
 8004988:	46c0      	nop			; (mov r8, r8)
 800498a:	46bd      	mov	sp, r7
 800498c:	b002      	add	sp, #8
 800498e:	bd80      	pop	{r7, pc}
 8004990:	20000000 	.word	0x20000000

08004994 <strsepstr>:
 8004994:	b580      	push	{r7, lr}
 8004996:	b086      	sub	sp, #24
 8004998:	af00      	add	r7, sp, #0
 800499a:	6078      	str	r0, [r7, #4]
 800499c:	6039      	str	r1, [r7, #0]
 800499e:	683b      	ldr	r3, [r7, #0]
 80049a0:	0018      	movs	r0, r3
 80049a2:	f7fb fbbb 	bl	800011c <strlen>
 80049a6:	0003      	movs	r3, r0
 80049a8:	617b      	str	r3, [r7, #20]
 80049aa:	687b      	ldr	r3, [r7, #4]
 80049ac:	681b      	ldr	r3, [r3, #0]
 80049ae:	613b      	str	r3, [r7, #16]
 80049b0:	693b      	ldr	r3, [r7, #16]
 80049b2:	2b00      	cmp	r3, #0
 80049b4:	d019      	beq.n	80049ea <strsepstr+0x56>
 80049b6:	683a      	ldr	r2, [r7, #0]
 80049b8:	693b      	ldr	r3, [r7, #16]
 80049ba:	0011      	movs	r1, r2
 80049bc:	0018      	movs	r0, r3
 80049be:	f001 fc9e 	bl	80062fe <strstr>
 80049c2:	0003      	movs	r3, r0
 80049c4:	60fb      	str	r3, [r7, #12]
 80049c6:	68fb      	ldr	r3, [r7, #12]
 80049c8:	2b00      	cmp	r3, #0
 80049ca:	d00b      	beq.n	80049e4 <strsepstr+0x50>
 80049cc:	697a      	ldr	r2, [r7, #20]
 80049ce:	68fb      	ldr	r3, [r7, #12]
 80049d0:	2100      	movs	r1, #0
 80049d2:	0018      	movs	r0, r3
 80049d4:	f001 fc0d 	bl	80061f2 <memset>
 80049d8:	697b      	ldr	r3, [r7, #20]
 80049da:	68fa      	ldr	r2, [r7, #12]
 80049dc:	18d2      	adds	r2, r2, r3
 80049de:	687b      	ldr	r3, [r7, #4]
 80049e0:	601a      	str	r2, [r3, #0]
 80049e2:	e002      	b.n	80049ea <strsepstr+0x56>
 80049e4:	687b      	ldr	r3, [r7, #4]
 80049e6:	2200      	movs	r2, #0
 80049e8:	601a      	str	r2, [r3, #0]
 80049ea:	693b      	ldr	r3, [r7, #16]
 80049ec:	0018      	movs	r0, r3
 80049ee:	46bd      	mov	sp, r7
 80049f0:	b006      	add	sp, #24
 80049f2:	bd80      	pop	{r7, pc}

080049f4 <parse_http>:
 80049f4:	b580      	push	{r7, lr}
 80049f6:	b08a      	sub	sp, #40	; 0x28
 80049f8:	af00      	add	r7, sp, #0
 80049fa:	6078      	str	r0, [r7, #4]
 80049fc:	6039      	str	r1, [r7, #0]
 80049fe:	687b      	ldr	r3, [r7, #4]
 8004a00:	781b      	ldrb	r3, [r3, #0]
 8004a02:	2b01      	cmp	r3, #1
 8004a04:	d100      	bne.n	8004a08 <parse_http+0x14>
 8004a06:	e0b6      	b.n	8004b76 <parse_http+0x182>
 8004a08:	dc02      	bgt.n	8004a10 <parse_http+0x1c>
 8004a0a:	2b00      	cmp	r3, #0
 8004a0c:	d007      	beq.n	8004a1e <parse_http+0x2a>
 8004a0e:	e162      	b.n	8004cd6 <parse_http+0x2e2>
 8004a10:	2b03      	cmp	r3, #3
 8004a12:	d100      	bne.n	8004a16 <parse_http+0x22>
 8004a14:	e11f      	b.n	8004c56 <parse_http+0x262>
 8004a16:	2b04      	cmp	r3, #4
 8004a18:	d100      	bne.n	8004a1c <parse_http+0x28>
 8004a1a:	e157      	b.n	8004ccc <parse_http+0x2d8>
 8004a1c:	e15b      	b.n	8004cd6 <parse_http+0x2e2>
 8004a1e:	683b      	ldr	r3, [r7, #0]
 8004a20:	617b      	str	r3, [r7, #20]
 8004a22:	4aba      	ldr	r2, [pc, #744]	; (8004d0c <parse_http+0x318>)
 8004a24:	2314      	movs	r3, #20
 8004a26:	18fb      	adds	r3, r7, r3
 8004a28:	0011      	movs	r1, r2
 8004a2a:	0018      	movs	r0, r3
 8004a2c:	f7ff ffb2 	bl	8004994 <strsepstr>
 8004a30:	0003      	movs	r3, r0
 8004a32:	627b      	str	r3, [r7, #36]	; 0x24
 8004a34:	6a7b      	ldr	r3, [r7, #36]	; 0x24
 8004a36:	2b00      	cmp	r3, #0
 8004a38:	d100      	bne.n	8004a3c <parse_http+0x48>
 8004a3a:	e14e      	b.n	8004cda <parse_http+0x2e6>
 8004a3c:	46c0      	nop			; (mov r8, r8)
 8004a3e:	2380      	movs	r3, #128	; 0x80
 8004a40:	011a      	lsls	r2, r3, #4
 8004a42:	49b3      	ldr	r1, [pc, #716]	; (8004d10 <parse_http+0x31c>)
 8004a44:	6a7b      	ldr	r3, [r7, #36]	; 0x24
 8004a46:	0018      	movs	r0, r3
 8004a48:	f001 fc3a 	bl	80062c0 <strnstr>
 8004a4c:	1e03      	subs	r3, r0, #0
 8004a4e:	d101      	bne.n	8004a54 <parse_http+0x60>
 8004a50:	46c0      	nop			; (mov r8, r8)
 8004a52:	e14d      	b.n	8004cf0 <parse_http+0x2fc>
 8004a54:	2310      	movs	r3, #16
 8004a56:	18fa      	adds	r2, r7, r3
 8004a58:	49ae      	ldr	r1, [pc, #696]	; (8004d14 <parse_http+0x320>)
 8004a5a:	6a7b      	ldr	r3, [r7, #36]	; 0x24
 8004a5c:	0018      	movs	r0, r3
 8004a5e:	f001 fcbc 	bl	80063da <strtok_r>
 8004a62:	0003      	movs	r3, r0
 8004a64:	61fb      	str	r3, [r7, #28]
 8004a66:	69fb      	ldr	r3, [r7, #28]
 8004a68:	2b00      	cmp	r3, #0
 8004a6a:	d100      	bne.n	8004a6e <parse_http+0x7a>
 8004a6c:	e137      	b.n	8004cde <parse_http+0x2ea>
 8004a6e:	46c0      	nop			; (mov r8, r8)
 8004a70:	4aa9      	ldr	r2, [pc, #676]	; (8004d18 <parse_http+0x324>)
 8004a72:	69fb      	ldr	r3, [r7, #28]
 8004a74:	0011      	movs	r1, r2
 8004a76:	0018      	movs	r0, r3
 8004a78:	f7fb fb46 	bl	8000108 <strcmp>
 8004a7c:	1e03      	subs	r3, r0, #0
 8004a7e:	d103      	bne.n	8004a88 <parse_http+0x94>
 8004a80:	687b      	ldr	r3, [r7, #4]
 8004a82:	2200      	movs	r2, #0
 8004a84:	70da      	strb	r2, [r3, #3]
 8004a86:	e00e      	b.n	8004aa6 <parse_http+0xb2>
 8004a88:	4aa4      	ldr	r2, [pc, #656]	; (8004d1c <parse_http+0x328>)
 8004a8a:	69fb      	ldr	r3, [r7, #28]
 8004a8c:	0011      	movs	r1, r2
 8004a8e:	0018      	movs	r0, r3
 8004a90:	f7fb fb3a 	bl	8000108 <strcmp>
 8004a94:	1e03      	subs	r3, r0, #0
 8004a96:	d103      	bne.n	8004aa0 <parse_http+0xac>
 8004a98:	687b      	ldr	r3, [r7, #4]
 8004a9a:	2201      	movs	r2, #1
 8004a9c:	70da      	strb	r2, [r3, #3]
 8004a9e:	e002      	b.n	8004aa6 <parse_http+0xb2>
 8004aa0:	687b      	ldr	r3, [r7, #4]
 8004aa2:	2200      	movs	r2, #0
 8004aa4:	70da      	strb	r2, [r3, #3]
 8004aa6:	2310      	movs	r3, #16
 8004aa8:	18fa      	adds	r2, r7, r3
 8004aaa:	4b9a      	ldr	r3, [pc, #616]	; (8004d14 <parse_http+0x320>)
 8004aac:	0019      	movs	r1, r3
 8004aae:	2000      	movs	r0, #0
 8004ab0:	f001 fc93 	bl	80063da <strtok_r>
 8004ab4:	0003      	movs	r3, r0
 8004ab6:	61fb      	str	r3, [r7, #28]
 8004ab8:	69fb      	ldr	r3, [r7, #28]
 8004aba:	2b00      	cmp	r3, #0
 8004abc:	d100      	bne.n	8004ac0 <parse_http+0xcc>
 8004abe:	e110      	b.n	8004ce2 <parse_http+0x2ee>
 8004ac0:	687b      	ldr	r3, [r7, #4]
 8004ac2:	3305      	adds	r3, #5
 8004ac4:	69f9      	ldr	r1, [r7, #28]
 8004ac6:	2240      	movs	r2, #64	; 0x40
 8004ac8:	0018      	movs	r0, r3
 8004aca:	f001 fbe5 	bl	8006298 <strncpy>
 8004ace:	46c0      	nop			; (mov r8, r8)
 8004ad0:	687b      	ldr	r3, [r7, #4]
 8004ad2:	3305      	adds	r3, #5
 8004ad4:	213f      	movs	r1, #63	; 0x3f
 8004ad6:	0018      	movs	r0, r3
 8004ad8:	f001 fba1 	bl	800621e <strchr>
 8004adc:	0003      	movs	r3, r0
 8004ade:	61bb      	str	r3, [r7, #24]
 8004ae0:	687b      	ldr	r3, [r7, #4]
 8004ae2:	78db      	ldrb	r3, [r3, #3]
 8004ae4:	2b00      	cmp	r3, #0
 8004ae6:	d132      	bne.n	8004b4e <parse_http+0x15a>
 8004ae8:	69bb      	ldr	r3, [r7, #24]
 8004aea:	2b00      	cmp	r3, #0
 8004aec:	d02f      	beq.n	8004b4e <parse_http+0x15a>
 8004aee:	69bb      	ldr	r3, [r7, #24]
 8004af0:	2200      	movs	r2, #0
 8004af2:	701a      	strb	r2, [r3, #0]
 8004af4:	46c0      	nop			; (mov r8, r8)
 8004af6:	69bb      	ldr	r3, [r7, #24]
 8004af8:	3301      	adds	r3, #1
 8004afa:	61bb      	str	r3, [r7, #24]
 8004afc:	69bb      	ldr	r3, [r7, #24]
 8004afe:	781b      	ldrb	r3, [r3, #0]
 8004b00:	2b00      	cmp	r3, #0
 8004b02:	d024      	beq.n	8004b4e <parse_http+0x15a>
 8004b04:	230c      	movs	r3, #12
 8004b06:	18fa      	adds	r2, r7, r3
 8004b08:	4985      	ldr	r1, [pc, #532]	; (8004d20 <parse_http+0x32c>)
 8004b0a:	69bb      	ldr	r3, [r7, #24]
 8004b0c:	0018      	movs	r0, r3
 8004b0e:	f001 fc64 	bl	80063da <strtok_r>
 8004b12:	0003      	movs	r3, r0
 8004b14:	623b      	str	r3, [r7, #32]
 8004b16:	e017      	b.n	8004b48 <parse_http+0x154>
 8004b18:	46c0      	nop			; (mov r8, r8)
 8004b1a:	687b      	ldr	r3, [r7, #4]
 8004b1c:	2245      	movs	r2, #69	; 0x45
 8004b1e:	5c9b      	ldrb	r3, [r3, r2]
 8004b20:	1c5a      	adds	r2, r3, #1
 8004b22:	b2d0      	uxtb	r0, r2
 8004b24:	687a      	ldr	r2, [r7, #4]
 8004b26:	2145      	movs	r1, #69	; 0x45
 8004b28:	5450      	strb	r0, [r2, r1]
 8004b2a:	001a      	movs	r2, r3
 8004b2c:	687b      	ldr	r3, [r7, #4]
 8004b2e:	3212      	adds	r2, #18
 8004b30:	0092      	lsls	r2, r2, #2
 8004b32:	6a39      	ldr	r1, [r7, #32]
 8004b34:	50d1      	str	r1, [r2, r3]
 8004b36:	230c      	movs	r3, #12
 8004b38:	18fa      	adds	r2, r7, r3
 8004b3a:	4b79      	ldr	r3, [pc, #484]	; (8004d20 <parse_http+0x32c>)
 8004b3c:	0019      	movs	r1, r3
 8004b3e:	2000      	movs	r0, #0
 8004b40:	f001 fc4b 	bl	80063da <strtok_r>
 8004b44:	0003      	movs	r3, r0
 8004b46:	623b      	str	r3, [r7, #32]
 8004b48:	6a3b      	ldr	r3, [r7, #32]
 8004b4a:	2b00      	cmp	r3, #0
 8004b4c:	d1e4      	bne.n	8004b18 <parse_http+0x124>
 8004b4e:	2310      	movs	r3, #16
 8004b50:	18fa      	adds	r2, r7, r3
 8004b52:	4b70      	ldr	r3, [pc, #448]	; (8004d14 <parse_http+0x320>)
 8004b54:	0019      	movs	r1, r3
 8004b56:	2000      	movs	r0, #0
 8004b58:	f001 fc3f 	bl	80063da <strtok_r>
 8004b5c:	0003      	movs	r3, r0
 8004b5e:	61fb      	str	r3, [r7, #28]
 8004b60:	69fb      	ldr	r3, [r7, #28]
 8004b62:	2b00      	cmp	r3, #0
 8004b64:	d100      	bne.n	8004b68 <parse_http+0x174>
 8004b66:	e0be      	b.n	8004ce6 <parse_http+0x2f2>
 8004b68:	46c0      	nop			; (mov r8, r8)
 8004b6a:	687b      	ldr	r3, [r7, #4]
 8004b6c:	781b      	ldrb	r3, [r3, #0]
 8004b6e:	3301      	adds	r3, #1
 8004b70:	b2da      	uxtb	r2, r3
 8004b72:	687b      	ldr	r3, [r7, #4]
 8004b74:	701a      	strb	r2, [r3, #0]
 8004b76:	4a65      	ldr	r2, [pc, #404]	; (8004d0c <parse_http+0x318>)
 8004b78:	2314      	movs	r3, #20
 8004b7a:	18fb      	adds	r3, r7, r3
 8004b7c:	0011      	movs	r1, r2
 8004b7e:	0018      	movs	r0, r3
 8004b80:	f7ff ff08 	bl	8004994 <strsepstr>
 8004b84:	0003      	movs	r3, r0
 8004b86:	627b      	str	r3, [r7, #36]	; 0x24
 8004b88:	e05c      	b.n	8004c44 <parse_http+0x250>
 8004b8a:	46c0      	nop			; (mov r8, r8)
 8004b8c:	2310      	movs	r3, #16
 8004b8e:	18fa      	adds	r2, r7, r3
 8004b90:	4964      	ldr	r1, [pc, #400]	; (8004d24 <parse_http+0x330>)
 8004b92:	6a7b      	ldr	r3, [r7, #36]	; 0x24
 8004b94:	0018      	movs	r0, r3
 8004b96:	f001 fc20 	bl	80063da <strtok_r>
 8004b9a:	0003      	movs	r3, r0
 8004b9c:	61fb      	str	r3, [r7, #28]
 8004b9e:	69fb      	ldr	r3, [r7, #28]
 8004ba0:	2b00      	cmp	r3, #0
 8004ba2:	d052      	beq.n	8004c4a <parse_http+0x256>
 8004ba4:	69fb      	ldr	r3, [r7, #28]
 8004ba6:	781b      	ldrb	r3, [r3, #0]
 8004ba8:	2b00      	cmp	r3, #0
 8004baa:	d04e      	beq.n	8004c4a <parse_http+0x256>
 8004bac:	69fb      	ldr	r3, [r7, #28]
 8004bae:	2b00      	cmp	r3, #0
 8004bb0:	d03f      	beq.n	8004c32 <parse_http+0x23e>
 8004bb2:	46c0      	nop			; (mov r8, r8)
 8004bb4:	4a5c      	ldr	r2, [pc, #368]	; (8004d28 <parse_http+0x334>)
 8004bb6:	69fb      	ldr	r3, [r7, #28]
 8004bb8:	0011      	movs	r1, r2
 8004bba:	0018      	movs	r0, r3
 8004bbc:	f7fb faa4 	bl	8000108 <strcmp>
 8004bc0:	1e03      	subs	r3, r0, #0
 8004bc2:	d119      	bne.n	8004bf8 <parse_http+0x204>
 8004bc4:	2310      	movs	r3, #16
 8004bc6:	18fa      	adds	r2, r7, r3
 8004bc8:	4b56      	ldr	r3, [pc, #344]	; (8004d24 <parse_http+0x330>)
 8004bca:	0019      	movs	r1, r3
 8004bcc:	2000      	movs	r0, #0
 8004bce:	f001 fc04 	bl	80063da <strtok_r>
 8004bd2:	0003      	movs	r3, r0
 8004bd4:	61fb      	str	r3, [r7, #28]
 8004bd6:	69fb      	ldr	r3, [r7, #28]
 8004bd8:	2b00      	cmp	r3, #0
 8004bda:	d100      	bne.n	8004bde <parse_http+0x1ea>
 8004bdc:	e085      	b.n	8004cea <parse_http+0x2f6>
 8004bde:	46c0      	nop			; (mov r8, r8)
 8004be0:	4a52      	ldr	r2, [pc, #328]	; (8004d2c <parse_http+0x338>)
 8004be2:	69fb      	ldr	r3, [r7, #28]
 8004be4:	0011      	movs	r1, r2
 8004be6:	0018      	movs	r0, r3
 8004be8:	f001 fb89 	bl	80062fe <strstr>
 8004bec:	1e03      	subs	r3, r0, #0
 8004bee:	d020      	beq.n	8004c32 <parse_http+0x23e>
 8004bf0:	687b      	ldr	r3, [r7, #4]
 8004bf2:	2201      	movs	r2, #1
 8004bf4:	711a      	strb	r2, [r3, #4]
 8004bf6:	e01c      	b.n	8004c32 <parse_http+0x23e>
 8004bf8:	4a4d      	ldr	r2, [pc, #308]	; (8004d30 <parse_http+0x33c>)
 8004bfa:	69fb      	ldr	r3, [r7, #28]
 8004bfc:	0011      	movs	r1, r2
 8004bfe:	0018      	movs	r0, r3
 8004c00:	f7fb fa82 	bl	8000108 <strcmp>
 8004c04:	1e03      	subs	r3, r0, #0
 8004c06:	d114      	bne.n	8004c32 <parse_http+0x23e>
 8004c08:	2310      	movs	r3, #16
 8004c0a:	18fa      	adds	r2, r7, r3
 8004c0c:	4b45      	ldr	r3, [pc, #276]	; (8004d24 <parse_http+0x330>)
 8004c0e:	0019      	movs	r1, r3
 8004c10:	2000      	movs	r0, #0
 8004c12:	f001 fbe2 	bl	80063da <strtok_r>
 8004c16:	0003      	movs	r3, r0
 8004c18:	61fb      	str	r3, [r7, #28]
 8004c1a:	69fb      	ldr	r3, [r7, #28]
 8004c1c:	2b00      	cmp	r3, #0
 8004c1e:	d066      	beq.n	8004cee <parse_http+0x2fa>
 8004c20:	687b      	ldr	r3, [r7, #4]
 8004c22:	3358      	adds	r3, #88	; 0x58
 8004c24:	0018      	movs	r0, r3
 8004c26:	2380      	movs	r3, #128	; 0x80
 8004c28:	005a      	lsls	r2, r3, #1
 8004c2a:	69fb      	ldr	r3, [r7, #28]
 8004c2c:	0019      	movs	r1, r3
 8004c2e:	f001 fb33 	bl	8006298 <strncpy>
 8004c32:	4a36      	ldr	r2, [pc, #216]	; (8004d0c <parse_http+0x318>)
 8004c34:	2314      	movs	r3, #20
 8004c36:	18fb      	adds	r3, r7, r3
 8004c38:	0011      	movs	r1, r2
 8004c3a:	0018      	movs	r0, r3
 8004c3c:	f7ff feaa 	bl	8004994 <strsepstr>
 8004c40:	0003      	movs	r3, r0
 8004c42:	627b      	str	r3, [r7, #36]	; 0x24
 8004c44:	6a7b      	ldr	r3, [r7, #36]	; 0x24
 8004c46:	2b00      	cmp	r3, #0
 8004c48:	d19f      	bne.n	8004b8a <parse_http+0x196>
 8004c4a:	687b      	ldr	r3, [r7, #4]
 8004c4c:	781b      	ldrb	r3, [r3, #0]
 8004c4e:	3301      	adds	r3, #1
 8004c50:	b2da      	uxtb	r2, r3
 8004c52:	687b      	ldr	r3, [r7, #4]
 8004c54:	701a      	strb	r2, [r3, #0]
 8004c56:	687b      	ldr	r3, [r7, #4]
 8004c58:	78db      	ldrb	r3, [r3, #3]
 8004c5a:	2b01      	cmp	r3, #1
 8004c5c:	d130      	bne.n	8004cc0 <parse_http+0x2cc>
 8004c5e:	4a2b      	ldr	r2, [pc, #172]	; (8004d0c <parse_http+0x318>)
 8004c60:	2314      	movs	r3, #20
 8004c62:	18fb      	adds	r3, r7, r3
 8004c64:	0011      	movs	r1, r2
 8004c66:	0018      	movs	r0, r3
 8004c68:	f7ff fe94 	bl	8004994 <strsepstr>
 8004c6c:	0003      	movs	r3, r0
 8004c6e:	627b      	str	r3, [r7, #36]	; 0x24
 8004c70:	6a7b      	ldr	r3, [r7, #36]	; 0x24
 8004c72:	2b00      	cmp	r3, #0
 8004c74:	d024      	beq.n	8004cc0 <parse_http+0x2cc>
 8004c76:	230c      	movs	r3, #12
 8004c78:	18fa      	adds	r2, r7, r3
 8004c7a:	4929      	ldr	r1, [pc, #164]	; (8004d20 <parse_http+0x32c>)
 8004c7c:	6a7b      	ldr	r3, [r7, #36]	; 0x24
 8004c7e:	0018      	movs	r0, r3
 8004c80:	f001 fbab 	bl	80063da <strtok_r>
 8004c84:	0003      	movs	r3, r0
 8004c86:	623b      	str	r3, [r7, #32]
 8004c88:	e017      	b.n	8004cba <parse_http+0x2c6>
 8004c8a:	46c0      	nop			; (mov r8, r8)
 8004c8c:	687b      	ldr	r3, [r7, #4]
 8004c8e:	2245      	movs	r2, #69	; 0x45
 8004c90:	5c9b      	ldrb	r3, [r3, r2]
 8004c92:	1c5a      	adds	r2, r3, #1
 8004c94:	b2d0      	uxtb	r0, r2
 8004c96:	687a      	ldr	r2, [r7, #4]
 8004c98:	2145      	movs	r1, #69	; 0x45
 8004c9a:	5450      	strb	r0, [r2, r1]
 8004c9c:	001a      	movs	r2, r3
 8004c9e:	687b      	ldr	r3, [r7, #4]
 8004ca0:	3212      	adds	r2, #18
 8004ca2:	0092      	lsls	r2, r2, #2
 8004ca4:	6a39      	ldr	r1, [r7, #32]
 8004ca6:	50d1      	str	r1, [r2, r3]
 8004ca8:	230c      	movs	r3, #12
 8004caa:	18fa      	adds	r2, r7, r3
 8004cac:	4b1c      	ldr	r3, [pc, #112]	; (8004d20 <parse_http+0x32c>)
 8004cae:	0019      	movs	r1, r3
 8004cb0:	2000      	movs	r0, #0
 8004cb2:	f001 fb92 	bl	80063da <strtok_r>
 8004cb6:	0003      	movs	r3, r0
 8004cb8:	623b      	str	r3, [r7, #32]
 8004cba:	6a3b      	ldr	r3, [r7, #32]
 8004cbc:	2b00      	cmp	r3, #0
 8004cbe:	d1e4      	bne.n	8004c8a <parse_http+0x296>
 8004cc0:	687b      	ldr	r3, [r7, #4]
 8004cc2:	781b      	ldrb	r3, [r3, #0]
 8004cc4:	3301      	adds	r3, #1
 8004cc6:	b2da      	uxtb	r2, r3
 8004cc8:	687b      	ldr	r3, [r7, #4]
 8004cca:	701a      	strb	r2, [r3, #0]
 8004ccc:	687a      	ldr	r2, [r7, #4]
 8004cce:	23b4      	movs	r3, #180	; 0xb4
 8004cd0:	005b      	lsls	r3, r3, #1
 8004cd2:	2101      	movs	r1, #1
 8004cd4:	54d1      	strb	r1, [r2, r3]
 8004cd6:	2301      	movs	r3, #1
 8004cd8:	e013      	b.n	8004d02 <parse_http+0x30e>
 8004cda:	46c0      	nop			; (mov r8, r8)
 8004cdc:	e008      	b.n	8004cf0 <parse_http+0x2fc>
 8004cde:	46c0      	nop			; (mov r8, r8)
 8004ce0:	e006      	b.n	8004cf0 <parse_http+0x2fc>
 8004ce2:	46c0      	nop			; (mov r8, r8)
 8004ce4:	e004      	b.n	8004cf0 <parse_http+0x2fc>
 8004ce6:	46c0      	nop			; (mov r8, r8)
 8004ce8:	e002      	b.n	8004cf0 <parse_http+0x2fc>
 8004cea:	46c0      	nop			; (mov r8, r8)
 8004cec:	e000      	b.n	8004cf0 <parse_http+0x2fc>
 8004cee:	46c0      	nop			; (mov r8, r8)
 8004cf0:	687b      	ldr	r3, [r7, #4]
 8004cf2:	2200      	movs	r2, #0
 8004cf4:	701a      	strb	r2, [r3, #0]
 8004cf6:	687a      	ldr	r2, [r7, #4]
 8004cf8:	23b4      	movs	r3, #180	; 0xb4
 8004cfa:	005b      	lsls	r3, r3, #1
 8004cfc:	2100      	movs	r1, #0
 8004cfe:	54d1      	strb	r1, [r2, r3]
 8004d00:	2300      	movs	r3, #0
 8004d02:	0018      	movs	r0, r3
 8004d04:	46bd      	mov	sp, r7
 8004d06:	b00a      	add	sp, #40	; 0x28
 8004d08:	bd80      	pop	{r7, pc}
 8004d0a:	46c0      	nop			; (mov r8, r8)
 8004d0c:	0800678c 	.word	0x0800678c
 8004d10:	08006720 	.word	0x08006720
 8004d14:	08006790 	.word	0x08006790
 8004d18:	08006788 	.word	0x08006788
 8004d1c:	08006780 	.word	0x08006780
 8004d20:	08006728 	.word	0x08006728
 8004d24:	08006794 	.word	0x08006794
 8004d28:	0800676c 	.word	0x0800676c
 8004d2c:	0800672c 	.word	0x0800672c
 8004d30:	08006778 	.word	0x08006778

08004d34 <getHTTPArg>:
 8004d34:	b580      	push	{r7, lr}
 8004d36:	b086      	sub	sp, #24
 8004d38:	af00      	add	r7, sp, #0
 8004d3a:	6078      	str	r0, [r7, #4]
 8004d3c:	6039      	str	r1, [r7, #0]
 8004d3e:	687b      	ldr	r3, [r7, #4]
 8004d40:	2245      	movs	r2, #69	; 0x45
 8004d42:	5c9b      	ldrb	r3, [r3, r2]
 8004d44:	2b00      	cmp	r3, #0
 8004d46:	d101      	bne.n	8004d4c <getHTTPArg+0x18>
 8004d48:	2300      	movs	r3, #0
 8004d4a:	e039      	b.n	8004dc0 <getHTTPArg+0x8c>
 8004d4c:	683b      	ldr	r3, [r7, #0]
 8004d4e:	60fb      	str	r3, [r7, #12]
 8004d50:	2300      	movs	r3, #0
 8004d52:	617b      	str	r3, [r7, #20]
 8004d54:	e02c      	b.n	8004db0 <getHTTPArg+0x7c>
 8004d56:	687b      	ldr	r3, [r7, #4]
 8004d58:	697a      	ldr	r2, [r7, #20]
 8004d5a:	3212      	adds	r2, #18
 8004d5c:	0092      	lsls	r2, r2, #2
 8004d5e:	58d3      	ldr	r3, [r2, r3]
 8004d60:	613b      	str	r3, [r7, #16]
 8004d62:	e00b      	b.n	8004d7c <getHTTPArg+0x48>
 8004d64:	693b      	ldr	r3, [r7, #16]
 8004d66:	781a      	ldrb	r2, [r3, #0]
 8004d68:	68fb      	ldr	r3, [r7, #12]
 8004d6a:	781b      	ldrb	r3, [r3, #0]
 8004d6c:	429a      	cmp	r2, r3
 8004d6e:	d10e      	bne.n	8004d8e <getHTTPArg+0x5a>
 8004d70:	68fb      	ldr	r3, [r7, #12]
 8004d72:	3301      	adds	r3, #1
 8004d74:	60fb      	str	r3, [r7, #12]
 8004d76:	693b      	ldr	r3, [r7, #16]
 8004d78:	3301      	adds	r3, #1
 8004d7a:	613b      	str	r3, [r7, #16]
 8004d7c:	693b      	ldr	r3, [r7, #16]
 8004d7e:	781b      	ldrb	r3, [r3, #0]
 8004d80:	2b00      	cmp	r3, #0
 8004d82:	d005      	beq.n	8004d90 <getHTTPArg+0x5c>
 8004d84:	68fb      	ldr	r3, [r7, #12]
 8004d86:	781b      	ldrb	r3, [r3, #0]
 8004d88:	2b00      	cmp	r3, #0
 8004d8a:	d1eb      	bne.n	8004d64 <getHTTPArg+0x30>
 8004d8c:	e000      	b.n	8004d90 <getHTTPArg+0x5c>
 8004d8e:	46c0      	nop			; (mov r8, r8)
 8004d90:	68fb      	ldr	r3, [r7, #12]
 8004d92:	781b      	ldrb	r3, [r3, #0]
 8004d94:	2b00      	cmp	r3, #0
 8004d96:	d106      	bne.n	8004da6 <getHTTPArg+0x72>
 8004d98:	693b      	ldr	r3, [r7, #16]
 8004d9a:	781b      	ldrb	r3, [r3, #0]
 8004d9c:	2b3d      	cmp	r3, #61	; 0x3d
 8004d9e:	d102      	bne.n	8004da6 <getHTTPArg+0x72>
 8004da0:	693b      	ldr	r3, [r7, #16]
 8004da2:	3301      	adds	r3, #1
 8004da4:	e00c      	b.n	8004dc0 <getHTTPArg+0x8c>
 8004da6:	683b      	ldr	r3, [r7, #0]
 8004da8:	60fb      	str	r3, [r7, #12]
 8004daa:	697b      	ldr	r3, [r7, #20]
 8004dac:	3301      	adds	r3, #1
 8004dae:	617b      	str	r3, [r7, #20]
 8004db0:	687b      	ldr	r3, [r7, #4]
 8004db2:	2245      	movs	r2, #69	; 0x45
 8004db4:	5c9b      	ldrb	r3, [r3, r2]
 8004db6:	001a      	movs	r2, r3
 8004db8:	697b      	ldr	r3, [r7, #20]
 8004dba:	4293      	cmp	r3, r2
 8004dbc:	dbcb      	blt.n	8004d56 <getHTTPArg+0x22>
 8004dbe:	2300      	movs	r3, #0
 8004dc0:	0018      	movs	r0, r3
 8004dc2:	46bd      	mov	sp, r7
 8004dc4:	b006      	add	sp, #24
 8004dc6:	bd80      	pop	{r7, pc}

08004dc8 <atou8>:
 8004dc8:	b580      	push	{r7, lr}
 8004dca:	b084      	sub	sp, #16
 8004dcc:	af00      	add	r7, sp, #0
 8004dce:	6078      	str	r0, [r7, #4]
 8004dd0:	230e      	movs	r3, #14
 8004dd2:	18fb      	adds	r3, r7, r3
 8004dd4:	2200      	movs	r2, #0
 8004dd6:	701a      	strb	r2, [r3, #0]
 8004dd8:	230f      	movs	r3, #15
 8004dda:	18fb      	adds	r3, r7, r3
 8004ddc:	2200      	movs	r2, #0
 8004dde:	701a      	strb	r2, [r3, #0]
 8004de0:	e025      	b.n	8004e2e <atou8+0x66>
 8004de2:	687b      	ldr	r3, [r7, #4]
 8004de4:	781b      	ldrb	r3, [r3, #0]
 8004de6:	2b2f      	cmp	r3, #47	; 0x2f
 8004de8:	d91f      	bls.n	8004e2a <atou8+0x62>
 8004dea:	687b      	ldr	r3, [r7, #4]
 8004dec:	781b      	ldrb	r3, [r3, #0]
 8004dee:	2b39      	cmp	r3, #57	; 0x39
 8004df0:	d81b      	bhi.n	8004e2a <atou8+0x62>
 8004df2:	200e      	movs	r0, #14
 8004df4:	183a      	adds	r2, r7, r0
 8004df6:	183b      	adds	r3, r7, r0
 8004df8:	781b      	ldrb	r3, [r3, #0]
 8004dfa:	1c19      	adds	r1, r3, #0
 8004dfc:	0089      	lsls	r1, r1, #2
 8004dfe:	18cb      	adds	r3, r1, r3
 8004e00:	18db      	adds	r3, r3, r3
 8004e02:	7013      	strb	r3, [r2, #0]
 8004e04:	687b      	ldr	r3, [r7, #4]
 8004e06:	781a      	ldrb	r2, [r3, #0]
 8004e08:	183b      	adds	r3, r7, r0
 8004e0a:	781b      	ldrb	r3, [r3, #0]
 8004e0c:	18d3      	adds	r3, r2, r3
 8004e0e:	b2da      	uxtb	r2, r3
 8004e10:	183b      	adds	r3, r7, r0
 8004e12:	3a30      	subs	r2, #48	; 0x30
 8004e14:	701a      	strb	r2, [r3, #0]
 8004e16:	687b      	ldr	r3, [r7, #4]
 8004e18:	3301      	adds	r3, #1
 8004e1a:	607b      	str	r3, [r7, #4]
 8004e1c:	220f      	movs	r2, #15
 8004e1e:	18bb      	adds	r3, r7, r2
 8004e20:	18ba      	adds	r2, r7, r2
 8004e22:	7812      	ldrb	r2, [r2, #0]
 8004e24:	3201      	adds	r2, #1
 8004e26:	701a      	strb	r2, [r3, #0]
 8004e28:	e001      	b.n	8004e2e <atou8+0x66>
 8004e2a:	23ff      	movs	r3, #255	; 0xff
 8004e2c:	e00b      	b.n	8004e46 <atou8+0x7e>
 8004e2e:	230f      	movs	r3, #15
 8004e30:	18fb      	adds	r3, r7, r3
 8004e32:	781b      	ldrb	r3, [r3, #0]
 8004e34:	2b02      	cmp	r3, #2
 8004e36:	d803      	bhi.n	8004e40 <atou8+0x78>
 8004e38:	687b      	ldr	r3, [r7, #4]
 8004e3a:	781b      	ldrb	r3, [r3, #0]
 8004e3c:	2b00      	cmp	r3, #0
 8004e3e:	d1d0      	bne.n	8004de2 <atou8+0x1a>
 8004e40:	230e      	movs	r3, #14
 8004e42:	18fb      	adds	r3, r7, r3
 8004e44:	781b      	ldrb	r3, [r3, #0]
 8004e46:	0018      	movs	r0, r3
 8004e48:	46bd      	mov	sp, r7
 8004e4a:	b004      	add	sp, #16
 8004e4c:	bd80      	pop	{r7, pc}

08004e4e <u16toa>:
 8004e4e:	b5b0      	push	{r4, r5, r7, lr}
 8004e50:	b084      	sub	sp, #16
 8004e52:	af00      	add	r7, sp, #0
 8004e54:	0002      	movs	r2, r0
 8004e56:	6039      	str	r1, [r7, #0]
 8004e58:	1dbb      	adds	r3, r7, #6
 8004e5a:	801a      	strh	r2, [r3, #0]
 8004e5c:	230f      	movs	r3, #15
 8004e5e:	18fb      	adds	r3, r7, r3
 8004e60:	2200      	movs	r2, #0
 8004e62:	701a      	strb	r2, [r3, #0]
 8004e64:	e01d      	b.n	8004ea2 <u16toa+0x54>
 8004e66:	1dbb      	adds	r3, r7, #6
 8004e68:	881b      	ldrh	r3, [r3, #0]
 8004e6a:	210a      	movs	r1, #10
 8004e6c:	0018      	movs	r0, r3
 8004e6e:	f7fb f9e3 	bl	8000238 <__aeabi_uidivmod>
 8004e72:	000b      	movs	r3, r1
 8004e74:	b29b      	uxth	r3, r3
 8004e76:	b2da      	uxtb	r2, r3
 8004e78:	210f      	movs	r1, #15
 8004e7a:	187b      	adds	r3, r7, r1
 8004e7c:	781b      	ldrb	r3, [r3, #0]
 8004e7e:	1879      	adds	r1, r7, r1
 8004e80:	1c58      	adds	r0, r3, #1
 8004e82:	7008      	strb	r0, [r1, #0]
 8004e84:	0019      	movs	r1, r3
 8004e86:	683b      	ldr	r3, [r7, #0]
 8004e88:	185b      	adds	r3, r3, r1
 8004e8a:	3230      	adds	r2, #48	; 0x30
 8004e8c:	b2d2      	uxtb	r2, r2
 8004e8e:	701a      	strb	r2, [r3, #0]
 8004e90:	1dbc      	adds	r4, r7, #6
 8004e92:	1dbb      	adds	r3, r7, #6
 8004e94:	881b      	ldrh	r3, [r3, #0]
 8004e96:	210a      	movs	r1, #10
 8004e98:	0018      	movs	r0, r3
 8004e9a:	f7fb f947 	bl	800012c <__udivsi3>
 8004e9e:	0003      	movs	r3, r0
 8004ea0:	8023      	strh	r3, [r4, #0]
 8004ea2:	1dbb      	adds	r3, r7, #6
 8004ea4:	881b      	ldrh	r3, [r3, #0]
 8004ea6:	2b00      	cmp	r3, #0
 8004ea8:	d1dd      	bne.n	8004e66 <u16toa+0x18>
 8004eaa:	230f      	movs	r3, #15
 8004eac:	18fb      	adds	r3, r7, r3
 8004eae:	781b      	ldrb	r3, [r3, #0]
 8004eb0:	683a      	ldr	r2, [r7, #0]
 8004eb2:	18d3      	adds	r3, r2, r3
 8004eb4:	2200      	movs	r2, #0
 8004eb6:	701a      	strb	r2, [r3, #0]
 8004eb8:	230e      	movs	r3, #14
 8004eba:	18fb      	adds	r3, r7, r3
 8004ebc:	2200      	movs	r2, #0
 8004ebe:	701a      	strb	r2, [r3, #0]
 8004ec0:	e029      	b.n	8004f16 <u16toa+0xc8>
 8004ec2:	210e      	movs	r1, #14
 8004ec4:	187b      	adds	r3, r7, r1
 8004ec6:	781b      	ldrb	r3, [r3, #0]
 8004ec8:	683a      	ldr	r2, [r7, #0]
 8004eca:	18d2      	adds	r2, r2, r3
 8004ecc:	240d      	movs	r4, #13
 8004ece:	193b      	adds	r3, r7, r4
 8004ed0:	7812      	ldrb	r2, [r2, #0]
 8004ed2:	701a      	strb	r2, [r3, #0]
 8004ed4:	250f      	movs	r5, #15
 8004ed6:	197b      	adds	r3, r7, r5
 8004ed8:	781a      	ldrb	r2, [r3, #0]
 8004eda:	187b      	adds	r3, r7, r1
 8004edc:	781b      	ldrb	r3, [r3, #0]
 8004ede:	1ad3      	subs	r3, r2, r3
 8004ee0:	3b01      	subs	r3, #1
 8004ee2:	683a      	ldr	r2, [r7, #0]
 8004ee4:	18d2      	adds	r2, r2, r3
 8004ee6:	0008      	movs	r0, r1
 8004ee8:	187b      	adds	r3, r7, r1
 8004eea:	781b      	ldrb	r3, [r3, #0]
 8004eec:	6839      	ldr	r1, [r7, #0]
 8004eee:	18cb      	adds	r3, r1, r3
 8004ef0:	7812      	ldrb	r2, [r2, #0]
 8004ef2:	701a      	strb	r2, [r3, #0]
 8004ef4:	197b      	adds	r3, r7, r5
 8004ef6:	781a      	ldrb	r2, [r3, #0]
 8004ef8:	0001      	movs	r1, r0
 8004efa:	187b      	adds	r3, r7, r1
 8004efc:	781b      	ldrb	r3, [r3, #0]
 8004efe:	1ad3      	subs	r3, r2, r3
 8004f00:	3b01      	subs	r3, #1
 8004f02:	683a      	ldr	r2, [r7, #0]
 8004f04:	18d3      	adds	r3, r2, r3
 8004f06:	193a      	adds	r2, r7, r4
 8004f08:	7812      	ldrb	r2, [r2, #0]
 8004f0a:	701a      	strb	r2, [r3, #0]
 8004f0c:	187b      	adds	r3, r7, r1
 8004f0e:	187a      	adds	r2, r7, r1
 8004f10:	7812      	ldrb	r2, [r2, #0]
 8004f12:	3201      	adds	r2, #1
 8004f14:	701a      	strb	r2, [r3, #0]
 8004f16:	230f      	movs	r3, #15
 8004f18:	18fb      	adds	r3, r7, r3
 8004f1a:	781b      	ldrb	r3, [r3, #0]
 8004f1c:	085b      	lsrs	r3, r3, #1
 8004f1e:	b2db      	uxtb	r3, r3
 8004f20:	220e      	movs	r2, #14
 8004f22:	18ba      	adds	r2, r7, r2
 8004f24:	7812      	ldrb	r2, [r2, #0]
 8004f26:	429a      	cmp	r2, r3
 8004f28:	d3cb      	bcc.n	8004ec2 <u16toa+0x74>
 8004f2a:	230f      	movs	r3, #15
 8004f2c:	18fb      	adds	r3, r7, r3
 8004f2e:	781b      	ldrb	r3, [r3, #0]
 8004f30:	0018      	movs	r0, r3
 8004f32:	46bd      	mov	sp, r7
 8004f34:	b004      	add	sp, #16
 8004f36:	bdb0      	pop	{r4, r5, r7, pc}

08004f38 <strcpy_f>:
 8004f38:	b580      	push	{r7, lr}
 8004f3a:	b082      	sub	sp, #8
 8004f3c:	af00      	add	r7, sp, #0
 8004f3e:	6078      	str	r0, [r7, #4]
 8004f40:	6039      	str	r1, [r7, #0]
 8004f42:	e009      	b.n	8004f58 <strcpy_f+0x20>
 8004f44:	683b      	ldr	r3, [r7, #0]
 8004f46:	781a      	ldrb	r2, [r3, #0]
 8004f48:	687b      	ldr	r3, [r7, #4]
 8004f4a:	701a      	strb	r2, [r3, #0]
 8004f4c:	683b      	ldr	r3, [r7, #0]
 8004f4e:	3301      	adds	r3, #1
 8004f50:	603b      	str	r3, [r7, #0]
 8004f52:	687b      	ldr	r3, [r7, #4]
 8004f54:	3301      	adds	r3, #1
 8004f56:	607b      	str	r3, [r7, #4]
 8004f58:	683b      	ldr	r3, [r7, #0]
 8004f5a:	781b      	ldrb	r3, [r3, #0]
 8004f5c:	2b00      	cmp	r3, #0
 8004f5e:	d1f1      	bne.n	8004f44 <strcpy_f+0xc>
 8004f60:	687b      	ldr	r3, [r7, #4]
 8004f62:	2200      	movs	r2, #0
 8004f64:	701a      	strb	r2, [r3, #0]
 8004f66:	687b      	ldr	r3, [r7, #4]
 8004f68:	0018      	movs	r0, r3
 8004f6a:	46bd      	mov	sp, r7
 8004f6c:	b002      	add	sp, #8
 8004f6e:	bd80      	pop	{r7, pc}

08004f70 <strncpy_f>:
 8004f70:	b580      	push	{r7, lr}
 8004f72:	b084      	sub	sp, #16
 8004f74:	af00      	add	r7, sp, #0
 8004f76:	60f8      	str	r0, [r7, #12]
 8004f78:	60b9      	str	r1, [r7, #8]
 8004f7a:	1dbb      	adds	r3, r7, #6
 8004f7c:	801a      	strh	r2, [r3, #0]
 8004f7e:	e00e      	b.n	8004f9e <strncpy_f+0x2e>
 8004f80:	68bb      	ldr	r3, [r7, #8]
 8004f82:	781a      	ldrb	r2, [r3, #0]
 8004f84:	68fb      	ldr	r3, [r7, #12]
 8004f86:	701a      	strb	r2, [r3, #0]
 8004f88:	68bb      	ldr	r3, [r7, #8]
 8004f8a:	3301      	adds	r3, #1
 8004f8c:	60bb      	str	r3, [r7, #8]
 8004f8e:	68fb      	ldr	r3, [r7, #12]
 8004f90:	3301      	adds	r3, #1
 8004f92:	60fb      	str	r3, [r7, #12]
 8004f94:	1dbb      	adds	r3, r7, #6
 8004f96:	881a      	ldrh	r2, [r3, #0]
 8004f98:	1dbb      	adds	r3, r7, #6
 8004f9a:	3a01      	subs	r2, #1
 8004f9c:	801a      	strh	r2, [r3, #0]
 8004f9e:	68bb      	ldr	r3, [r7, #8]
 8004fa0:	781b      	ldrb	r3, [r3, #0]
 8004fa2:	2b00      	cmp	r3, #0
 8004fa4:	d003      	beq.n	8004fae <strncpy_f+0x3e>
 8004fa6:	1dbb      	adds	r3, r7, #6
 8004fa8:	881b      	ldrh	r3, [r3, #0]
 8004faa:	2b00      	cmp	r3, #0
 8004fac:	d1e8      	bne.n	8004f80 <strncpy_f+0x10>
 8004fae:	68fb      	ldr	r3, [r7, #12]
 8004fb0:	2200      	movs	r2, #0
 8004fb2:	701a      	strb	r2, [r3, #0]
 8004fb4:	68fb      	ldr	r3, [r7, #12]
 8004fb6:	0018      	movs	r0, r3
 8004fb8:	46bd      	mov	sp, r7
 8004fba:	b004      	add	sp, #16
 8004fbc:	bd80      	pop	{r7, pc}

08004fbe <begin_serial485>:
 8004fbe:	b580      	push	{r7, lr}
 8004fc0:	b084      	sub	sp, #16
 8004fc2:	af00      	add	r7, sp, #0
 8004fc4:	60f8      	str	r0, [r7, #12]
 8004fc6:	60b9      	str	r1, [r7, #8]
 8004fc8:	0039      	movs	r1, r7
 8004fca:	600a      	str	r2, [r1, #0]
 8004fcc:	604b      	str	r3, [r1, #4]
 8004fce:	68fb      	ldr	r3, [r7, #12]
 8004fd0:	2251      	movs	r2, #81	; 0x51
 8004fd2:	2101      	movs	r1, #1
 8004fd4:	5499      	strb	r1, [r3, r2]
 8004fd6:	68fb      	ldr	r3, [r7, #12]
 8004fd8:	2200      	movs	r2, #0
 8004fda:	669a      	str	r2, [r3, #104]	; 0x68
 8004fdc:	68fb      	ldr	r3, [r7, #12]
 8004fde:	2232      	movs	r2, #50	; 0x32
 8004fe0:	2100      	movs	r1, #0
 8004fe2:	5499      	strb	r1, [r3, r2]
 8004fe4:	68fb      	ldr	r3, [r7, #12]
 8004fe6:	2200      	movs	r2, #0
 8004fe8:	635a      	str	r2, [r3, #52]	; 0x34
 8004fea:	68fb      	ldr	r3, [r7, #12]
 8004fec:	2200      	movs	r2, #0
 8004fee:	701a      	strb	r2, [r3, #0]
 8004ff0:	68fb      	ldr	r3, [r7, #12]
 8004ff2:	2200      	movs	r2, #0
 8004ff4:	639a      	str	r2, [r3, #56]	; 0x38
 8004ff6:	68fb      	ldr	r3, [r7, #12]
 8004ff8:	334c      	adds	r3, #76	; 0x4c
 8004ffa:	001a      	movs	r2, r3
 8004ffc:	68fb      	ldr	r3, [r7, #12]
 8004ffe:	63da      	str	r2, [r3, #60]	; 0x3c
 8005000:	68fb      	ldr	r3, [r7, #12]
 8005002:	2250      	movs	r2, #80	; 0x50
 8005004:	2100      	movs	r1, #0
 8005006:	5499      	strb	r1, [r3, r2]
 8005008:	68fb      	ldr	r3, [r7, #12]
 800500a:	69ba      	ldr	r2, [r7, #24]
 800500c:	665a      	str	r2, [r3, #100]	; 0x64
 800500e:	68fb      	ldr	r3, [r7, #12]
 8005010:	22fa      	movs	r2, #250	; 0xfa
 8005012:	0092      	lsls	r2, r2, #2
 8005014:	66da      	str	r2, [r3, #108]	; 0x6c
 8005016:	68fb      	ldr	r3, [r7, #12]
 8005018:	2200      	movs	r2, #0
 800501a:	671a      	str	r2, [r3, #112]	; 0x70
 800501c:	68fb      	ldr	r3, [r7, #12]
 800501e:	68ba      	ldr	r2, [r7, #8]
 8005020:	659a      	str	r2, [r3, #88]	; 0x58
 8005022:	68fb      	ldr	r3, [r7, #12]
 8005024:	003a      	movs	r2, r7
 8005026:	335c      	adds	r3, #92	; 0x5c
 8005028:	ca03      	ldmia	r2!, {r0, r1}
 800502a:	c303      	stmia	r3!, {r0, r1}
 800502c:	003b      	movs	r3, r7
 800502e:	6818      	ldr	r0, [r3, #0]
 8005030:	003b      	movs	r3, r7
 8005032:	889b      	ldrh	r3, [r3, #4]
 8005034:	2201      	movs	r2, #1
 8005036:	0019      	movs	r1, r3
 8005038:	f7fb fd91 	bl	8000b5e <HAL_GPIO_WritePin>
 800503c:	46c0      	nop			; (mov r8, r8)
 800503e:	46bd      	mov	sp, r7
 8005040:	b004      	add	sp, #16
 8005042:	bd80      	pop	{r7, pc}

08005044 <set_direction485>:
 8005044:	b580      	push	{r7, lr}
 8005046:	b082      	sub	sp, #8
 8005048:	af00      	add	r7, sp, #0
 800504a:	6078      	str	r0, [r7, #4]
 800504c:	000a      	movs	r2, r1
 800504e:	1cfb      	adds	r3, r7, #3
 8005050:	701a      	strb	r2, [r3, #0]
 8005052:	687b      	ldr	r3, [r7, #4]
 8005054:	6dd8      	ldr	r0, [r3, #92]	; 0x5c
 8005056:	687b      	ldr	r3, [r7, #4]
 8005058:	2260      	movs	r2, #96	; 0x60
 800505a:	5a99      	ldrh	r1, [r3, r2]
 800505c:	1cfb      	adds	r3, r7, #3
 800505e:	781b      	ldrb	r3, [r3, #0]
 8005060:	001a      	movs	r2, r3
 8005062:	f7fb fd7c 	bl	8000b5e <HAL_GPIO_WritePin>
 8005066:	46c0      	nop			; (mov r8, r8)
 8005068:	46bd      	mov	sp, r7
 800506a:	b002      	add	sp, #8
 800506c:	bd80      	pop	{r7, pc}

0800506e <send_serial485>:
 800506e:	b580      	push	{r7, lr}
 8005070:	b084      	sub	sp, #16
 8005072:	af00      	add	r7, sp, #0
 8005074:	6078      	str	r0, [r7, #4]
 8005076:	6039      	str	r1, [r7, #0]
 8005078:	687b      	ldr	r3, [r7, #4]
 800507a:	2100      	movs	r1, #0
 800507c:	0018      	movs	r0, r3
 800507e:	f7ff ffe1 	bl	8005044 <set_direction485>
 8005082:	687b      	ldr	r3, [r7, #4]
 8005084:	2251      	movs	r2, #81	; 0x51
 8005086:	2100      	movs	r1, #0
 8005088:	5499      	strb	r1, [r3, r2]
 800508a:	683b      	ldr	r3, [r7, #0]
 800508c:	0018      	movs	r0, r3
 800508e:	f7fb f845 	bl	800011c <strlen>
 8005092:	0003      	movs	r3, r0
 8005094:	60fb      	str	r3, [r7, #12]
 8005096:	687b      	ldr	r3, [r7, #4]
 8005098:	6d98      	ldr	r0, [r3, #88]	; 0x58
 800509a:	68fb      	ldr	r3, [r7, #12]
 800509c:	b29a      	uxth	r2, r3
 800509e:	2301      	movs	r3, #1
 80050a0:	425b      	negs	r3, r3
 80050a2:	6839      	ldr	r1, [r7, #0]
 80050a4:	f7fd f96e 	bl	8002384 <HAL_UART_Transmit>
 80050a8:	2014      	movs	r0, #20
 80050aa:	f7fe fb27 	bl	80036fc <Delay_us>
 80050ae:	687b      	ldr	r3, [r7, #4]
 80050b0:	2101      	movs	r1, #1
 80050b2:	0018      	movs	r0, r3
 80050b4:	f7ff ffc6 	bl	8005044 <set_direction485>
 80050b8:	687b      	ldr	r3, [r7, #4]
 80050ba:	2251      	movs	r2, #81	; 0x51
 80050bc:	2101      	movs	r1, #1
 80050be:	5499      	strb	r1, [r3, r2]
 80050c0:	46c0      	nop			; (mov r8, r8)
 80050c2:	46bd      	mov	sp, r7
 80050c4:	b004      	add	sp, #16
 80050c6:	bd80      	pop	{r7, pc}

080050c8 <handle_serial485>:
 80050c8:	b580      	push	{r7, lr}
 80050ca:	b084      	sub	sp, #16
 80050cc:	af00      	add	r7, sp, #0
 80050ce:	6078      	str	r0, [r7, #4]
 80050d0:	687b      	ldr	r3, [r7, #4]
 80050d2:	6d98      	ldr	r0, [r3, #88]	; 0x58
 80050d4:	230f      	movs	r3, #15
 80050d6:	18f9      	adds	r1, r7, r3
 80050d8:	2300      	movs	r3, #0
 80050da:	2201      	movs	r2, #1
 80050dc:	f7fd f9f6 	bl	80024cc <HAL_UART_Receive>
 80050e0:	1e03      	subs	r3, r0, #0
 80050e2:	d14d      	bne.n	8005180 <handle_serial485+0xb8>
 80050e4:	687b      	ldr	r3, [r7, #4]
 80050e6:	22fa      	movs	r2, #250	; 0xfa
 80050e8:	0092      	lsls	r2, r2, #2
 80050ea:	66da      	str	r2, [r3, #108]	; 0x6c
 80050ec:	230f      	movs	r3, #15
 80050ee:	18fb      	adds	r3, r7, r3
 80050f0:	781b      	ldrb	r3, [r3, #0]
 80050f2:	001a      	movs	r2, r3
 80050f4:	4b2f      	ldr	r3, [pc, #188]	; (80051b4 <handle_serial485+0xec>)
 80050f6:	0011      	movs	r1, r2
 80050f8:	0018      	movs	r0, r3
 80050fa:	f001 f890 	bl	800621e <strchr>
 80050fe:	1e03      	subs	r3, r0, #0
 8005100:	d033      	beq.n	800516a <handle_serial485+0xa2>
 8005102:	687b      	ldr	r3, [r7, #4]
 8005104:	6b5b      	ldr	r3, [r3, #52]	; 0x34
 8005106:	2b00      	cmp	r3, #0
 8005108:	dd4f      	ble.n	80051aa <handle_serial485+0xe2>
 800510a:	687b      	ldr	r3, [r7, #4]
 800510c:	6b5b      	ldr	r3, [r3, #52]	; 0x34
 800510e:	687a      	ldr	r2, [r7, #4]
 8005110:	2100      	movs	r1, #0
 8005112:	54d1      	strb	r1, [r2, r3]
 8005114:	687b      	ldr	r3, [r7, #4]
 8005116:	0018      	movs	r0, r3
 8005118:	f000 f852 	bl	80051c0 <parse_command>
 800511c:	687b      	ldr	r3, [r7, #4]
 800511e:	2250      	movs	r2, #80	; 0x50
 8005120:	5c9b      	ldrb	r3, [r3, r2]
 8005122:	2b00      	cmp	r3, #0
 8005124:	d041      	beq.n	80051aa <handle_serial485+0xe2>
 8005126:	687b      	ldr	r3, [r7, #4]
 8005128:	6b9a      	ldr	r2, [r3, #56]	; 0x38
 800512a:	687b      	ldr	r3, [r7, #4]
 800512c:	333c      	adds	r3, #60	; 0x3c
 800512e:	0019      	movs	r1, r3
 8005130:	0010      	movs	r0, r2
 8005132:	f000 f8ad 	bl	8005290 <execute_command>
 8005136:	1e03      	subs	r3, r0, #0
 8005138:	d006      	beq.n	8005148 <handle_serial485+0x80>
 800513a:	4a1f      	ldr	r2, [pc, #124]	; (80051b8 <handle_serial485+0xf0>)
 800513c:	687b      	ldr	r3, [r7, #4]
 800513e:	0011      	movs	r1, r2
 8005140:	0018      	movs	r0, r3
 8005142:	f7ff ff94 	bl	800506e <send_serial485>
 8005146:	e005      	b.n	8005154 <handle_serial485+0x8c>
 8005148:	4a1c      	ldr	r2, [pc, #112]	; (80051bc <handle_serial485+0xf4>)
 800514a:	687b      	ldr	r3, [r7, #4]
 800514c:	0011      	movs	r1, r2
 800514e:	0018      	movs	r0, r3
 8005150:	f7ff ff8d 	bl	800506e <send_serial485>
 8005154:	687b      	ldr	r3, [r7, #4]
 8005156:	2250      	movs	r2, #80	; 0x50
 8005158:	2100      	movs	r1, #0
 800515a:	5499      	strb	r1, [r3, r2]
 800515c:	687b      	ldr	r3, [r7, #4]
 800515e:	2200      	movs	r2, #0
 8005160:	635a      	str	r2, [r3, #52]	; 0x34
 8005162:	687b      	ldr	r3, [r7, #4]
 8005164:	2200      	movs	r2, #0
 8005166:	639a      	str	r2, [r3, #56]	; 0x38
 8005168:	e01f      	b.n	80051aa <handle_serial485+0xe2>
 800516a:	687b      	ldr	r3, [r7, #4]
 800516c:	6b5b      	ldr	r3, [r3, #52]	; 0x34
 800516e:	1c59      	adds	r1, r3, #1
 8005170:	687a      	ldr	r2, [r7, #4]
 8005172:	6351      	str	r1, [r2, #52]	; 0x34
 8005174:	220f      	movs	r2, #15
 8005176:	18ba      	adds	r2, r7, r2
 8005178:	7811      	ldrb	r1, [r2, #0]
 800517a:	687a      	ldr	r2, [r7, #4]
 800517c:	54d1      	strb	r1, [r2, r3]
 800517e:	e014      	b.n	80051aa <handle_serial485+0xe2>
 8005180:	687b      	ldr	r3, [r7, #4]
 8005182:	6edb      	ldr	r3, [r3, #108]	; 0x6c
 8005184:	2b00      	cmp	r3, #0
 8005186:	dd10      	ble.n	80051aa <handle_serial485+0xe2>
 8005188:	687b      	ldr	r3, [r7, #4]
 800518a:	6eda      	ldr	r2, [r3, #108]	; 0x6c
 800518c:	687b      	ldr	r3, [r7, #4]
 800518e:	6e5b      	ldr	r3, [r3, #100]	; 0x64
 8005190:	1ad2      	subs	r2, r2, r3
 8005192:	687b      	ldr	r3, [r7, #4]
 8005194:	66da      	str	r2, [r3, #108]	; 0x6c
 8005196:	687b      	ldr	r3, [r7, #4]
 8005198:	6edb      	ldr	r3, [r3, #108]	; 0x6c
 800519a:	2b00      	cmp	r3, #0
 800519c:	dc05      	bgt.n	80051aa <handle_serial485+0xe2>
 800519e:	687b      	ldr	r3, [r7, #4]
 80051a0:	2200      	movs	r2, #0
 80051a2:	635a      	str	r2, [r3, #52]	; 0x34
 80051a4:	687b      	ldr	r3, [r7, #4]
 80051a6:	2200      	movs	r2, #0
 80051a8:	701a      	strb	r2, [r3, #0]
 80051aa:	46c0      	nop			; (mov r8, r8)
 80051ac:	46bd      	mov	sp, r7
 80051ae:	b004      	add	sp, #16
 80051b0:	bd80      	pop	{r7, pc}
 80051b2:	46c0      	nop			; (mov r8, r8)
 80051b4:	08006734 	.word	0x08006734
 80051b8:	08006738 	.word	0x08006738
 80051bc:	0800673c 	.word	0x0800673c

080051c0 <parse_command>:
 80051c0:	b580      	push	{r7, lr}
 80051c2:	b084      	sub	sp, #16
 80051c4:	af00      	add	r7, sp, #0
 80051c6:	6078      	str	r0, [r7, #4]
 80051c8:	687b      	ldr	r3, [r7, #4]
 80051ca:	60fb      	str	r3, [r7, #12]
 80051cc:	687b      	ldr	r3, [r7, #4]
 80051ce:	2200      	movs	r2, #0
 80051d0:	639a      	str	r2, [r3, #56]	; 0x38
 80051d2:	687b      	ldr	r3, [r7, #4]
 80051d4:	6bdb      	ldr	r3, [r3, #60]	; 0x3c
 80051d6:	68fa      	ldr	r2, [r7, #12]
 80051d8:	7812      	ldrb	r2, [r2, #0]
 80051da:	701a      	strb	r2, [r3, #0]
 80051dc:	687b      	ldr	r3, [r7, #4]
 80051de:	6b5b      	ldr	r3, [r3, #52]	; 0x34
 80051e0:	2b01      	cmp	r3, #1
 80051e2:	dd1c      	ble.n	800521e <parse_command+0x5e>
 80051e4:	68fb      	ldr	r3, [r7, #12]
 80051e6:	781b      	ldrb	r3, [r3, #0]
 80051e8:	2b4d      	cmp	r3, #77	; 0x4d
 80051ea:	d018      	beq.n	800521e <parse_command+0x5e>
 80051ec:	68fb      	ldr	r3, [r7, #12]
 80051ee:	3301      	adds	r3, #1
 80051f0:	781b      	ldrb	r3, [r3, #0]
 80051f2:	2b2f      	cmp	r3, #47	; 0x2f
 80051f4:	d913      	bls.n	800521e <parse_command+0x5e>
 80051f6:	68fb      	ldr	r3, [r7, #12]
 80051f8:	3301      	adds	r3, #1
 80051fa:	781b      	ldrb	r3, [r3, #0]
 80051fc:	2b39      	cmp	r3, #57	; 0x39
 80051fe:	d80e      	bhi.n	800521e <parse_command+0x5e>
 8005200:	687b      	ldr	r3, [r7, #4]
 8005202:	6bdb      	ldr	r3, [r3, #60]	; 0x3c
 8005204:	3301      	adds	r3, #1
 8005206:	68fa      	ldr	r2, [r7, #12]
 8005208:	7852      	ldrb	r2, [r2, #1]
 800520a:	701a      	strb	r2, [r3, #0]
 800520c:	687b      	ldr	r3, [r7, #4]
 800520e:	6bdb      	ldr	r3, [r3, #60]	; 0x3c
 8005210:	3302      	adds	r3, #2
 8005212:	2200      	movs	r2, #0
 8005214:	701a      	strb	r2, [r3, #0]
 8005216:	68fb      	ldr	r3, [r7, #12]
 8005218:	3302      	adds	r3, #2
 800521a:	60fb      	str	r3, [r7, #12]
 800521c:	e007      	b.n	800522e <parse_command+0x6e>
 800521e:	687b      	ldr	r3, [r7, #4]
 8005220:	6bdb      	ldr	r3, [r3, #60]	; 0x3c
 8005222:	3301      	adds	r3, #1
 8005224:	2200      	movs	r2, #0
 8005226:	701a      	strb	r2, [r3, #0]
 8005228:	68fb      	ldr	r3, [r7, #12]
 800522a:	3301      	adds	r3, #1
 800522c:	60fb      	str	r3, [r7, #12]
 800522e:	687b      	ldr	r3, [r7, #4]
 8005230:	2201      	movs	r2, #1
 8005232:	639a      	str	r2, [r3, #56]	; 0x38
 8005234:	4a15      	ldr	r2, [pc, #84]	; (800528c <parse_command+0xcc>)
 8005236:	68fb      	ldr	r3, [r7, #12]
 8005238:	0011      	movs	r1, r2
 800523a:	0018      	movs	r0, r3
 800523c:	f001 f878 	bl	8006330 <strtok>
 8005240:	0003      	movs	r3, r0
 8005242:	60bb      	str	r3, [r7, #8]
 8005244:	e012      	b.n	800526c <parse_command+0xac>
 8005246:	687b      	ldr	r3, [r7, #4]
 8005248:	6b9b      	ldr	r3, [r3, #56]	; 0x38
 800524a:	1c59      	adds	r1, r3, #1
 800524c:	687a      	ldr	r2, [r7, #4]
 800524e:	6391      	str	r1, [r2, #56]	; 0x38
 8005250:	687a      	ldr	r2, [r7, #4]
 8005252:	330e      	adds	r3, #14
 8005254:	009b      	lsls	r3, r3, #2
 8005256:	18d3      	adds	r3, r2, r3
 8005258:	3304      	adds	r3, #4
 800525a:	68ba      	ldr	r2, [r7, #8]
 800525c:	601a      	str	r2, [r3, #0]
 800525e:	4b0b      	ldr	r3, [pc, #44]	; (800528c <parse_command+0xcc>)
 8005260:	0019      	movs	r1, r3
 8005262:	2000      	movs	r0, #0
 8005264:	f001 f864 	bl	8006330 <strtok>
 8005268:	0003      	movs	r3, r0
 800526a:	60bb      	str	r3, [r7, #8]
 800526c:	68bb      	ldr	r3, [r7, #8]
 800526e:	2b00      	cmp	r3, #0
 8005270:	d1e9      	bne.n	8005246 <parse_command+0x86>
 8005272:	687b      	ldr	r3, [r7, #4]
 8005274:	2274      	movs	r2, #116	; 0x74
 8005276:	2101      	movs	r1, #1
 8005278:	5499      	strb	r1, [r3, r2]
 800527a:	687b      	ldr	r3, [r7, #4]
 800527c:	2250      	movs	r2, #80	; 0x50
 800527e:	2101      	movs	r1, #1
 8005280:	5499      	strb	r1, [r3, r2]
 8005282:	46c0      	nop			; (mov r8, r8)
 8005284:	46bd      	mov	sp, r7
 8005286:	b004      	add	sp, #16
 8005288:	bd80      	pop	{r7, pc}
 800528a:	46c0      	nop			; (mov r8, r8)
 800528c:	08006740 	.word	0x08006740

08005290 <execute_command>:
 8005290:	b590      	push	{r4, r7, lr}
 8005292:	b085      	sub	sp, #20
 8005294:	af00      	add	r7, sp, #0
 8005296:	6078      	str	r0, [r7, #4]
 8005298:	6039      	str	r1, [r7, #0]
 800529a:	230b      	movs	r3, #11
 800529c:	18fb      	adds	r3, r7, r3
 800529e:	2200      	movs	r2, #0
 80052a0:	701a      	strb	r2, [r3, #0]
 80052a2:	2300      	movs	r3, #0
 80052a4:	60fb      	str	r3, [r7, #12]
 80052a6:	e01a      	b.n	80052de <execute_command+0x4e>
 80052a8:	683b      	ldr	r3, [r7, #0]
 80052aa:	6818      	ldr	r0, [r3, #0]
 80052ac:	4b11      	ldr	r3, [pc, #68]	; (80052f4 <execute_command+0x64>)
 80052ae:	68fa      	ldr	r2, [r7, #12]
 80052b0:	0092      	lsls	r2, r2, #2
 80052b2:	58d3      	ldr	r3, [r2, r3]
 80052b4:	0019      	movs	r1, r3
 80052b6:	f7fa ff27 	bl	8000108 <strcmp>
 80052ba:	1e03      	subs	r3, r0, #0
 80052bc:	d10c      	bne.n	80052d8 <execute_command+0x48>
 80052be:	4b0e      	ldr	r3, [pc, #56]	; (80052f8 <execute_command+0x68>)
 80052c0:	68fa      	ldr	r2, [r7, #12]
 80052c2:	0092      	lsls	r2, r2, #2
 80052c4:	58d3      	ldr	r3, [r2, r3]
 80052c6:	220b      	movs	r2, #11
 80052c8:	18bc      	adds	r4, r7, r2
 80052ca:	6839      	ldr	r1, [r7, #0]
 80052cc:	687a      	ldr	r2, [r7, #4]
 80052ce:	0010      	movs	r0, r2
 80052d0:	4798      	blx	r3
 80052d2:	0003      	movs	r3, r0
 80052d4:	7023      	strb	r3, [r4, #0]
 80052d6:	e005      	b.n	80052e4 <execute_command+0x54>
 80052d8:	68fb      	ldr	r3, [r7, #12]
 80052da:	3301      	adds	r3, #1
 80052dc:	60fb      	str	r3, [r7, #12]
 80052de:	68fb      	ldr	r3, [r7, #12]
 80052e0:	2b02      	cmp	r3, #2
 80052e2:	dde1      	ble.n	80052a8 <execute_command+0x18>
 80052e4:	230b      	movs	r3, #11
 80052e6:	18fb      	adds	r3, r7, r3
 80052e8:	781b      	ldrb	r3, [r3, #0]
 80052ea:	0018      	movs	r0, r3
 80052ec:	46bd      	mov	sp, r7
 80052ee:	b005      	add	sp, #20
 80052f0:	bd90      	pop	{r4, r7, pc}
 80052f2:	46c0      	nop			; (mov r8, r8)
 80052f4:	20000850 	.word	0x20000850
 80052f8:	2000085c 	.word	0x2000085c

080052fc <on_485_reset>:
 80052fc:	b580      	push	{r7, lr}
 80052fe:	b082      	sub	sp, #8
 8005300:	af00      	add	r7, sp, #0
 8005302:	6078      	str	r0, [r7, #4]
 8005304:	6039      	str	r1, [r7, #0]
 8005306:	2301      	movs	r3, #1
 8005308:	0018      	movs	r0, r3
 800530a:	46bd      	mov	sp, r7
 800530c:	b002      	add	sp, #8
 800530e:	bd80      	pop	{r7, pc}

08005310 <on_485_switch>:
 8005310:	b5b0      	push	{r4, r5, r7, lr}
 8005312:	b086      	sub	sp, #24
 8005314:	af00      	add	r7, sp, #0
 8005316:	6078      	str	r0, [r7, #4]
 8005318:	6039      	str	r1, [r7, #0]
 800531a:	687b      	ldr	r3, [r7, #4]
 800531c:	2b02      	cmp	r3, #2
 800531e:	dc01      	bgt.n	8005324 <on_485_switch+0x14>
 8005320:	2300      	movs	r3, #0
 8005322:	e031      	b.n	8005388 <on_485_switch+0x78>
 8005324:	683b      	ldr	r3, [r7, #0]
 8005326:	685b      	ldr	r3, [r3, #4]
 8005328:	617b      	str	r3, [r7, #20]
 800532a:	683b      	ldr	r3, [r7, #0]
 800532c:	689b      	ldr	r3, [r3, #8]
 800532e:	613b      	str	r3, [r7, #16]
 8005330:	697b      	ldr	r3, [r7, #20]
 8005332:	2b00      	cmp	r3, #0
 8005334:	d027      	beq.n	8005386 <on_485_switch+0x76>
 8005336:	693b      	ldr	r3, [r7, #16]
 8005338:	2b00      	cmp	r3, #0
 800533a:	d024      	beq.n	8005386 <on_485_switch+0x76>
 800533c:	250f      	movs	r5, #15
 800533e:	197c      	adds	r4, r7, r5
 8005340:	697b      	ldr	r3, [r7, #20]
 8005342:	0018      	movs	r0, r3
 8005344:	f7ff fd40 	bl	8004dc8 <atou8>
 8005348:	0003      	movs	r3, r0
 800534a:	7023      	strb	r3, [r4, #0]
 800534c:	230e      	movs	r3, #14
 800534e:	18fc      	adds	r4, r7, r3
 8005350:	693b      	ldr	r3, [r7, #16]
 8005352:	0018      	movs	r0, r3
 8005354:	f7ff fd38 	bl	8004dc8 <atou8>
 8005358:	0003      	movs	r3, r0
 800535a:	7023      	strb	r3, [r4, #0]
 800535c:	197b      	adds	r3, r7, r5
 800535e:	781b      	ldrb	r3, [r3, #0]
 8005360:	2b06      	cmp	r3, #6
 8005362:	d810      	bhi.n	8005386 <on_485_switch+0x76>
 8005364:	230e      	movs	r3, #14
 8005366:	18fb      	adds	r3, r7, r3
 8005368:	781b      	ldrb	r3, [r3, #0]
 800536a:	2b06      	cmp	r3, #6
 800536c:	d80b      	bhi.n	8005386 <on_485_switch+0x76>
 800536e:	230e      	movs	r3, #14
 8005370:	18fb      	adds	r3, r7, r3
 8005372:	781a      	ldrb	r2, [r3, #0]
 8005374:	230f      	movs	r3, #15
 8005376:	18fb      	adds	r3, r7, r3
 8005378:	781b      	ldrb	r3, [r3, #0]
 800537a:	0011      	movs	r1, r2
 800537c:	0018      	movs	r0, r3
 800537e:	f000 fc69 	bl	8005c54 <switch_Antenna>
 8005382:	2301      	movs	r3, #1
 8005384:	e000      	b.n	8005388 <on_485_switch+0x78>
 8005386:	2300      	movs	r3, #0
 8005388:	0018      	movs	r0, r3
 800538a:	46bd      	mov	sp, r7
 800538c:	b006      	add	sp, #24
 800538e:	bdb0      	pop	{r4, r5, r7, pc}

08005390 <on_485_getalloc>:
 8005390:	b580      	push	{r7, lr}
 8005392:	b082      	sub	sp, #8
 8005394:	af00      	add	r7, sp, #0
 8005396:	6078      	str	r0, [r7, #4]
 8005398:	6039      	str	r1, [r7, #0]
 800539a:	2300      	movs	r3, #0
 800539c:	0018      	movs	r0, r3
 800539e:	46bd      	mov	sp, r7
 80053a0:	b002      	add	sp, #8
 80053a2:	bd80      	pop	{r7, pc}

080053a4 <main>:
 80053a4:	b580      	push	{r7, lr}
 80053a6:	b084      	sub	sp, #16
 80053a8:	af02      	add	r7, sp, #8
 80053aa:	4b7a      	ldr	r3, [pc, #488]	; (8005594 <main+0x1f0>)
 80053ac:	4a7a      	ldr	r2, [pc, #488]	; (8005598 <main+0x1f4>)
 80053ae:	ca03      	ldmia	r2!, {r0, r1}
 80053b0:	c303      	stmia	r3!, {r0, r1}
 80053b2:	4b78      	ldr	r3, [pc, #480]	; (8005594 <main+0x1f0>)
 80053b4:	4a79      	ldr	r2, [pc, #484]	; (800559c <main+0x1f8>)
 80053b6:	3308      	adds	r3, #8
 80053b8:	ca03      	ldmia	r2!, {r0, r1}
 80053ba:	c303      	stmia	r3!, {r0, r1}
 80053bc:	4b75      	ldr	r3, [pc, #468]	; (8005594 <main+0x1f0>)
 80053be:	4a78      	ldr	r2, [pc, #480]	; (80055a0 <main+0x1fc>)
 80053c0:	3310      	adds	r3, #16
 80053c2:	ca03      	ldmia	r2!, {r0, r1}
 80053c4:	c303      	stmia	r3!, {r0, r1}
 80053c6:	4b73      	ldr	r3, [pc, #460]	; (8005594 <main+0x1f0>)
 80053c8:	2200      	movs	r2, #0
 80053ca:	761a      	strb	r2, [r3, #24]
 80053cc:	4b71      	ldr	r3, [pc, #452]	; (8005594 <main+0x1f0>)
 80053ce:	4a75      	ldr	r2, [pc, #468]	; (80055a4 <main+0x200>)
 80053d0:	331c      	adds	r3, #28
 80053d2:	ca03      	ldmia	r2!, {r0, r1}
 80053d4:	c303      	stmia	r3!, {r0, r1}
 80053d6:	4b6f      	ldr	r3, [pc, #444]	; (8005594 <main+0x1f0>)
 80053d8:	4a73      	ldr	r2, [pc, #460]	; (80055a8 <main+0x204>)
 80053da:	3324      	adds	r3, #36	; 0x24
 80053dc:	ca03      	ldmia	r2!, {r0, r1}
 80053de:	c303      	stmia	r3!, {r0, r1}
 80053e0:	4b6c      	ldr	r3, [pc, #432]	; (8005594 <main+0x1f0>)
 80053e2:	4a72      	ldr	r2, [pc, #456]	; (80055ac <main+0x208>)
 80053e4:	332c      	adds	r3, #44	; 0x2c
 80053e6:	ca03      	ldmia	r2!, {r0, r1}
 80053e8:	c303      	stmia	r3!, {r0, r1}
 80053ea:	4b6a      	ldr	r3, [pc, #424]	; (8005594 <main+0x1f0>)
 80053ec:	2200      	movs	r2, #0
 80053ee:	761a      	strb	r2, [r3, #24]
 80053f0:	f7fa ff28 	bl	8000244 <HAL_Init>
 80053f4:	4b6e      	ldr	r3, [pc, #440]	; (80055b0 <main+0x20c>)
 80053f6:	6818      	ldr	r0, [r3, #0]
 80053f8:	4b6e      	ldr	r3, [pc, #440]	; (80055b4 <main+0x210>)
 80053fa:	496f      	ldr	r1, [pc, #444]	; (80055b8 <main+0x214>)
 80053fc:	2201      	movs	r2, #1
 80053fe:	9200      	str	r2, [sp, #0]
 8005400:	681a      	ldr	r2, [r3, #0]
 8005402:	685b      	ldr	r3, [r3, #4]
 8005404:	f7ff fddb 	bl	8004fbe <begin_serial485>
 8005408:	f000 f8f2 	bl	80055f0 <SystemClock_Config>
 800540c:	f000 f9cc 	bl	80057a8 <MX_GPIO_Init>
 8005410:	f000 f95c 	bl	80056cc <MX_SPI1_Init>
 8005414:	f000 f998 	bl	8005748 <MX_USART2_UART_Init>
 8005418:	f000 f938 	bl	800568c <MX_IWDG_Init>
 800541c:	4b67      	ldr	r3, [pc, #412]	; (80055bc <main+0x218>)
 800541e:	4a68      	ldr	r2, [pc, #416]	; (80055c0 <main+0x21c>)
 8005420:	601a      	str	r2, [r3, #0]
 8005422:	4b66      	ldr	r3, [pc, #408]	; (80055bc <main+0x218>)
 8005424:	22c8      	movs	r2, #200	; 0xc8
 8005426:	0052      	lsls	r2, r2, #1
 8005428:	809a      	strh	r2, [r3, #4]
 800542a:	4966      	ldr	r1, [pc, #408]	; (80055c4 <main+0x220>)
 800542c:	4b63      	ldr	r3, [pc, #396]	; (80055bc <main+0x218>)
 800542e:	2261      	movs	r2, #97	; 0x61
 8005430:	0018      	movs	r0, r3
 8005432:	f7fe fa76 	bl	8003922 <EEPROM_ReadBytes>
 8005436:	4b63      	ldr	r3, [pc, #396]	; (80055c4 <main+0x220>)
 8005438:	781b      	ldrb	r3, [r3, #0]
 800543a:	2baa      	cmp	r3, #170	; 0xaa
 800543c:	d03c      	beq.n	80054b8 <main+0x114>
 800543e:	1dfb      	adds	r3, r7, #7
 8005440:	2200      	movs	r2, #0
 8005442:	701a      	strb	r2, [r3, #0]
 8005444:	e025      	b.n	8005492 <main+0xee>
 8005446:	1dfb      	adds	r3, r7, #7
 8005448:	781b      	ldrb	r3, [r3, #0]
 800544a:	011a      	lsls	r2, r3, #4
 800544c:	4b5d      	ldr	r3, [pc, #372]	; (80055c4 <main+0x220>)
 800544e:	18d3      	adds	r3, r2, r3
 8005450:	1c5a      	adds	r2, r3, #1
 8005452:	4b5d      	ldr	r3, [pc, #372]	; (80055c8 <main+0x224>)
 8005454:	0010      	movs	r0, r2
 8005456:	0019      	movs	r1, r3
 8005458:	2304      	movs	r3, #4
 800545a:	001a      	movs	r2, r3
 800545c:	f000 fec0 	bl	80061e0 <memcpy>
 8005460:	1dfb      	adds	r3, r7, #7
 8005462:	781b      	ldrb	r3, [r3, #0]
 8005464:	1dfa      	adds	r2, r7, #7
 8005466:	7812      	ldrb	r2, [r2, #0]
 8005468:	3231      	adds	r2, #49	; 0x31
 800546a:	b2d1      	uxtb	r1, r2
 800546c:	4a55      	ldr	r2, [pc, #340]	; (80055c4 <main+0x220>)
 800546e:	011b      	lsls	r3, r3, #4
 8005470:	18d3      	adds	r3, r2, r3
 8005472:	3304      	adds	r3, #4
 8005474:	1c0a      	adds	r2, r1, #0
 8005476:	701a      	strb	r2, [r3, #0]
 8005478:	1dfb      	adds	r3, r7, #7
 800547a:	781b      	ldrb	r3, [r3, #0]
 800547c:	4a51      	ldr	r2, [pc, #324]	; (80055c4 <main+0x220>)
 800547e:	011b      	lsls	r3, r3, #4
 8005480:	18d3      	adds	r3, r2, r3
 8005482:	3305      	adds	r3, #5
 8005484:	2200      	movs	r2, #0
 8005486:	701a      	strb	r2, [r3, #0]
 8005488:	1dfb      	adds	r3, r7, #7
 800548a:	1dfa      	adds	r2, r7, #7
 800548c:	7812      	ldrb	r2, [r2, #0]
 800548e:	3201      	adds	r2, #1
 8005490:	701a      	strb	r2, [r3, #0]
 8005492:	1dfb      	adds	r3, r7, #7
 8005494:	781b      	ldrb	r3, [r3, #0]
 8005496:	2b05      	cmp	r3, #5
 8005498:	d9d5      	bls.n	8005446 <main+0xa2>
 800549a:	4b4a      	ldr	r3, [pc, #296]	; (80055c4 <main+0x220>)
 800549c:	22aa      	movs	r2, #170	; 0xaa
 800549e:	701a      	strb	r2, [r3, #0]
 80054a0:	4948      	ldr	r1, [pc, #288]	; (80055c4 <main+0x220>)
 80054a2:	4b46      	ldr	r3, [pc, #280]	; (80055bc <main+0x218>)
 80054a4:	2261      	movs	r2, #97	; 0x61
 80054a6:	0018      	movs	r0, r3
 80054a8:	f7fe f9d8 	bl	800385c <EEPROM_WriteBytes>
 80054ac:	4945      	ldr	r1, [pc, #276]	; (80055c4 <main+0x220>)
 80054ae:	4b43      	ldr	r3, [pc, #268]	; (80055bc <main+0x218>)
 80054b0:	2261      	movs	r2, #97	; 0x61
 80054b2:	0018      	movs	r0, r3
 80054b4:	f7fe fa35 	bl	8003922 <EEPROM_ReadBytes>
 80054b8:	46c0      	nop			; (mov r8, r8)
 80054ba:	4a44      	ldr	r2, [pc, #272]	; (80055cc <main+0x228>)
 80054bc:	4b44      	ldr	r3, [pc, #272]	; (80055d0 <main+0x22c>)
 80054be:	0011      	movs	r1, r2
 80054c0:	0018      	movs	r0, r3
 80054c2:	f7fe f92f 	bl	8003724 <FS_begin>
 80054c6:	4a43      	ldr	r2, [pc, #268]	; (80055d4 <main+0x230>)
 80054c8:	4b41      	ldr	r3, [pc, #260]	; (80055d0 <main+0x22c>)
 80054ca:	0011      	movs	r1, r2
 80054cc:	0018      	movs	r0, r3
 80054ce:	f7fe f997 	bl	8003800 <FS_exists>
 80054d2:	0003      	movs	r3, r0
 80054d4:	001a      	movs	r2, r3
 80054d6:	1dfb      	adds	r3, r7, #7
 80054d8:	701a      	strb	r2, [r3, #0]
 80054da:	4a3f      	ldr	r2, [pc, #252]	; (80055d8 <main+0x234>)
 80054dc:	4b3c      	ldr	r3, [pc, #240]	; (80055d0 <main+0x22c>)
 80054de:	0011      	movs	r1, r2
 80054e0:	0018      	movs	r0, r3
 80054e2:	f7fe f98d 	bl	8003800 <FS_exists>
 80054e6:	0003      	movs	r3, r0
 80054e8:	001a      	movs	r2, r3
 80054ea:	1dfb      	adds	r3, r7, #7
 80054ec:	701a      	strb	r2, [r3, #0]
 80054ee:	4b3b      	ldr	r3, [pc, #236]	; (80055dc <main+0x238>)
 80054f0:	0018      	movs	r0, r3
 80054f2:	f7fe f903 	bl	80036fc <Delay_us>
 80054f6:	1dfb      	adds	r3, r7, #7
 80054f8:	2200      	movs	r2, #0
 80054fa:	701a      	strb	r2, [r3, #0]
 80054fc:	e013      	b.n	8005526 <main+0x182>
 80054fe:	1dfb      	adds	r3, r7, #7
 8005500:	781b      	ldrb	r3, [r3, #0]
 8005502:	0018      	movs	r0, r3
 8005504:	f7fd fbfa 	bl	8002cfc <CH395CMDCheckExist>
 8005508:	0003      	movs	r3, r0
 800550a:	001a      	movs	r2, r3
 800550c:	1dfb      	adds	r3, r7, #7
 800550e:	781b      	ldrb	r3, [r3, #0]
 8005510:	43db      	mvns	r3, r3
 8005512:	b2db      	uxtb	r3, r3
 8005514:	429a      	cmp	r2, r3
 8005516:	d001      	beq.n	800551c <main+0x178>
 8005518:	46c0      	nop			; (mov r8, r8)
 800551a:	e008      	b.n	800552e <main+0x18a>
 800551c:	1dfb      	adds	r3, r7, #7
 800551e:	1dfa      	adds	r2, r7, #7
 8005520:	7812      	ldrb	r2, [r2, #0]
 8005522:	3201      	adds	r2, #1
 8005524:	701a      	strb	r2, [r3, #0]
 8005526:	1dfb      	adds	r3, r7, #7
 8005528:	781b      	ldrb	r3, [r3, #0]
 800552a:	2bff      	cmp	r3, #255	; 0xff
 800552c:	d1e7      	bne.n	80054fe <main+0x15a>
 800552e:	4b2c      	ldr	r3, [pc, #176]	; (80055e0 <main+0x23c>)
 8005530:	0018      	movs	r0, r3
 8005532:	f7fb fb7b 	bl	8000c2c <HAL_IWDG_Refresh>
 8005536:	f000 f9f3 	bl	8005920 <reset_CH395>
 800553a:	4b2a      	ldr	r3, [pc, #168]	; (80055e4 <main+0x240>)
 800553c:	781b      	ldrb	r3, [r3, #0]
 800553e:	b2db      	uxtb	r3, r3
 8005540:	2b00      	cmp	r3, #0
 8005542:	d008      	beq.n	8005556 <main+0x1b2>
 8005544:	4b28      	ldr	r3, [pc, #160]	; (80055e8 <main+0x244>)
 8005546:	781b      	ldrb	r3, [r3, #0]
 8005548:	b2db      	uxtb	r3, r3
 800554a:	2201      	movs	r2, #1
 800554c:	4053      	eors	r3, r2
 800554e:	b2db      	uxtb	r3, r3
 8005550:	2b00      	cmp	r3, #0
 8005552:	d000      	beq.n	8005556 <main+0x1b2>
 8005554:	e7ef      	b.n	8005536 <main+0x192>
 8005556:	4b22      	ldr	r3, [pc, #136]	; (80055e0 <main+0x23c>)
 8005558:	0018      	movs	r0, r3
 800555a:	f7fb fb67 	bl	8000c2c <HAL_IWDG_Refresh>
 800555e:	4b22      	ldr	r3, [pc, #136]	; (80055e8 <main+0x244>)
 8005560:	781b      	ldrb	r3, [r3, #0]
 8005562:	b2db      	uxtb	r3, r3
 8005564:	2b00      	cmp	r3, #0
 8005566:	d00b      	beq.n	8005580 <main+0x1dc>
 8005568:	4b20      	ldr	r3, [pc, #128]	; (80055ec <main+0x248>)
 800556a:	785b      	ldrb	r3, [r3, #1]
 800556c:	b2db      	uxtb	r3, r3
 800556e:	2b00      	cmp	r3, #0
 8005570:	d006      	beq.n	8005580 <main+0x1dc>
 8005572:	4b1e      	ldr	r3, [pc, #120]	; (80055ec <main+0x248>)
 8005574:	0018      	movs	r0, r3
 8005576:	f7ff f80d 	bl	8004594 <HTTPHandle>
 800557a:	e001      	b.n	8005580 <main+0x1dc>
 800557c:	f000 fa0c 	bl	8005998 <interrupt_CH395>
 8005580:	2390      	movs	r3, #144	; 0x90
 8005582:	05db      	lsls	r3, r3, #23
 8005584:	2102      	movs	r1, #2
 8005586:	0018      	movs	r0, r3
 8005588:	f7fb facc 	bl	8000b24 <HAL_GPIO_ReadPin>
 800558c:	1e03      	subs	r3, r0, #0
 800558e:	d0f5      	beq.n	800557c <main+0x1d8>
 8005590:	e7d3      	b.n	800553a <main+0x196>
 8005592:	46c0      	nop			; (mov r8, r8)
 8005594:	2000185c 	.word	0x2000185c
 8005598:	08006804 	.word	0x08006804
 800559c:	0800680c 	.word	0x0800680c
 80055a0:	08006814 	.word	0x08006814
 80055a4:	0800681c 	.word	0x0800681c
 80055a8:	08006824 	.word	0x08006824
 80055ac:	0800682c 	.word	0x0800682c
 80055b0:	2000084c 	.word	0x2000084c
 80055b4:	08006834 	.word	0x08006834
 80055b8:	200018f8 	.word	0x200018f8
 80055bc:	2000080c 	.word	0x2000080c
 80055c0:	0800bc00 	.word	0x0800bc00
 80055c4:	200017f8 	.word	0x200017f8
 80055c8:	08006754 	.word	0x08006754
 80055cc:	0800c000 	.word	0x0800c000
 80055d0:	20001768 	.word	0x20001768
 80055d4:	08006758 	.word	0x08006758
 80055d8:	08006764 	.word	0x08006764
 80055dc:	00055730 	.word	0x00055730
 80055e0:	200017e8 	.word	0x200017e8
 80055e4:	20001530 	.word	0x20001530
 80055e8:	20001532 	.word	0x20001532
 80055ec:	20000000 	.word	0x20000000

080055f0 <SystemClock_Config>:
 80055f0:	b590      	push	{r4, r7, lr}
 80055f2:	b091      	sub	sp, #68	; 0x44
 80055f4:	af00      	add	r7, sp, #0
 80055f6:	2410      	movs	r4, #16
 80055f8:	193b      	adds	r3, r7, r4
 80055fa:	0018      	movs	r0, r3
 80055fc:	2330      	movs	r3, #48	; 0x30
 80055fe:	001a      	movs	r2, r3
 8005600:	2100      	movs	r1, #0
 8005602:	f000 fdf6 	bl	80061f2 <memset>
 8005606:	003b      	movs	r3, r7
 8005608:	0018      	movs	r0, r3
 800560a:	2310      	movs	r3, #16
 800560c:	001a      	movs	r2, r3
 800560e:	2100      	movs	r1, #0
 8005610:	f000 fdef 	bl	80061f2 <memset>
 8005614:	0021      	movs	r1, r4
 8005616:	187b      	adds	r3, r7, r1
 8005618:	220a      	movs	r2, #10
 800561a:	601a      	str	r2, [r3, #0]
 800561c:	187b      	adds	r3, r7, r1
 800561e:	2201      	movs	r2, #1
 8005620:	60da      	str	r2, [r3, #12]
 8005622:	187b      	adds	r3, r7, r1
 8005624:	2210      	movs	r2, #16
 8005626:	611a      	str	r2, [r3, #16]
 8005628:	187b      	adds	r3, r7, r1
 800562a:	2201      	movs	r2, #1
 800562c:	61da      	str	r2, [r3, #28]
 800562e:	187b      	adds	r3, r7, r1
 8005630:	2202      	movs	r2, #2
 8005632:	621a      	str	r2, [r3, #32]
 8005634:	187b      	adds	r3, r7, r1
 8005636:	2200      	movs	r2, #0
 8005638:	625a      	str	r2, [r3, #36]	; 0x24
 800563a:	187b      	adds	r3, r7, r1
 800563c:	22c0      	movs	r2, #192	; 0xc0
 800563e:	0352      	lsls	r2, r2, #13
 8005640:	629a      	str	r2, [r3, #40]	; 0x28
 8005642:	187b      	adds	r3, r7, r1
 8005644:	2200      	movs	r2, #0
 8005646:	62da      	str	r2, [r3, #44]	; 0x2c
 8005648:	187b      	adds	r3, r7, r1
 800564a:	0018      	movs	r0, r3
 800564c:	f7fb fafe 	bl	8000c4c <HAL_RCC_OscConfig>
 8005650:	1e03      	subs	r3, r0, #0
 8005652:	d001      	beq.n	8005658 <SystemClock_Config+0x68>
 8005654:	f000 fc1e 	bl	8005e94 <Error_Handler>
 8005658:	003b      	movs	r3, r7
 800565a:	2207      	movs	r2, #7
 800565c:	601a      	str	r2, [r3, #0]
 800565e:	003b      	movs	r3, r7
 8005660:	2202      	movs	r2, #2
 8005662:	605a      	str	r2, [r3, #4]
 8005664:	003b      	movs	r3, r7
 8005666:	2200      	movs	r2, #0
 8005668:	609a      	str	r2, [r3, #8]
 800566a:	003b      	movs	r3, r7
 800566c:	22a0      	movs	r2, #160	; 0xa0
 800566e:	00d2      	lsls	r2, r2, #3
 8005670:	60da      	str	r2, [r3, #12]
 8005672:	003b      	movs	r3, r7
 8005674:	2101      	movs	r1, #1
 8005676:	0018      	movs	r0, r3
 8005678:	f7fb fddc 	bl	8001234 <HAL_RCC_ClockConfig>
 800567c:	1e03      	subs	r3, r0, #0
 800567e:	d001      	beq.n	8005684 <SystemClock_Config+0x94>
 8005680:	f000 fc08 	bl	8005e94 <Error_Handler>
 8005684:	46c0      	nop			; (mov r8, r8)
 8005686:	46bd      	mov	sp, r7
 8005688:	b011      	add	sp, #68	; 0x44
 800568a:	bd90      	pop	{r4, r7, pc}

0800568c <MX_IWDG_Init>:
 800568c:	b580      	push	{r7, lr}
 800568e:	af00      	add	r7, sp, #0
 8005690:	4b0b      	ldr	r3, [pc, #44]	; (80056c0 <MX_IWDG_Init+0x34>)
 8005692:	4a0c      	ldr	r2, [pc, #48]	; (80056c4 <MX_IWDG_Init+0x38>)
 8005694:	601a      	str	r2, [r3, #0]
 8005696:	4b0a      	ldr	r3, [pc, #40]	; (80056c0 <MX_IWDG_Init+0x34>)
 8005698:	2204      	movs	r2, #4
 800569a:	605a      	str	r2, [r3, #4]
 800569c:	4b08      	ldr	r3, [pc, #32]	; (80056c0 <MX_IWDG_Init+0x34>)
 800569e:	4a0a      	ldr	r2, [pc, #40]	; (80056c8 <MX_IWDG_Init+0x3c>)
 80056a0:	60da      	str	r2, [r3, #12]
 80056a2:	4b07      	ldr	r3, [pc, #28]	; (80056c0 <MX_IWDG_Init+0x34>)
 80056a4:	4a08      	ldr	r2, [pc, #32]	; (80056c8 <MX_IWDG_Init+0x3c>)
 80056a6:	609a      	str	r2, [r3, #8]
 80056a8:	4b05      	ldr	r3, [pc, #20]	; (80056c0 <MX_IWDG_Init+0x34>)
 80056aa:	0018      	movs	r0, r3
 80056ac:	f7fb fa74 	bl	8000b98 <HAL_IWDG_Init>
 80056b0:	1e03      	subs	r3, r0, #0
 80056b2:	d001      	beq.n	80056b8 <MX_IWDG_Init+0x2c>
 80056b4:	f000 fbee 	bl	8005e94 <Error_Handler>
 80056b8:	46c0      	nop			; (mov r8, r8)
 80056ba:	46bd      	mov	sp, r7
 80056bc:	bd80      	pop	{r7, pc}
 80056be:	46c0      	nop			; (mov r8, r8)
 80056c0:	200017e8 	.word	0x200017e8
 80056c4:	40003000 	.word	0x40003000
 80056c8:	000007ff 	.word	0x000007ff

080056cc <MX_SPI1_Init>:
 80056cc:	b580      	push	{r7, lr}
 80056ce:	af00      	add	r7, sp, #0
 80056d0:	4b1b      	ldr	r3, [pc, #108]	; (8005740 <MX_SPI1_Init+0x74>)
 80056d2:	4a1c      	ldr	r2, [pc, #112]	; (8005744 <MX_SPI1_Init+0x78>)
 80056d4:	601a      	str	r2, [r3, #0]
 80056d6:	4b1a      	ldr	r3, [pc, #104]	; (8005740 <MX_SPI1_Init+0x74>)
 80056d8:	2282      	movs	r2, #130	; 0x82
 80056da:	0052      	lsls	r2, r2, #1
 80056dc:	605a      	str	r2, [r3, #4]
 80056de:	4b18      	ldr	r3, [pc, #96]	; (8005740 <MX_SPI1_Init+0x74>)
 80056e0:	2200      	movs	r2, #0
 80056e2:	609a      	str	r2, [r3, #8]
 80056e4:	4b16      	ldr	r3, [pc, #88]	; (8005740 <MX_SPI1_Init+0x74>)
 80056e6:	22e0      	movs	r2, #224	; 0xe0
 80056e8:	00d2      	lsls	r2, r2, #3
 80056ea:	60da      	str	r2, [r3, #12]
 80056ec:	4b14      	ldr	r3, [pc, #80]	; (8005740 <MX_SPI1_Init+0x74>)
 80056ee:	2202      	movs	r2, #2
 80056f0:	611a      	str	r2, [r3, #16]
 80056f2:	4b13      	ldr	r3, [pc, #76]	; (8005740 <MX_SPI1_Init+0x74>)
 80056f4:	2201      	movs	r2, #1
 80056f6:	615a      	str	r2, [r3, #20]
 80056f8:	4b11      	ldr	r3, [pc, #68]	; (8005740 <MX_SPI1_Init+0x74>)
 80056fa:	2280      	movs	r2, #128	; 0x80
 80056fc:	0092      	lsls	r2, r2, #2
 80056fe:	619a      	str	r2, [r3, #24]
 8005700:	4b0f      	ldr	r3, [pc, #60]	; (8005740 <MX_SPI1_Init+0x74>)
 8005702:	2200      	movs	r2, #0
 8005704:	61da      	str	r2, [r3, #28]
 8005706:	4b0e      	ldr	r3, [pc, #56]	; (8005740 <MX_SPI1_Init+0x74>)
 8005708:	2200      	movs	r2, #0
 800570a:	621a      	str	r2, [r3, #32]
 800570c:	4b0c      	ldr	r3, [pc, #48]	; (8005740 <MX_SPI1_Init+0x74>)
 800570e:	2200      	movs	r2, #0
 8005710:	625a      	str	r2, [r3, #36]	; 0x24
 8005712:	4b0b      	ldr	r3, [pc, #44]	; (8005740 <MX_SPI1_Init+0x74>)
 8005714:	2200      	movs	r2, #0
 8005716:	629a      	str	r2, [r3, #40]	; 0x28
 8005718:	4b09      	ldr	r3, [pc, #36]	; (8005740 <MX_SPI1_Init+0x74>)
 800571a:	2207      	movs	r2, #7
 800571c:	62da      	str	r2, [r3, #44]	; 0x2c
 800571e:	4b08      	ldr	r3, [pc, #32]	; (8005740 <MX_SPI1_Init+0x74>)
 8005720:	2200      	movs	r2, #0
 8005722:	631a      	str	r2, [r3, #48]	; 0x30
 8005724:	4b06      	ldr	r3, [pc, #24]	; (8005740 <MX_SPI1_Init+0x74>)
 8005726:	2200      	movs	r2, #0
 8005728:	635a      	str	r2, [r3, #52]	; 0x34
 800572a:	4b05      	ldr	r3, [pc, #20]	; (8005740 <MX_SPI1_Init+0x74>)
 800572c:	0018      	movs	r0, r3
 800572e:	f7fb feed 	bl	800150c <HAL_SPI_Init>
 8005732:	1e03      	subs	r3, r0, #0
 8005734:	d001      	beq.n	800573a <MX_SPI1_Init+0x6e>
 8005736:	f000 fbad 	bl	8005e94 <Error_Handler>
 800573a:	46c0      	nop			; (mov r8, r8)
 800573c:	46bd      	mov	sp, r7
 800573e:	bd80      	pop	{r7, pc}
 8005740:	20001894 	.word	0x20001894
 8005744:	40013000 	.word	0x40013000

08005748 <MX_USART2_UART_Init>:
 8005748:	b580      	push	{r7, lr}
 800574a:	af00      	add	r7, sp, #0
 800574c:	4b14      	ldr	r3, [pc, #80]	; (80057a0 <MX_USART2_UART_Init+0x58>)
 800574e:	4a15      	ldr	r2, [pc, #84]	; (80057a4 <MX_USART2_UART_Init+0x5c>)
 8005750:	601a      	str	r2, [r3, #0]
 8005752:	4b13      	ldr	r3, [pc, #76]	; (80057a0 <MX_USART2_UART_Init+0x58>)
 8005754:	2296      	movs	r2, #150	; 0x96
 8005756:	0192      	lsls	r2, r2, #6
 8005758:	605a      	str	r2, [r3, #4]
 800575a:	4b11      	ldr	r3, [pc, #68]	; (80057a0 <MX_USART2_UART_Init+0x58>)
 800575c:	2200      	movs	r2, #0
 800575e:	609a      	str	r2, [r3, #8]
 8005760:	4b0f      	ldr	r3, [pc, #60]	; (80057a0 <MX_USART2_UART_Init+0x58>)
 8005762:	2200      	movs	r2, #0
 8005764:	60da      	str	r2, [r3, #12]
 8005766:	4b0e      	ldr	r3, [pc, #56]	; (80057a0 <MX_USART2_UART_Init+0x58>)
 8005768:	2200      	movs	r2, #0
 800576a:	611a      	str	r2, [r3, #16]
 800576c:	4b0c      	ldr	r3, [pc, #48]	; (80057a0 <MX_USART2_UART_Init+0x58>)
 800576e:	220c      	movs	r2, #12
 8005770:	615a      	str	r2, [r3, #20]
 8005772:	4b0b      	ldr	r3, [pc, #44]	; (80057a0 <MX_USART2_UART_Init+0x58>)
 8005774:	2200      	movs	r2, #0
 8005776:	619a      	str	r2, [r3, #24]
 8005778:	4b09      	ldr	r3, [pc, #36]	; (80057a0 <MX_USART2_UART_Init+0x58>)
 800577a:	2200      	movs	r2, #0
 800577c:	61da      	str	r2, [r3, #28]
 800577e:	4b08      	ldr	r3, [pc, #32]	; (80057a0 <MX_USART2_UART_Init+0x58>)
 8005780:	2200      	movs	r2, #0
 8005782:	621a      	str	r2, [r3, #32]
 8005784:	4b06      	ldr	r3, [pc, #24]	; (80057a0 <MX_USART2_UART_Init+0x58>)
 8005786:	2200      	movs	r2, #0
 8005788:	625a      	str	r2, [r3, #36]	; 0x24
 800578a:	4b05      	ldr	r3, [pc, #20]	; (80057a0 <MX_USART2_UART_Init+0x58>)
 800578c:	0018      	movs	r0, r3
 800578e:	f7fc fda1 	bl	80022d4 <HAL_UART_Init>
 8005792:	1e03      	subs	r3, r0, #0
 8005794:	d001      	beq.n	800579a <MX_USART2_UART_Init+0x52>
 8005796:	f000 fb7d 	bl	8005e94 <Error_Handler>
 800579a:	46c0      	nop			; (mov r8, r8)
 800579c:	46bd      	mov	sp, r7
 800579e:	bd80      	pop	{r7, pc}
 80057a0:	200018f8 	.word	0x200018f8
 80057a4:	40004400 	.word	0x40004400

080057a8 <MX_GPIO_Init>:
 80057a8:	b590      	push	{r4, r7, lr}
 80057aa:	b089      	sub	sp, #36	; 0x24
 80057ac:	af00      	add	r7, sp, #0
 80057ae:	240c      	movs	r4, #12
 80057b0:	193b      	adds	r3, r7, r4
 80057b2:	0018      	movs	r0, r3
 80057b4:	2314      	movs	r3, #20
 80057b6:	001a      	movs	r2, r3
 80057b8:	2100      	movs	r1, #0
 80057ba:	f000 fd1a 	bl	80061f2 <memset>
 80057be:	4b52      	ldr	r3, [pc, #328]	; (8005908 <MX_GPIO_Init+0x160>)
 80057c0:	695a      	ldr	r2, [r3, #20]
 80057c2:	4b51      	ldr	r3, [pc, #324]	; (8005908 <MX_GPIO_Init+0x160>)
 80057c4:	2180      	movs	r1, #128	; 0x80
 80057c6:	03c9      	lsls	r1, r1, #15
 80057c8:	430a      	orrs	r2, r1
 80057ca:	615a      	str	r2, [r3, #20]
 80057cc:	4b4e      	ldr	r3, [pc, #312]	; (8005908 <MX_GPIO_Init+0x160>)
 80057ce:	695a      	ldr	r2, [r3, #20]
 80057d0:	2380      	movs	r3, #128	; 0x80
 80057d2:	03db      	lsls	r3, r3, #15
 80057d4:	4013      	ands	r3, r2
 80057d6:	60bb      	str	r3, [r7, #8]
 80057d8:	68bb      	ldr	r3, [r7, #8]
 80057da:	4b4b      	ldr	r3, [pc, #300]	; (8005908 <MX_GPIO_Init+0x160>)
 80057dc:	695a      	ldr	r2, [r3, #20]
 80057de:	4b4a      	ldr	r3, [pc, #296]	; (8005908 <MX_GPIO_Init+0x160>)
 80057e0:	2180      	movs	r1, #128	; 0x80
 80057e2:	0289      	lsls	r1, r1, #10
 80057e4:	430a      	orrs	r2, r1
 80057e6:	615a      	str	r2, [r3, #20]
 80057e8:	4b47      	ldr	r3, [pc, #284]	; (8005908 <MX_GPIO_Init+0x160>)
 80057ea:	695a      	ldr	r2, [r3, #20]
 80057ec:	2380      	movs	r3, #128	; 0x80
 80057ee:	029b      	lsls	r3, r3, #10
 80057f0:	4013      	ands	r3, r2
 80057f2:	607b      	str	r3, [r7, #4]
 80057f4:	687b      	ldr	r3, [r7, #4]
 80057f6:	4b44      	ldr	r3, [pc, #272]	; (8005908 <MX_GPIO_Init+0x160>)
 80057f8:	695a      	ldr	r2, [r3, #20]
 80057fa:	4b43      	ldr	r3, [pc, #268]	; (8005908 <MX_GPIO_Init+0x160>)
 80057fc:	2180      	movs	r1, #128	; 0x80
 80057fe:	02c9      	lsls	r1, r1, #11
 8005800:	430a      	orrs	r2, r1
 8005802:	615a      	str	r2, [r3, #20]
 8005804:	4b40      	ldr	r3, [pc, #256]	; (8005908 <MX_GPIO_Init+0x160>)
 8005806:	695a      	ldr	r2, [r3, #20]
 8005808:	2380      	movs	r3, #128	; 0x80
 800580a:	02db      	lsls	r3, r3, #11
 800580c:	4013      	ands	r3, r2
 800580e:	603b      	str	r3, [r7, #0]
 8005810:	683b      	ldr	r3, [r7, #0]
 8005812:	493e      	ldr	r1, [pc, #248]	; (800590c <MX_GPIO_Init+0x164>)
 8005814:	2390      	movs	r3, #144	; 0x90
 8005816:	05db      	lsls	r3, r3, #23
 8005818:	2201      	movs	r2, #1
 800581a:	0018      	movs	r0, r3
 800581c:	f7fb f99f 	bl	8000b5e <HAL_GPIO_WritePin>
 8005820:	493b      	ldr	r1, [pc, #236]	; (8005910 <MX_GPIO_Init+0x168>)
 8005822:	4b3c      	ldr	r3, [pc, #240]	; (8005914 <MX_GPIO_Init+0x16c>)
 8005824:	2201      	movs	r2, #1
 8005826:	0018      	movs	r0, r3
 8005828:	f7fb f999 	bl	8000b5e <HAL_GPIO_WritePin>
 800582c:	193b      	adds	r3, r7, r4
 800582e:	2203      	movs	r2, #3
 8005830:	601a      	str	r2, [r3, #0]
 8005832:	193b      	adds	r3, r7, r4
 8005834:	2200      	movs	r2, #0
 8005836:	605a      	str	r2, [r3, #4]
 8005838:	193b      	adds	r3, r7, r4
 800583a:	2200      	movs	r2, #0
 800583c:	609a      	str	r2, [r3, #8]
 800583e:	193b      	adds	r3, r7, r4
 8005840:	4a35      	ldr	r2, [pc, #212]	; (8005918 <MX_GPIO_Init+0x170>)
 8005842:	0019      	movs	r1, r3
 8005844:	0010      	movs	r0, r2
 8005846:	f7fa fff9 	bl	800083c <HAL_GPIO_Init>
 800584a:	193b      	adds	r3, r7, r4
 800584c:	2202      	movs	r2, #2
 800584e:	601a      	str	r2, [r3, #0]
 8005850:	193b      	adds	r3, r7, r4
 8005852:	4a32      	ldr	r2, [pc, #200]	; (800591c <MX_GPIO_Init+0x174>)
 8005854:	605a      	str	r2, [r3, #4]
 8005856:	193b      	adds	r3, r7, r4
 8005858:	2201      	movs	r2, #1
 800585a:	609a      	str	r2, [r3, #8]
 800585c:	193a      	adds	r2, r7, r4
 800585e:	2390      	movs	r3, #144	; 0x90
 8005860:	05db      	lsls	r3, r3, #23
 8005862:	0011      	movs	r1, r2
 8005864:	0018      	movs	r0, r3
 8005866:	f7fa ffe9 	bl	800083c <HAL_GPIO_Init>
 800586a:	193b      	adds	r3, r7, r4
 800586c:	4a27      	ldr	r2, [pc, #156]	; (800590c <MX_GPIO_Init+0x164>)
 800586e:	601a      	str	r2, [r3, #0]
 8005870:	193b      	adds	r3, r7, r4
 8005872:	2211      	movs	r2, #17
 8005874:	605a      	str	r2, [r3, #4]
 8005876:	193b      	adds	r3, r7, r4
 8005878:	2201      	movs	r2, #1
 800587a:	609a      	str	r2, [r3, #8]
 800587c:	193b      	adds	r3, r7, r4
 800587e:	2200      	movs	r2, #0
 8005880:	60da      	str	r2, [r3, #12]
 8005882:	193a      	adds	r2, r7, r4
 8005884:	2390      	movs	r3, #144	; 0x90
 8005886:	05db      	lsls	r3, r3, #23
 8005888:	0011      	movs	r1, r2
 800588a:	0018      	movs	r0, r3
 800588c:	f7fa ffd6 	bl	800083c <HAL_GPIO_Init>
 8005890:	0021      	movs	r1, r4
 8005892:	187b      	adds	r3, r7, r1
 8005894:	4a1e      	ldr	r2, [pc, #120]	; (8005910 <MX_GPIO_Init+0x168>)
 8005896:	601a      	str	r2, [r3, #0]
 8005898:	187b      	adds	r3, r7, r1
 800589a:	2211      	movs	r2, #17
 800589c:	605a      	str	r2, [r3, #4]
 800589e:	187b      	adds	r3, r7, r1
 80058a0:	2201      	movs	r2, #1
 80058a2:	609a      	str	r2, [r3, #8]
 80058a4:	187b      	adds	r3, r7, r1
 80058a6:	2200      	movs	r2, #0
 80058a8:	60da      	str	r2, [r3, #12]
 80058aa:	000c      	movs	r4, r1
 80058ac:	187b      	adds	r3, r7, r1
 80058ae:	4a19      	ldr	r2, [pc, #100]	; (8005914 <MX_GPIO_Init+0x16c>)
 80058b0:	0019      	movs	r1, r3
 80058b2:	0010      	movs	r0, r2
 80058b4:	f7fa ffc2 	bl	800083c <HAL_GPIO_Init>
 80058b8:	0021      	movs	r1, r4
 80058ba:	187b      	adds	r3, r7, r1
 80058bc:	2280      	movs	r2, #128	; 0x80
 80058be:	0212      	lsls	r2, r2, #8
 80058c0:	601a      	str	r2, [r3, #0]
 80058c2:	187b      	adds	r3, r7, r1
 80058c4:	2200      	movs	r2, #0
 80058c6:	605a      	str	r2, [r3, #4]
 80058c8:	187b      	adds	r3, r7, r1
 80058ca:	2201      	movs	r2, #1
 80058cc:	609a      	str	r2, [r3, #8]
 80058ce:	000c      	movs	r4, r1
 80058d0:	187b      	adds	r3, r7, r1
 80058d2:	4a10      	ldr	r2, [pc, #64]	; (8005914 <MX_GPIO_Init+0x16c>)
 80058d4:	0019      	movs	r1, r3
 80058d6:	0010      	movs	r0, r2
 80058d8:	f7fa ffb0 	bl	800083c <HAL_GPIO_Init>
 80058dc:	0021      	movs	r1, r4
 80058de:	187b      	adds	r3, r7, r1
 80058e0:	22c0      	movs	r2, #192	; 0xc0
 80058e2:	0092      	lsls	r2, r2, #2
 80058e4:	601a      	str	r2, [r3, #0]
 80058e6:	187b      	adds	r3, r7, r1
 80058e8:	2200      	movs	r2, #0
 80058ea:	605a      	str	r2, [r3, #4]
 80058ec:	187b      	adds	r3, r7, r1
 80058ee:	2201      	movs	r2, #1
 80058f0:	609a      	str	r2, [r3, #8]
 80058f2:	187a      	adds	r2, r7, r1
 80058f4:	2390      	movs	r3, #144	; 0x90
 80058f6:	05db      	lsls	r3, r3, #23
 80058f8:	0011      	movs	r1, r2
 80058fa:	0018      	movs	r0, r3
 80058fc:	f7fa ff9e 	bl	800083c <HAL_GPIO_Init>
 8005900:	46c0      	nop			; (mov r8, r8)
 8005902:	46bd      	mov	sp, r7
 8005904:	b009      	add	sp, #36	; 0x24
 8005906:	bd90      	pop	{r4, r7, pc}
 8005908:	40021000 	.word	0x40021000
 800590c:	00009c10 	.word	0x00009c10
 8005910:	00007818 	.word	0x00007818
 8005914:	48000400 	.word	0x48000400
 8005918:	48001400 	.word	0x48001400
 800591c:	10210000 	.word	0x10210000

08005920 <reset_CH395>:
 8005920:	b580      	push	{r7, lr}
 8005922:	af00      	add	r7, sp, #0
 8005924:	4b15      	ldr	r3, [pc, #84]	; (800597c <reset_CH395+0x5c>)
 8005926:	2200      	movs	r2, #0
 8005928:	701a      	strb	r2, [r3, #0]
 800592a:	4b15      	ldr	r3, [pc, #84]	; (8005980 <reset_CH395+0x60>)
 800592c:	2200      	movs	r2, #0
 800592e:	705a      	strb	r2, [r3, #1]
 8005930:	4b13      	ldr	r3, [pc, #76]	; (8005980 <reset_CH395+0x60>)
 8005932:	22ff      	movs	r2, #255	; 0xff
 8005934:	709a      	strb	r2, [r3, #2]
 8005936:	4b12      	ldr	r3, [pc, #72]	; (8005980 <reset_CH395+0x60>)
 8005938:	22ff      	movs	r2, #255	; 0xff
 800593a:	70da      	strb	r2, [r3, #3]
 800593c:	4b10      	ldr	r3, [pc, #64]	; (8005980 <reset_CH395+0x60>)
 800593e:	2200      	movs	r2, #0
 8005940:	701a      	strb	r2, [r3, #0]
 8005942:	f7fd f9c9 	bl	8002cd8 <CH395CMDReset>
 8005946:	4b0f      	ldr	r3, [pc, #60]	; (8005984 <reset_CH395+0x64>)
 8005948:	0018      	movs	r0, r3
 800594a:	f7fd fed7 	bl	80036fc <Delay_us>
 800594e:	f7fd f919 	bl	8002b84 <CH395SetBuffer>
 8005952:	4b0d      	ldr	r3, [pc, #52]	; (8005988 <reset_CH395+0x68>)
 8005954:	681a      	ldr	r2, [r3, #0]
 8005956:	4b0d      	ldr	r3, [pc, #52]	; (800598c <reset_CH395+0x6c>)
 8005958:	881b      	ldrh	r3, [r3, #0]
 800595a:	0019      	movs	r1, r3
 800595c:	0010      	movs	r0, r2
 800595e:	f7fd f943 	bl	8002be8 <CH395TCPServerStart>
 8005962:	0003      	movs	r3, r0
 8005964:	001a      	movs	r2, r3
 8005966:	4b05      	ldr	r3, [pc, #20]	; (800597c <reset_CH395+0x5c>)
 8005968:	701a      	strb	r2, [r3, #0]
 800596a:	4b09      	ldr	r3, [pc, #36]	; (8005990 <reset_CH395+0x70>)
 800596c:	2200      	movs	r2, #0
 800596e:	701a      	strb	r2, [r3, #0]
 8005970:	4b08      	ldr	r3, [pc, #32]	; (8005994 <reset_CH395+0x74>)
 8005972:	2200      	movs	r2, #0
 8005974:	701a      	strb	r2, [r3, #0]
 8005976:	46c0      	nop			; (mov r8, r8)
 8005978:	46bd      	mov	sp, r7
 800597a:	bd80      	pop	{r7, pc}
 800597c:	20001532 	.word	0x20001532
 8005980:	20000000 	.word	0x20000000
 8005984:	000186a0 	.word	0x000186a0
 8005988:	20000868 	.word	0x20000868
 800598c:	2000086c 	.word	0x2000086c
 8005990:	20001530 	.word	0x20001530
 8005994:	20001531 	.word	0x20001531

08005998 <interrupt_CH395>:
 8005998:	b5b0      	push	{r4, r5, r7, lr}
 800599a:	b086      	sub	sp, #24
 800599c:	af00      	add	r7, sp, #0
 800599e:	2514      	movs	r5, #20
 80059a0:	197c      	adds	r4, r7, r5
 80059a2:	f7fd fe35 	bl	8003610 <CH395CMDGetGlobIntStatus_ALL>
 80059a6:	0003      	movs	r3, r0
 80059a8:	8023      	strh	r3, [r4, #0]
 80059aa:	197b      	adds	r3, r7, r5
 80059ac:	881b      	ldrh	r3, [r3, #0]
 80059ae:	2201      	movs	r2, #1
 80059b0:	4013      	ands	r3, r2
 80059b2:	d005      	beq.n	80059c0 <interrupt_CH395+0x28>
 80059b4:	1d3b      	adds	r3, r7, #4
 80059b6:	0018      	movs	r0, r3
 80059b8:	f7fd fa8a 	bl	8002ed0 <CH395CMDGetUnreachIPPT>
 80059bc:	f7ff ffb0 	bl	8005920 <reset_CH395>
 80059c0:	2314      	movs	r3, #20
 80059c2:	18fb      	adds	r3, r7, r3
 80059c4:	881b      	ldrh	r3, [r3, #0]
 80059c6:	2208      	movs	r2, #8
 80059c8:	4013      	ands	r3, r2
 80059ca:	d001      	beq.n	80059d0 <interrupt_CH395+0x38>
 80059cc:	f7fd fd96 	bl	80034fc <CH395GetDHCPStatus>
 80059d0:	2314      	movs	r3, #20
 80059d2:	18fb      	adds	r3, r7, r3
 80059d4:	881b      	ldrh	r3, [r3, #0]
 80059d6:	2204      	movs	r2, #4
 80059d8:	4013      	ands	r3, r2
 80059da:	d00c      	beq.n	80059f6 <interrupt_CH395+0x5e>
 80059dc:	f7fd f9b2 	bl	8002d44 <CH395CMDGetPHYStatus>
 80059e0:	0003      	movs	r3, r0
 80059e2:	2b01      	cmp	r3, #1
 80059e4:	d103      	bne.n	80059ee <interrupt_CH395+0x56>
 80059e6:	4b94      	ldr	r3, [pc, #592]	; (8005c38 <interrupt_CH395+0x2a0>)
 80059e8:	2200      	movs	r2, #0
 80059ea:	701a      	strb	r2, [r3, #0]
 80059ec:	e004      	b.n	80059f8 <interrupt_CH395+0x60>
 80059ee:	4b93      	ldr	r3, [pc, #588]	; (8005c3c <interrupt_CH395+0x2a4>)
 80059f0:	2201      	movs	r2, #1
 80059f2:	701a      	strb	r2, [r3, #0]
 80059f4:	e000      	b.n	80059f8 <interrupt_CH395+0x60>
 80059f6:	46c0      	nop			; (mov r8, r8)
 80059f8:	2114      	movs	r1, #20
 80059fa:	187b      	adds	r3, r7, r1
 80059fc:	187a      	adds	r2, r7, r1
 80059fe:	8812      	ldrh	r2, [r2, #0]
 8005a00:	0912      	lsrs	r2, r2, #4
 8005a02:	801a      	strh	r2, [r3, #0]
 8005a04:	187b      	adds	r3, r7, r1
 8005a06:	881b      	ldrh	r3, [r3, #0]
 8005a08:	2b00      	cmp	r3, #0
 8005a0a:	d100      	bne.n	8005a0e <interrupt_CH395+0x76>
 8005a0c:	e10e      	b.n	8005c2c <interrupt_CH395+0x294>
 8005a0e:	2317      	movs	r3, #23
 8005a10:	18fb      	adds	r3, r7, r3
 8005a12:	2201      	movs	r2, #1
 8005a14:	701a      	strb	r2, [r3, #0]
 8005a16:	e102      	b.n	8005c1e <interrupt_CH395+0x286>
 8005a18:	2114      	movs	r1, #20
 8005a1a:	187b      	adds	r3, r7, r1
 8005a1c:	187a      	adds	r2, r7, r1
 8005a1e:	8812      	ldrh	r2, [r2, #0]
 8005a20:	0852      	lsrs	r2, r2, #1
 8005a22:	801a      	strh	r2, [r3, #0]
 8005a24:	187b      	adds	r3, r7, r1
 8005a26:	881b      	ldrh	r3, [r3, #0]
 8005a28:	2201      	movs	r2, #1
 8005a2a:	4013      	ands	r3, r2
 8005a2c:	d100      	bne.n	8005a30 <interrupt_CH395+0x98>
 8005a2e:	e0f0      	b.n	8005c12 <interrupt_CH395+0x27a>
 8005a30:	2511      	movs	r5, #17
 8005a32:	197c      	adds	r4, r7, r5
 8005a34:	2317      	movs	r3, #23
 8005a36:	18fb      	adds	r3, r7, r3
 8005a38:	781b      	ldrb	r3, [r3, #0]
 8005a3a:	0018      	movs	r0, r3
 8005a3c:	f7fd fcf8 	bl	8003430 <CH395GetSocketInt>
 8005a40:	0003      	movs	r3, r0
 8005a42:	7023      	strb	r3, [r4, #0]
 8005a44:	197b      	adds	r3, r7, r5
 8005a46:	781b      	ldrb	r3, [r3, #0]
 8005a48:	2201      	movs	r2, #1
 8005a4a:	4013      	ands	r3, r2
 8005a4c:	d00f      	beq.n	8005a6e <interrupt_CH395+0xd6>
 8005a4e:	4b7c      	ldr	r3, [pc, #496]	; (8005c40 <interrupt_CH395+0x2a8>)
 8005a50:	78db      	ldrb	r3, [r3, #3]
 8005a52:	b2db      	uxtb	r3, r3
 8005a54:	b25a      	sxtb	r2, r3
 8005a56:	2317      	movs	r3, #23
 8005a58:	18fb      	adds	r3, r7, r3
 8005a5a:	781b      	ldrb	r3, [r3, #0]
 8005a5c:	2101      	movs	r1, #1
 8005a5e:	4099      	lsls	r1, r3
 8005a60:	000b      	movs	r3, r1
 8005a62:	b25b      	sxtb	r3, r3
 8005a64:	4313      	orrs	r3, r2
 8005a66:	b25b      	sxtb	r3, r3
 8005a68:	b2da      	uxtb	r2, r3
 8005a6a:	4b75      	ldr	r3, [pc, #468]	; (8005c40 <interrupt_CH395+0x2a8>)
 8005a6c:	70da      	strb	r2, [r3, #3]
 8005a6e:	2311      	movs	r3, #17
 8005a70:	18fb      	adds	r3, r7, r3
 8005a72:	781b      	ldrb	r3, [r3, #0]
 8005a74:	2204      	movs	r2, #4
 8005a76:	4013      	ands	r3, r2
 8005a78:	d063      	beq.n	8005b42 <interrupt_CH395+0x1aa>
 8005a7a:	2117      	movs	r1, #23
 8005a7c:	187b      	adds	r3, r7, r1
 8005a7e:	781b      	ldrb	r3, [r3, #0]
 8005a80:	22b6      	movs	r2, #182	; 0xb6
 8005a82:	0052      	lsls	r2, r2, #1
 8005a84:	4353      	muls	r3, r2
 8005a86:	3b6d      	subs	r3, #109	; 0x6d
 8005a88:	3bff      	subs	r3, #255	; 0xff
 8005a8a:	001a      	movs	r2, r3
 8005a8c:	4b6d      	ldr	r3, [pc, #436]	; (8005c44 <interrupt_CH395+0x2ac>)
 8005a8e:	18d3      	adds	r3, r2, r3
 8005a90:	60fb      	str	r3, [r7, #12]
 8005a92:	2512      	movs	r5, #18
 8005a94:	197c      	adds	r4, r7, r5
 8005a96:	187b      	adds	r3, r7, r1
 8005a98:	781b      	ldrb	r3, [r3, #0]
 8005a9a:	0018      	movs	r0, r3
 8005a9c:	f7fd fb64 	bl	8003168 <CH395GetRecvLength>
 8005aa0:	0003      	movs	r3, r0
 8005aa2:	8023      	strh	r3, [r4, #0]
 8005aa4:	197b      	adds	r3, r7, r5
 8005aa6:	881b      	ldrh	r3, [r3, #0]
 8005aa8:	4a67      	ldr	r2, [pc, #412]	; (8005c48 <interrupt_CH395+0x2b0>)
 8005aaa:	4293      	cmp	r3, r2
 8005aac:	d905      	bls.n	8005aba <interrupt_CH395+0x122>
 8005aae:	2312      	movs	r3, #18
 8005ab0:	18fb      	adds	r3, r7, r3
 8005ab2:	4a66      	ldr	r2, [pc, #408]	; (8005c4c <interrupt_CH395+0x2b4>)
 8005ab4:	801a      	strh	r2, [r3, #0]
 8005ab6:	4965      	ldr	r1, [pc, #404]	; (8005c4c <interrupt_CH395+0x2b4>)
 8005ab8:	e002      	b.n	8005ac0 <interrupt_CH395+0x128>
 8005aba:	2312      	movs	r3, #18
 8005abc:	18fb      	adds	r3, r7, r3
 8005abe:	8819      	ldrh	r1, [r3, #0]
 8005ac0:	4a63      	ldr	r2, [pc, #396]	; (8005c50 <interrupt_CH395+0x2b8>)
 8005ac2:	2417      	movs	r4, #23
 8005ac4:	193b      	adds	r3, r7, r4
 8005ac6:	781b      	ldrb	r3, [r3, #0]
 8005ac8:	0018      	movs	r0, r3
 8005aca:	f7fd fb99 	bl	8003200 <CH395GetRecvData>
 8005ace:	2312      	movs	r3, #18
 8005ad0:	18fb      	adds	r3, r7, r3
 8005ad2:	881b      	ldrh	r3, [r3, #0]
 8005ad4:	4a5a      	ldr	r2, [pc, #360]	; (8005c40 <interrupt_CH395+0x2a8>)
 8005ad6:	18d3      	adds	r3, r2, r3
 8005ad8:	2200      	movs	r2, #0
 8005ada:	711a      	strb	r2, [r3, #4]
 8005adc:	68fb      	ldr	r3, [r7, #12]
 8005ade:	0018      	movs	r0, r3
 8005ae0:	f7fe f8ec 	bl	8003cbc <resetHTTPParseState>
 8005ae4:	68fa      	ldr	r2, [r7, #12]
 8005ae6:	1939      	adds	r1, r7, r4
 8005ae8:	236a      	movs	r3, #106	; 0x6a
 8005aea:	33ff      	adds	r3, #255	; 0xff
 8005aec:	7809      	ldrb	r1, [r1, #0]
 8005aee:	54d1      	strb	r1, [r2, r3]
 8005af0:	4a57      	ldr	r2, [pc, #348]	; (8005c50 <interrupt_CH395+0x2b8>)
 8005af2:	68fb      	ldr	r3, [r7, #12]
 8005af4:	0011      	movs	r1, r2
 8005af6:	0018      	movs	r0, r3
 8005af8:	f7fe ff7c 	bl	80049f4 <parse_http>
 8005afc:	1e03      	subs	r3, r0, #0
 8005afe:	d01a      	beq.n	8005b36 <interrupt_CH395+0x19e>
 8005b00:	4b4f      	ldr	r3, [pc, #316]	; (8005c40 <interrupt_CH395+0x2a8>)
 8005b02:	785b      	ldrb	r3, [r3, #1]
 8005b04:	b2db      	uxtb	r3, r3
 8005b06:	b25a      	sxtb	r2, r3
 8005b08:	2317      	movs	r3, #23
 8005b0a:	18fb      	adds	r3, r7, r3
 8005b0c:	781b      	ldrb	r3, [r3, #0]
 8005b0e:	2101      	movs	r1, #1
 8005b10:	4099      	lsls	r1, r3
 8005b12:	000b      	movs	r3, r1
 8005b14:	b25b      	sxtb	r3, r3
 8005b16:	4313      	orrs	r3, r2
 8005b18:	b25b      	sxtb	r3, r3
 8005b1a:	b2da      	uxtb	r2, r3
 8005b1c:	4b48      	ldr	r3, [pc, #288]	; (8005c40 <interrupt_CH395+0x2a8>)
 8005b1e:	705a      	strb	r2, [r3, #1]
 8005b20:	4b47      	ldr	r3, [pc, #284]	; (8005c40 <interrupt_CH395+0x2a8>)
 8005b22:	789b      	ldrb	r3, [r3, #2]
 8005b24:	b25b      	sxtb	r3, r3
 8005b26:	2b00      	cmp	r3, #0
 8005b28:	da05      	bge.n	8005b36 <interrupt_CH395+0x19e>
 8005b2a:	2317      	movs	r3, #23
 8005b2c:	18fb      	adds	r3, r7, r3
 8005b2e:	2200      	movs	r2, #0
 8005b30:	569a      	ldrsb	r2, [r3, r2]
 8005b32:	4b43      	ldr	r3, [pc, #268]	; (8005c40 <interrupt_CH395+0x2a8>)
 8005b34:	709a      	strb	r2, [r3, #2]
 8005b36:	2317      	movs	r3, #23
 8005b38:	18fb      	adds	r3, r7, r3
 8005b3a:	781b      	ldrb	r3, [r3, #0]
 8005b3c:	0018      	movs	r0, r3
 8005b3e:	f7fd fb43 	bl	80031c8 <CH395ClearRecvBuf>
 8005b42:	2311      	movs	r3, #17
 8005b44:	18fb      	adds	r3, r7, r3
 8005b46:	781b      	ldrb	r3, [r3, #0]
 8005b48:	2208      	movs	r2, #8
 8005b4a:	4013      	ands	r3, r2
 8005b4c:	d01e      	beq.n	8005b8c <interrupt_CH395+0x1f4>
 8005b4e:	4b3c      	ldr	r3, [pc, #240]	; (8005c40 <interrupt_CH395+0x2a8>)
 8005b50:	781b      	ldrb	r3, [r3, #0]
 8005b52:	b2db      	uxtb	r3, r3
 8005b54:	b25a      	sxtb	r2, r3
 8005b56:	2017      	movs	r0, #23
 8005b58:	183b      	adds	r3, r7, r0
 8005b5a:	781b      	ldrb	r3, [r3, #0]
 8005b5c:	2101      	movs	r1, #1
 8005b5e:	4099      	lsls	r1, r3
 8005b60:	000b      	movs	r3, r1
 8005b62:	b25b      	sxtb	r3, r3
 8005b64:	4313      	orrs	r3, r2
 8005b66:	b25b      	sxtb	r3, r3
 8005b68:	b2da      	uxtb	r2, r3
 8005b6a:	4b35      	ldr	r3, [pc, #212]	; (8005c40 <interrupt_CH395+0x2a8>)
 8005b6c:	701a      	strb	r2, [r3, #0]
 8005b6e:	4b34      	ldr	r3, [pc, #208]	; (8005c40 <interrupt_CH395+0x2a8>)
 8005b70:	78db      	ldrb	r3, [r3, #3]
 8005b72:	b2db      	uxtb	r3, r3
 8005b74:	b25a      	sxtb	r2, r3
 8005b76:	183b      	adds	r3, r7, r0
 8005b78:	781b      	ldrb	r3, [r3, #0]
 8005b7a:	2101      	movs	r1, #1
 8005b7c:	4099      	lsls	r1, r3
 8005b7e:	000b      	movs	r3, r1
 8005b80:	b25b      	sxtb	r3, r3
 8005b82:	4313      	orrs	r3, r2
 8005b84:	b25b      	sxtb	r3, r3
 8005b86:	b2da      	uxtb	r2, r3
 8005b88:	4b2d      	ldr	r3, [pc, #180]	; (8005c40 <interrupt_CH395+0x2a8>)
 8005b8a:	70da      	strb	r2, [r3, #3]
 8005b8c:	2311      	movs	r3, #17
 8005b8e:	18fb      	adds	r3, r7, r3
 8005b90:	781b      	ldrb	r3, [r3, #0]
 8005b92:	2210      	movs	r2, #16
 8005b94:	4013      	ands	r3, r2
 8005b96:	d03c      	beq.n	8005c12 <interrupt_CH395+0x27a>
 8005b98:	4b29      	ldr	r3, [pc, #164]	; (8005c40 <interrupt_CH395+0x2a8>)
 8005b9a:	781b      	ldrb	r3, [r3, #0]
 8005b9c:	b2db      	uxtb	r3, r3
 8005b9e:	b25b      	sxtb	r3, r3
 8005ba0:	2017      	movs	r0, #23
 8005ba2:	183a      	adds	r2, r7, r0
 8005ba4:	7812      	ldrb	r2, [r2, #0]
 8005ba6:	2101      	movs	r1, #1
 8005ba8:	4091      	lsls	r1, r2
 8005baa:	000a      	movs	r2, r1
 8005bac:	b252      	sxtb	r2, r2
 8005bae:	43d2      	mvns	r2, r2
 8005bb0:	b252      	sxtb	r2, r2
 8005bb2:	4013      	ands	r3, r2
 8005bb4:	b25b      	sxtb	r3, r3
 8005bb6:	b2da      	uxtb	r2, r3
 8005bb8:	4b21      	ldr	r3, [pc, #132]	; (8005c40 <interrupt_CH395+0x2a8>)
 8005bba:	701a      	strb	r2, [r3, #0]
 8005bbc:	4b20      	ldr	r3, [pc, #128]	; (8005c40 <interrupt_CH395+0x2a8>)
 8005bbe:	785b      	ldrb	r3, [r3, #1]
 8005bc0:	b2db      	uxtb	r3, r3
 8005bc2:	b25b      	sxtb	r3, r3
 8005bc4:	183a      	adds	r2, r7, r0
 8005bc6:	7812      	ldrb	r2, [r2, #0]
 8005bc8:	2101      	movs	r1, #1
 8005bca:	4091      	lsls	r1, r2
 8005bcc:	000a      	movs	r2, r1
 8005bce:	b252      	sxtb	r2, r2
 8005bd0:	43d2      	mvns	r2, r2
 8005bd2:	b252      	sxtb	r2, r2
 8005bd4:	4013      	ands	r3, r2
 8005bd6:	b25b      	sxtb	r3, r3
 8005bd8:	b2da      	uxtb	r2, r3
 8005bda:	4b19      	ldr	r3, [pc, #100]	; (8005c40 <interrupt_CH395+0x2a8>)
 8005bdc:	705a      	strb	r2, [r3, #1]
 8005bde:	4b18      	ldr	r3, [pc, #96]	; (8005c40 <interrupt_CH395+0x2a8>)
 8005be0:	78db      	ldrb	r3, [r3, #3]
 8005be2:	b2db      	uxtb	r3, r3
 8005be4:	b25a      	sxtb	r2, r3
 8005be6:	183b      	adds	r3, r7, r0
 8005be8:	781b      	ldrb	r3, [r3, #0]
 8005bea:	2101      	movs	r1, #1
 8005bec:	4099      	lsls	r1, r3
 8005bee:	000b      	movs	r3, r1
 8005bf0:	b25b      	sxtb	r3, r3
 8005bf2:	4313      	orrs	r3, r2
 8005bf4:	b25b      	sxtb	r3, r3
 8005bf6:	b2da      	uxtb	r2, r3
 8005bf8:	4b11      	ldr	r3, [pc, #68]	; (8005c40 <interrupt_CH395+0x2a8>)
 8005bfa:	70da      	strb	r2, [r3, #3]
 8005bfc:	4b10      	ldr	r3, [pc, #64]	; (8005c40 <interrupt_CH395+0x2a8>)
 8005bfe:	789b      	ldrb	r3, [r3, #2]
 8005c00:	b25b      	sxtb	r3, r3
 8005c02:	001a      	movs	r2, r3
 8005c04:	183b      	adds	r3, r7, r0
 8005c06:	781b      	ldrb	r3, [r3, #0]
 8005c08:	429a      	cmp	r2, r3
 8005c0a:	d102      	bne.n	8005c12 <interrupt_CH395+0x27a>
 8005c0c:	4b0c      	ldr	r3, [pc, #48]	; (8005c40 <interrupt_CH395+0x2a8>)
 8005c0e:	22ff      	movs	r2, #255	; 0xff
 8005c10:	709a      	strb	r2, [r3, #2]
 8005c12:	2217      	movs	r2, #23
 8005c14:	18bb      	adds	r3, r7, r2
 8005c16:	18ba      	adds	r2, r7, r2
 8005c18:	7812      	ldrb	r2, [r2, #0]
 8005c1a:	3201      	adds	r2, #1
 8005c1c:	701a      	strb	r2, [r3, #0]
 8005c1e:	2317      	movs	r3, #23
 8005c20:	18fb      	adds	r3, r7, r3
 8005c22:	781b      	ldrb	r3, [r3, #0]
 8005c24:	2b07      	cmp	r3, #7
 8005c26:	d800      	bhi.n	8005c2a <interrupt_CH395+0x292>
 8005c28:	e6f6      	b.n	8005a18 <interrupt_CH395+0x80>
 8005c2a:	e000      	b.n	8005c2e <interrupt_CH395+0x296>
 8005c2c:	46c0      	nop			; (mov r8, r8)
 8005c2e:	46c0      	nop			; (mov r8, r8)
 8005c30:	46bd      	mov	sp, r7
 8005c32:	b006      	add	sp, #24
 8005c34:	bdb0      	pop	{r4, r5, r7, pc}
 8005c36:	46c0      	nop			; (mov r8, r8)
 8005c38:	20001532 	.word	0x20001532
 8005c3c:	20001530 	.word	0x20001530
 8005c40:	20000000 	.word	0x20000000
 8005c44:	20000980 	.word	0x20000980
 8005c48:	000007fe 	.word	0x000007fe
 8005c4c:	000007ff 	.word	0x000007ff
 8005c50:	20000004 	.word	0x20000004

08005c54 <switch_Antenna>:
 8005c54:	b5f0      	push	{r4, r5, r6, r7, lr}
 8005c56:	b08b      	sub	sp, #44	; 0x2c
 8005c58:	af00      	add	r7, sp, #0
 8005c5a:	0002      	movs	r2, r0
 8005c5c:	1dfb      	adds	r3, r7, #7
 8005c5e:	701a      	strb	r2, [r3, #0]
 8005c60:	1dbb      	adds	r3, r7, #6
 8005c62:	1c0a      	adds	r2, r1, #0
 8005c64:	701a      	strb	r2, [r3, #0]
 8005c66:	4b46      	ldr	r3, [pc, #280]	; (8005d80 <switch_Antenna+0x12c>)
 8005c68:	1dfa      	adds	r2, r7, #7
 8005c6a:	7812      	ldrb	r2, [r2, #0]
 8005c6c:	761a      	strb	r2, [r3, #24]
 8005c6e:	4b44      	ldr	r3, [pc, #272]	; (8005d80 <switch_Antenna+0x12c>)
 8005c70:	1dba      	adds	r2, r7, #6
 8005c72:	2134      	movs	r1, #52	; 0x34
 8005c74:	7812      	ldrb	r2, [r2, #0]
 8005c76:	545a      	strb	r2, [r3, r1]
 8005c78:	1dfa      	adds	r2, r7, #7
 8005c7a:	1dbb      	adds	r3, r7, #6
 8005c7c:	7812      	ldrb	r2, [r2, #0]
 8005c7e:	781b      	ldrb	r3, [r3, #0]
 8005c80:	429a      	cmp	r2, r3
 8005c82:	d103      	bne.n	8005c8c <switch_Antenna+0x38>
 8005c84:	1dfb      	adds	r3, r7, #7
 8005c86:	781b      	ldrb	r3, [r3, #0]
 8005c88:	2b00      	cmp	r3, #0
 8005c8a:	d175      	bne.n	8005d78 <switch_Antenna+0x124>
 8005c8c:	2327      	movs	r3, #39	; 0x27
 8005c8e:	18fb      	adds	r3, r7, r3
 8005c90:	2200      	movs	r2, #0
 8005c92:	701a      	strb	r2, [r3, #0]
 8005c94:	e06a      	b.n	8005d6c <switch_Antenna+0x118>
 8005c96:	2527      	movs	r5, #39	; 0x27
 8005c98:	197b      	adds	r3, r7, r5
 8005c9a:	781a      	ldrb	r2, [r3, #0]
 8005c9c:	261c      	movs	r6, #28
 8005c9e:	19b8      	adds	r0, r7, r6
 8005ca0:	4937      	ldr	r1, [pc, #220]	; (8005d80 <switch_Antenna+0x12c>)
 8005ca2:	0013      	movs	r3, r2
 8005ca4:	00db      	lsls	r3, r3, #3
 8005ca6:	1a9b      	subs	r3, r3, r2
 8005ca8:	009b      	lsls	r3, r3, #2
 8005caa:	0002      	movs	r2, r0
 8005cac:	18cb      	adds	r3, r1, r3
 8005cae:	cb03      	ldmia	r3!, {r0, r1}
 8005cb0:	c203      	stmia	r2!, {r0, r1}
 8005cb2:	197b      	adds	r3, r7, r5
 8005cb4:	781a      	ldrb	r2, [r3, #0]
 8005cb6:	2314      	movs	r3, #20
 8005cb8:	18fc      	adds	r4, r7, r3
 8005cba:	4931      	ldr	r1, [pc, #196]	; (8005d80 <switch_Antenna+0x12c>)
 8005cbc:	2008      	movs	r0, #8
 8005cbe:	0013      	movs	r3, r2
 8005cc0:	00db      	lsls	r3, r3, #3
 8005cc2:	1a9b      	subs	r3, r3, r2
 8005cc4:	009b      	lsls	r3, r3, #2
 8005cc6:	18cb      	adds	r3, r1, r3
 8005cc8:	181a      	adds	r2, r3, r0
 8005cca:	0023      	movs	r3, r4
 8005ccc:	ca03      	ldmia	r2!, {r0, r1}
 8005cce:	c303      	stmia	r3!, {r0, r1}
 8005cd0:	197b      	adds	r3, r7, r5
 8005cd2:	781a      	ldrb	r2, [r3, #0]
 8005cd4:	210c      	movs	r1, #12
 8005cd6:	187c      	adds	r4, r7, r1
 8005cd8:	4929      	ldr	r1, [pc, #164]	; (8005d80 <switch_Antenna+0x12c>)
 8005cda:	2010      	movs	r0, #16
 8005cdc:	0013      	movs	r3, r2
 8005cde:	00db      	lsls	r3, r3, #3
 8005ce0:	1a9b      	subs	r3, r3, r2
 8005ce2:	009b      	lsls	r3, r3, #2
 8005ce4:	18cb      	adds	r3, r1, r3
 8005ce6:	181a      	adds	r2, r3, r0
 8005ce8:	0023      	movs	r3, r4
 8005cea:	ca11      	ldmia	r2!, {r0, r4}
 8005cec:	c311      	stmia	r3!, {r0, r4}
 8005cee:	002c      	movs	r4, r5
 8005cf0:	193b      	adds	r3, r7, r4
 8005cf2:	781a      	ldrb	r2, [r3, #0]
 8005cf4:	4922      	ldr	r1, [pc, #136]	; (8005d80 <switch_Antenna+0x12c>)
 8005cf6:	0013      	movs	r3, r2
 8005cf8:	00db      	lsls	r3, r3, #3
 8005cfa:	1a9b      	subs	r3, r3, r2
 8005cfc:	009b      	lsls	r3, r3, #2
 8005cfe:	18cb      	adds	r3, r1, r3
 8005d00:	3318      	adds	r3, #24
 8005d02:	781a      	ldrb	r2, [r3, #0]
 8005d04:	2526      	movs	r5, #38	; 0x26
 8005d06:	197b      	adds	r3, r7, r5
 8005d08:	43d2      	mvns	r2, r2
 8005d0a:	701a      	strb	r2, [r3, #0]
 8005d0c:	19bb      	adds	r3, r7, r6
 8005d0e:	6818      	ldr	r0, [r3, #0]
 8005d10:	19bb      	adds	r3, r7, r6
 8005d12:	8899      	ldrh	r1, [r3, #4]
 8005d14:	197b      	adds	r3, r7, r5
 8005d16:	781b      	ldrb	r3, [r3, #0]
 8005d18:	2201      	movs	r2, #1
 8005d1a:	4013      	ands	r3, r2
 8005d1c:	b2db      	uxtb	r3, r3
 8005d1e:	001a      	movs	r2, r3
 8005d20:	f7fa ff1d 	bl	8000b5e <HAL_GPIO_WritePin>
 8005d24:	2314      	movs	r3, #20
 8005d26:	001a      	movs	r2, r3
 8005d28:	18fb      	adds	r3, r7, r3
 8005d2a:	6818      	ldr	r0, [r3, #0]
 8005d2c:	18bb      	adds	r3, r7, r2
 8005d2e:	8899      	ldrh	r1, [r3, #4]
 8005d30:	197b      	adds	r3, r7, r5
 8005d32:	781b      	ldrb	r3, [r3, #0]
 8005d34:	085b      	lsrs	r3, r3, #1
 8005d36:	b2db      	uxtb	r3, r3
 8005d38:	2201      	movs	r2, #1
 8005d3a:	4013      	ands	r3, r2
 8005d3c:	b2db      	uxtb	r3, r3
 8005d3e:	001a      	movs	r2, r3
 8005d40:	f7fa ff0d 	bl	8000b5e <HAL_GPIO_WritePin>
 8005d44:	220c      	movs	r2, #12
 8005d46:	18bb      	adds	r3, r7, r2
 8005d48:	6818      	ldr	r0, [r3, #0]
 8005d4a:	18bb      	adds	r3, r7, r2
 8005d4c:	8899      	ldrh	r1, [r3, #4]
 8005d4e:	197b      	adds	r3, r7, r5
 8005d50:	781b      	ldrb	r3, [r3, #0]
 8005d52:	089b      	lsrs	r3, r3, #2
 8005d54:	b2db      	uxtb	r3, r3
 8005d56:	2201      	movs	r2, #1
 8005d58:	4013      	ands	r3, r2
 8005d5a:	b2db      	uxtb	r3, r3
 8005d5c:	001a      	movs	r2, r3
 8005d5e:	f7fa fefe 	bl	8000b5e <HAL_GPIO_WritePin>
 8005d62:	193b      	adds	r3, r7, r4
 8005d64:	193a      	adds	r2, r7, r4
 8005d66:	7812      	ldrb	r2, [r2, #0]
 8005d68:	3201      	adds	r2, #1
 8005d6a:	701a      	strb	r2, [r3, #0]
 8005d6c:	2327      	movs	r3, #39	; 0x27
 8005d6e:	18fb      	adds	r3, r7, r3
 8005d70:	781b      	ldrb	r3, [r3, #0]
 8005d72:	2b01      	cmp	r3, #1
 8005d74:	d98f      	bls.n	8005c96 <switch_Antenna+0x42>
 8005d76:	e000      	b.n	8005d7a <switch_Antenna+0x126>
 8005d78:	46c0      	nop			; (mov r8, r8)
 8005d7a:	46bd      	mov	sp, r7
 8005d7c:	b00b      	add	sp, #44	; 0x2c
 8005d7e:	bdf0      	pop	{r4, r5, r6, r7, pc}
 8005d80:	2000185c 	.word	0x2000185c

08005d84 <get_Antenna>:
 8005d84:	b580      	push	{r7, lr}
 8005d86:	b082      	sub	sp, #8
 8005d88:	af00      	add	r7, sp, #0
 8005d8a:	1dfb      	adds	r3, r7, #7
 8005d8c:	2200      	movs	r2, #0
 8005d8e:	701a      	strb	r2, [r3, #0]
 8005d90:	2380      	movs	r3, #128	; 0x80
 8005d92:	009a      	lsls	r2, r3, #2
 8005d94:	2390      	movs	r3, #144	; 0x90
 8005d96:	05db      	lsls	r3, r3, #23
 8005d98:	0011      	movs	r1, r2
 8005d9a:	0018      	movs	r0, r3
 8005d9c:	f7fa fec2 	bl	8000b24 <HAL_GPIO_ReadPin>
 8005da0:	0003      	movs	r3, r0
 8005da2:	425a      	negs	r2, r3
 8005da4:	4153      	adcs	r3, r2
 8005da6:	b2db      	uxtb	r3, r3
 8005da8:	b25a      	sxtb	r2, r3
 8005daa:	1dfb      	adds	r3, r7, #7
 8005dac:	781b      	ldrb	r3, [r3, #0]
 8005dae:	b25b      	sxtb	r3, r3
 8005db0:	4313      	orrs	r3, r2
 8005db2:	b25a      	sxtb	r2, r3
 8005db4:	1dfb      	adds	r3, r7, #7
 8005db6:	701a      	strb	r2, [r3, #0]
 8005db8:	2380      	movs	r3, #128	; 0x80
 8005dba:	005a      	lsls	r2, r3, #1
 8005dbc:	2390      	movs	r3, #144	; 0x90
 8005dbe:	05db      	lsls	r3, r3, #23
 8005dc0:	0011      	movs	r1, r2
 8005dc2:	0018      	movs	r0, r3
 8005dc4:	f7fa feae 	bl	8000b24 <HAL_GPIO_ReadPin>
 8005dc8:	1e03      	subs	r3, r0, #0
 8005dca:	d101      	bne.n	8005dd0 <get_Antenna+0x4c>
 8005dcc:	2302      	movs	r3, #2
 8005dce:	e000      	b.n	8005dd2 <get_Antenna+0x4e>
 8005dd0:	2300      	movs	r3, #0
 8005dd2:	b25a      	sxtb	r2, r3
 8005dd4:	1dfb      	adds	r3, r7, #7
 8005dd6:	781b      	ldrb	r3, [r3, #0]
 8005dd8:	b25b      	sxtb	r3, r3
 8005dda:	4313      	orrs	r3, r2
 8005ddc:	b25a      	sxtb	r2, r3
 8005dde:	1dfb      	adds	r3, r7, #7
 8005de0:	701a      	strb	r2, [r3, #0]
 8005de2:	2380      	movs	r3, #128	; 0x80
 8005de4:	021b      	lsls	r3, r3, #8
 8005de6:	4a2a      	ldr	r2, [pc, #168]	; (8005e90 <get_Antenna+0x10c>)
 8005de8:	0019      	movs	r1, r3
 8005dea:	0010      	movs	r0, r2
 8005dec:	f7fa fe9a 	bl	8000b24 <HAL_GPIO_ReadPin>
 8005df0:	1e03      	subs	r3, r0, #0
 8005df2:	d101      	bne.n	8005df8 <get_Antenna+0x74>
 8005df4:	2304      	movs	r3, #4
 8005df6:	e000      	b.n	8005dfa <get_Antenna+0x76>
 8005df8:	2300      	movs	r3, #0
 8005dfa:	b25a      	sxtb	r2, r3
 8005dfc:	1dfb      	adds	r3, r7, #7
 8005dfe:	781b      	ldrb	r3, [r3, #0]
 8005e00:	b25b      	sxtb	r3, r3
 8005e02:	4313      	orrs	r3, r2
 8005e04:	b25a      	sxtb	r2, r3
 8005e06:	1dfb      	adds	r3, r7, #7
 8005e08:	701a      	strb	r2, [r3, #0]
 8005e0a:	2380      	movs	r3, #128	; 0x80
 8005e0c:	01db      	lsls	r3, r3, #7
 8005e0e:	4a20      	ldr	r2, [pc, #128]	; (8005e90 <get_Antenna+0x10c>)
 8005e10:	0019      	movs	r1, r3
 8005e12:	0010      	movs	r0, r2
 8005e14:	f7fa fe86 	bl	8000b24 <HAL_GPIO_ReadPin>
 8005e18:	1e03      	subs	r3, r0, #0
 8005e1a:	d101      	bne.n	8005e20 <get_Antenna+0x9c>
 8005e1c:	2310      	movs	r3, #16
 8005e1e:	e000      	b.n	8005e22 <get_Antenna+0x9e>
 8005e20:	2300      	movs	r3, #0
 8005e22:	b25a      	sxtb	r2, r3
 8005e24:	1dfb      	adds	r3, r7, #7
 8005e26:	781b      	ldrb	r3, [r3, #0]
 8005e28:	b25b      	sxtb	r3, r3
 8005e2a:	4313      	orrs	r3, r2
 8005e2c:	b25a      	sxtb	r2, r3
 8005e2e:	1dfb      	adds	r3, r7, #7
 8005e30:	701a      	strb	r2, [r3, #0]
 8005e32:	2380      	movs	r3, #128	; 0x80
 8005e34:	019b      	lsls	r3, r3, #6
 8005e36:	4a16      	ldr	r2, [pc, #88]	; (8005e90 <get_Antenna+0x10c>)
 8005e38:	0019      	movs	r1, r3
 8005e3a:	0010      	movs	r0, r2
 8005e3c:	f7fa fe72 	bl	8000b24 <HAL_GPIO_ReadPin>
 8005e40:	1e03      	subs	r3, r0, #0
 8005e42:	d101      	bne.n	8005e48 <get_Antenna+0xc4>
 8005e44:	2320      	movs	r3, #32
 8005e46:	e000      	b.n	8005e4a <get_Antenna+0xc6>
 8005e48:	2300      	movs	r3, #0
 8005e4a:	b25a      	sxtb	r2, r3
 8005e4c:	1dfb      	adds	r3, r7, #7
 8005e4e:	781b      	ldrb	r3, [r3, #0]
 8005e50:	b25b      	sxtb	r3, r3
 8005e52:	4313      	orrs	r3, r2
 8005e54:	b25a      	sxtb	r2, r3
 8005e56:	1dfb      	adds	r3, r7, #7
 8005e58:	701a      	strb	r2, [r3, #0]
 8005e5a:	2380      	movs	r3, #128	; 0x80
 8005e5c:	015b      	lsls	r3, r3, #5
 8005e5e:	4a0c      	ldr	r2, [pc, #48]	; (8005e90 <get_Antenna+0x10c>)
 8005e60:	0019      	movs	r1, r3
 8005e62:	0010      	movs	r0, r2
 8005e64:	f7fa fe5e 	bl	8000b24 <HAL_GPIO_ReadPin>
 8005e68:	1e03      	subs	r3, r0, #0
 8005e6a:	d101      	bne.n	8005e70 <get_Antenna+0xec>
 8005e6c:	2340      	movs	r3, #64	; 0x40
 8005e6e:	e000      	b.n	8005e72 <get_Antenna+0xee>
 8005e70:	2300      	movs	r3, #0
 8005e72:	b25a      	sxtb	r2, r3
 8005e74:	1dfb      	adds	r3, r7, #7
 8005e76:	781b      	ldrb	r3, [r3, #0]
 8005e78:	b25b      	sxtb	r3, r3
 8005e7a:	4313      	orrs	r3, r2
 8005e7c:	b25a      	sxtb	r2, r3
 8005e7e:	1dfb      	adds	r3, r7, #7
 8005e80:	701a      	strb	r2, [r3, #0]
 8005e82:	1dfb      	adds	r3, r7, #7
 8005e84:	781b      	ldrb	r3, [r3, #0]
 8005e86:	0018      	movs	r0, r3
 8005e88:	46bd      	mov	sp, r7
 8005e8a:	b002      	add	sp, #8
 8005e8c:	bd80      	pop	{r7, pc}
 8005e8e:	46c0      	nop			; (mov r8, r8)
 8005e90:	48000400 	.word	0x48000400

08005e94 <Error_Handler>:
 8005e94:	b580      	push	{r7, lr}
 8005e96:	af00      	add	r7, sp, #0
 8005e98:	46c0      	nop			; (mov r8, r8)
 8005e9a:	46bd      	mov	sp, r7
 8005e9c:	bd80      	pop	{r7, pc}
	...

08005ea0 <HAL_MspInit>:
 8005ea0:	b580      	push	{r7, lr}
 8005ea2:	b082      	sub	sp, #8
 8005ea4:	af00      	add	r7, sp, #0
 8005ea6:	4b0f      	ldr	r3, [pc, #60]	; (8005ee4 <HAL_MspInit+0x44>)
 8005ea8:	699a      	ldr	r2, [r3, #24]
 8005eaa:	4b0e      	ldr	r3, [pc, #56]	; (8005ee4 <HAL_MspInit+0x44>)
 8005eac:	2101      	movs	r1, #1
 8005eae:	430a      	orrs	r2, r1
 8005eb0:	619a      	str	r2, [r3, #24]
 8005eb2:	4b0c      	ldr	r3, [pc, #48]	; (8005ee4 <HAL_MspInit+0x44>)
 8005eb4:	699b      	ldr	r3, [r3, #24]
 8005eb6:	2201      	movs	r2, #1
 8005eb8:	4013      	ands	r3, r2
 8005eba:	607b      	str	r3, [r7, #4]
 8005ebc:	687b      	ldr	r3, [r7, #4]
 8005ebe:	4b09      	ldr	r3, [pc, #36]	; (8005ee4 <HAL_MspInit+0x44>)
 8005ec0:	69da      	ldr	r2, [r3, #28]
 8005ec2:	4b08      	ldr	r3, [pc, #32]	; (8005ee4 <HAL_MspInit+0x44>)
 8005ec4:	2180      	movs	r1, #128	; 0x80
 8005ec6:	0549      	lsls	r1, r1, #21
 8005ec8:	430a      	orrs	r2, r1
 8005eca:	61da      	str	r2, [r3, #28]
 8005ecc:	4b05      	ldr	r3, [pc, #20]	; (8005ee4 <HAL_MspInit+0x44>)
 8005ece:	69da      	ldr	r2, [r3, #28]
 8005ed0:	2380      	movs	r3, #128	; 0x80
 8005ed2:	055b      	lsls	r3, r3, #21
 8005ed4:	4013      	ands	r3, r2
 8005ed6:	603b      	str	r3, [r7, #0]
 8005ed8:	683b      	ldr	r3, [r7, #0]
 8005eda:	46c0      	nop			; (mov r8, r8)
 8005edc:	46bd      	mov	sp, r7
 8005ede:	b002      	add	sp, #8
 8005ee0:	bd80      	pop	{r7, pc}
 8005ee2:	46c0      	nop			; (mov r8, r8)
 8005ee4:	40021000 	.word	0x40021000

08005ee8 <HAL_SPI_MspInit>:
 8005ee8:	b580      	push	{r7, lr}
 8005eea:	b08a      	sub	sp, #40	; 0x28
 8005eec:	af00      	add	r7, sp, #0
 8005eee:	6078      	str	r0, [r7, #4]
 8005ef0:	2314      	movs	r3, #20
 8005ef2:	18fb      	adds	r3, r7, r3
 8005ef4:	0018      	movs	r0, r3
 8005ef6:	2314      	movs	r3, #20
 8005ef8:	001a      	movs	r2, r3
 8005efa:	2100      	movs	r1, #0
 8005efc:	f000 f979 	bl	80061f2 <memset>
 8005f00:	687b      	ldr	r3, [r7, #4]
 8005f02:	681b      	ldr	r3, [r3, #0]
 8005f04:	4a1c      	ldr	r2, [pc, #112]	; (8005f78 <HAL_SPI_MspInit+0x90>)
 8005f06:	4293      	cmp	r3, r2
 8005f08:	d132      	bne.n	8005f70 <HAL_SPI_MspInit+0x88>
 8005f0a:	4b1c      	ldr	r3, [pc, #112]	; (8005f7c <HAL_SPI_MspInit+0x94>)
 8005f0c:	699a      	ldr	r2, [r3, #24]
 8005f0e:	4b1b      	ldr	r3, [pc, #108]	; (8005f7c <HAL_SPI_MspInit+0x94>)
 8005f10:	2180      	movs	r1, #128	; 0x80
 8005f12:	0149      	lsls	r1, r1, #5
 8005f14:	430a      	orrs	r2, r1
 8005f16:	619a      	str	r2, [r3, #24]
 8005f18:	4b18      	ldr	r3, [pc, #96]	; (8005f7c <HAL_SPI_MspInit+0x94>)
 8005f1a:	699a      	ldr	r2, [r3, #24]
 8005f1c:	2380      	movs	r3, #128	; 0x80
 8005f1e:	015b      	lsls	r3, r3, #5
 8005f20:	4013      	ands	r3, r2
 8005f22:	613b      	str	r3, [r7, #16]
 8005f24:	693b      	ldr	r3, [r7, #16]
 8005f26:	4b15      	ldr	r3, [pc, #84]	; (8005f7c <HAL_SPI_MspInit+0x94>)
 8005f28:	695a      	ldr	r2, [r3, #20]
 8005f2a:	4b14      	ldr	r3, [pc, #80]	; (8005f7c <HAL_SPI_MspInit+0x94>)
 8005f2c:	2180      	movs	r1, #128	; 0x80
 8005f2e:	0289      	lsls	r1, r1, #10
 8005f30:	430a      	orrs	r2, r1
 8005f32:	615a      	str	r2, [r3, #20]
 8005f34:	4b11      	ldr	r3, [pc, #68]	; (8005f7c <HAL_SPI_MspInit+0x94>)
 8005f36:	695a      	ldr	r2, [r3, #20]
 8005f38:	2380      	movs	r3, #128	; 0x80
 8005f3a:	029b      	lsls	r3, r3, #10
 8005f3c:	4013      	ands	r3, r2
 8005f3e:	60fb      	str	r3, [r7, #12]
 8005f40:	68fb      	ldr	r3, [r7, #12]
 8005f42:	2114      	movs	r1, #20
 8005f44:	187b      	adds	r3, r7, r1
 8005f46:	22e0      	movs	r2, #224	; 0xe0
 8005f48:	601a      	str	r2, [r3, #0]
 8005f4a:	187b      	adds	r3, r7, r1
 8005f4c:	2202      	movs	r2, #2
 8005f4e:	605a      	str	r2, [r3, #4]
 8005f50:	187b      	adds	r3, r7, r1
 8005f52:	2201      	movs	r2, #1
 8005f54:	609a      	str	r2, [r3, #8]
 8005f56:	187b      	adds	r3, r7, r1
 8005f58:	2203      	movs	r2, #3
 8005f5a:	60da      	str	r2, [r3, #12]
 8005f5c:	187b      	adds	r3, r7, r1
 8005f5e:	2200      	movs	r2, #0
 8005f60:	611a      	str	r2, [r3, #16]
 8005f62:	187a      	adds	r2, r7, r1
 8005f64:	2390      	movs	r3, #144	; 0x90
 8005f66:	05db      	lsls	r3, r3, #23
 8005f68:	0011      	movs	r1, r2
 8005f6a:	0018      	movs	r0, r3
 8005f6c:	f7fa fc66 	bl	800083c <HAL_GPIO_Init>
 8005f70:	46c0      	nop			; (mov r8, r8)
 8005f72:	46bd      	mov	sp, r7
 8005f74:	b00a      	add	sp, #40	; 0x28
 8005f76:	bd80      	pop	{r7, pc}
 8005f78:	40013000 	.word	0x40013000
 8005f7c:	40021000 	.word	0x40021000

08005f80 <HAL_UART_MspInit>:
 8005f80:	b580      	push	{r7, lr}
 8005f82:	b08a      	sub	sp, #40	; 0x28
 8005f84:	af00      	add	r7, sp, #0
 8005f86:	6078      	str	r0, [r7, #4]
 8005f88:	2314      	movs	r3, #20
 8005f8a:	18fb      	adds	r3, r7, r3
 8005f8c:	0018      	movs	r0, r3
 8005f8e:	2314      	movs	r3, #20
 8005f90:	001a      	movs	r2, r3
 8005f92:	2100      	movs	r1, #0
 8005f94:	f000 f92d 	bl	80061f2 <memset>
 8005f98:	687b      	ldr	r3, [r7, #4]
 8005f9a:	681b      	ldr	r3, [r3, #0]
 8005f9c:	4a1c      	ldr	r2, [pc, #112]	; (8006010 <HAL_UART_MspInit+0x90>)
 8005f9e:	4293      	cmp	r3, r2
 8005fa0:	d132      	bne.n	8006008 <HAL_UART_MspInit+0x88>
 8005fa2:	4b1c      	ldr	r3, [pc, #112]	; (8006014 <HAL_UART_MspInit+0x94>)
 8005fa4:	69da      	ldr	r2, [r3, #28]
 8005fa6:	4b1b      	ldr	r3, [pc, #108]	; (8006014 <HAL_UART_MspInit+0x94>)
 8005fa8:	2180      	movs	r1, #128	; 0x80
 8005faa:	0289      	lsls	r1, r1, #10
 8005fac:	430a      	orrs	r2, r1
 8005fae:	61da      	str	r2, [r3, #28]
 8005fb0:	4b18      	ldr	r3, [pc, #96]	; (8006014 <HAL_UART_MspInit+0x94>)
 8005fb2:	69da      	ldr	r2, [r3, #28]
 8005fb4:	2380      	movs	r3, #128	; 0x80
 8005fb6:	029b      	lsls	r3, r3, #10
 8005fb8:	4013      	ands	r3, r2
 8005fba:	613b      	str	r3, [r7, #16]
 8005fbc:	693b      	ldr	r3, [r7, #16]
 8005fbe:	4b15      	ldr	r3, [pc, #84]	; (8006014 <HAL_UART_MspInit+0x94>)
 8005fc0:	695a      	ldr	r2, [r3, #20]
 8005fc2:	4b14      	ldr	r3, [pc, #80]	; (8006014 <HAL_UART_MspInit+0x94>)
 8005fc4:	2180      	movs	r1, #128	; 0x80
 8005fc6:	0289      	lsls	r1, r1, #10
 8005fc8:	430a      	orrs	r2, r1
 8005fca:	615a      	str	r2, [r3, #20]
 8005fcc:	4b11      	ldr	r3, [pc, #68]	; (8006014 <HAL_UART_MspInit+0x94>)
 8005fce:	695a      	ldr	r2, [r3, #20]
 8005fd0:	2380      	movs	r3, #128	; 0x80
 8005fd2:	029b      	lsls	r3, r3, #10
 8005fd4:	4013      	ands	r3, r2
 8005fd6:	60fb      	str	r3, [r7, #12]
 8005fd8:	68fb      	ldr	r3, [r7, #12]
 8005fda:	2114      	movs	r1, #20
 8005fdc:	187b      	adds	r3, r7, r1
 8005fde:	220c      	movs	r2, #12
 8005fe0:	601a      	str	r2, [r3, #0]
 8005fe2:	187b      	adds	r3, r7, r1
 8005fe4:	2202      	movs	r2, #2
 8005fe6:	605a      	str	r2, [r3, #4]
 8005fe8:	187b      	adds	r3, r7, r1
 8005fea:	2201      	movs	r2, #1
 8005fec:	609a      	str	r2, [r3, #8]
 8005fee:	187b      	adds	r3, r7, r1
 8005ff0:	2203      	movs	r2, #3
 8005ff2:	60da      	str	r2, [r3, #12]
 8005ff4:	187b      	adds	r3, r7, r1
 8005ff6:	2201      	movs	r2, #1
 8005ff8:	611a      	str	r2, [r3, #16]
 8005ffa:	187a      	adds	r2, r7, r1
 8005ffc:	2390      	movs	r3, #144	; 0x90
 8005ffe:	05db      	lsls	r3, r3, #23
 8006000:	0011      	movs	r1, r2
 8006002:	0018      	movs	r0, r3
 8006004:	f7fa fc1a 	bl	800083c <HAL_GPIO_Init>
 8006008:	46c0      	nop			; (mov r8, r8)
 800600a:	46bd      	mov	sp, r7
 800600c:	b00a      	add	sp, #40	; 0x28
 800600e:	bd80      	pop	{r7, pc}
 8006010:	40004400 	.word	0x40004400
 8006014:	40021000 	.word	0x40021000

08006018 <NMI_Handler>:
 8006018:	b580      	push	{r7, lr}
 800601a:	af00      	add	r7, sp, #0
 800601c:	46c0      	nop			; (mov r8, r8)
 800601e:	46bd      	mov	sp, r7
 8006020:	bd80      	pop	{r7, pc}

08006022 <HardFault_Handler>:
 8006022:	b580      	push	{r7, lr}
 8006024:	af00      	add	r7, sp, #0
 8006026:	e7fe      	b.n	8006026 <HardFault_Handler+0x4>

08006028 <SVC_Handler>:
 8006028:	b580      	push	{r7, lr}
 800602a:	af00      	add	r7, sp, #0
 800602c:	46c0      	nop			; (mov r8, r8)
 800602e:	46bd      	mov	sp, r7
 8006030:	bd80      	pop	{r7, pc}

08006032 <PendSV_Handler>:
 8006032:	b580      	push	{r7, lr}
 8006034:	af00      	add	r7, sp, #0
 8006036:	46c0      	nop			; (mov r8, r8)
 8006038:	46bd      	mov	sp, r7
 800603a:	bd80      	pop	{r7, pc}

0800603c <SysTick_Handler>:
 800603c:	b580      	push	{r7, lr}
 800603e:	af00      	add	r7, sp, #0
 8006040:	f7fa f930 	bl	80002a4 <HAL_IncTick>
 8006044:	4b03      	ldr	r3, [pc, #12]	; (8006054 <SysTick_Handler+0x18>)
 8006046:	681b      	ldr	r3, [r3, #0]
 8006048:	0018      	movs	r0, r3
 800604a:	f7ff f83d 	bl	80050c8 <handle_serial485>
 800604e:	46c0      	nop			; (mov r8, r8)
 8006050:	46bd      	mov	sp, r7
 8006052:	bd80      	pop	{r7, pc}
 8006054:	2000084c 	.word	0x2000084c

08006058 <_sbrk>:
 8006058:	b580      	push	{r7, lr}
 800605a:	b084      	sub	sp, #16
 800605c:	af00      	add	r7, sp, #0
 800605e:	6078      	str	r0, [r7, #4]
 8006060:	4b11      	ldr	r3, [pc, #68]	; (80060a8 <_sbrk+0x50>)
 8006062:	681b      	ldr	r3, [r3, #0]
 8006064:	2b00      	cmp	r3, #0
 8006066:	d102      	bne.n	800606e <_sbrk+0x16>
 8006068:	4b0f      	ldr	r3, [pc, #60]	; (80060a8 <_sbrk+0x50>)
 800606a:	4a10      	ldr	r2, [pc, #64]	; (80060ac <_sbrk+0x54>)
 800606c:	601a      	str	r2, [r3, #0]
 800606e:	4b0e      	ldr	r3, [pc, #56]	; (80060a8 <_sbrk+0x50>)
 8006070:	681b      	ldr	r3, [r3, #0]
 8006072:	60fb      	str	r3, [r7, #12]
 8006074:	4b0c      	ldr	r3, [pc, #48]	; (80060a8 <_sbrk+0x50>)
 8006076:	681a      	ldr	r2, [r3, #0]
 8006078:	687b      	ldr	r3, [r7, #4]
 800607a:	18d3      	adds	r3, r2, r3
 800607c:	466a      	mov	r2, sp
 800607e:	4293      	cmp	r3, r2
 8006080:	d907      	bls.n	8006092 <_sbrk+0x3a>
 8006082:	f000 f883 	bl	800618c <__errno>
 8006086:	0003      	movs	r3, r0
 8006088:	220c      	movs	r2, #12
 800608a:	601a      	str	r2, [r3, #0]
 800608c:	2301      	movs	r3, #1
 800608e:	425b      	negs	r3, r3
 8006090:	e006      	b.n	80060a0 <_sbrk+0x48>
 8006092:	4b05      	ldr	r3, [pc, #20]	; (80060a8 <_sbrk+0x50>)
 8006094:	681a      	ldr	r2, [r3, #0]
 8006096:	687b      	ldr	r3, [r7, #4]
 8006098:	18d2      	adds	r2, r2, r3
 800609a:	4b03      	ldr	r3, [pc, #12]	; (80060a8 <_sbrk+0x50>)
 800609c:	601a      	str	r2, [r3, #0]
 800609e:	68fb      	ldr	r3, [r7, #12]
 80060a0:	0018      	movs	r0, r3
 80060a2:	46bd      	mov	sp, r7
 80060a4:	b004      	add	sp, #16
 80060a6:	bd80      	pop	{r7, pc}
 80060a8:	20001534 	.word	0x20001534
 80060ac:	20001970 	.word	0x20001970

080060b0 <SystemInit>:
 80060b0:	b580      	push	{r7, lr}
 80060b2:	af00      	add	r7, sp, #0
 80060b4:	4b1a      	ldr	r3, [pc, #104]	; (8006120 <SystemInit+0x70>)
 80060b6:	681a      	ldr	r2, [r3, #0]
 80060b8:	4b19      	ldr	r3, [pc, #100]	; (8006120 <SystemInit+0x70>)
 80060ba:	2101      	movs	r1, #1
 80060bc:	430a      	orrs	r2, r1
 80060be:	601a      	str	r2, [r3, #0]
 80060c0:	4b17      	ldr	r3, [pc, #92]	; (8006120 <SystemInit+0x70>)
 80060c2:	685a      	ldr	r2, [r3, #4]
 80060c4:	4b16      	ldr	r3, [pc, #88]	; (8006120 <SystemInit+0x70>)
 80060c6:	4917      	ldr	r1, [pc, #92]	; (8006124 <SystemInit+0x74>)
 80060c8:	400a      	ands	r2, r1
 80060ca:	605a      	str	r2, [r3, #4]
 80060cc:	4b14      	ldr	r3, [pc, #80]	; (8006120 <SystemInit+0x70>)
 80060ce:	681a      	ldr	r2, [r3, #0]
 80060d0:	4b13      	ldr	r3, [pc, #76]	; (8006120 <SystemInit+0x70>)
 80060d2:	4915      	ldr	r1, [pc, #84]	; (8006128 <SystemInit+0x78>)
 80060d4:	400a      	ands	r2, r1
 80060d6:	601a      	str	r2, [r3, #0]
 80060d8:	4b11      	ldr	r3, [pc, #68]	; (8006120 <SystemInit+0x70>)
 80060da:	681a      	ldr	r2, [r3, #0]
 80060dc:	4b10      	ldr	r3, [pc, #64]	; (8006120 <SystemInit+0x70>)
 80060de:	4913      	ldr	r1, [pc, #76]	; (800612c <SystemInit+0x7c>)
 80060e0:	400a      	ands	r2, r1
 80060e2:	601a      	str	r2, [r3, #0]
 80060e4:	4b0e      	ldr	r3, [pc, #56]	; (8006120 <SystemInit+0x70>)
 80060e6:	685a      	ldr	r2, [r3, #4]
 80060e8:	4b0d      	ldr	r3, [pc, #52]	; (8006120 <SystemInit+0x70>)
 80060ea:	4911      	ldr	r1, [pc, #68]	; (8006130 <SystemInit+0x80>)
 80060ec:	400a      	ands	r2, r1
 80060ee:	605a      	str	r2, [r3, #4]
 80060f0:	4b0b      	ldr	r3, [pc, #44]	; (8006120 <SystemInit+0x70>)
 80060f2:	6ada      	ldr	r2, [r3, #44]	; 0x2c
 80060f4:	4b0a      	ldr	r3, [pc, #40]	; (8006120 <SystemInit+0x70>)
 80060f6:	210f      	movs	r1, #15
 80060f8:	438a      	bics	r2, r1
 80060fa:	62da      	str	r2, [r3, #44]	; 0x2c
 80060fc:	4b08      	ldr	r3, [pc, #32]	; (8006120 <SystemInit+0x70>)
 80060fe:	6b1a      	ldr	r2, [r3, #48]	; 0x30
 8006100:	4b07      	ldr	r3, [pc, #28]	; (8006120 <SystemInit+0x70>)
 8006102:	490c      	ldr	r1, [pc, #48]	; (8006134 <SystemInit+0x84>)
 8006104:	400a      	ands	r2, r1
 8006106:	631a      	str	r2, [r3, #48]	; 0x30
 8006108:	4b05      	ldr	r3, [pc, #20]	; (8006120 <SystemInit+0x70>)
 800610a:	6b5a      	ldr	r2, [r3, #52]	; 0x34
 800610c:	4b04      	ldr	r3, [pc, #16]	; (8006120 <SystemInit+0x70>)
 800610e:	2101      	movs	r1, #1
 8006110:	438a      	bics	r2, r1
 8006112:	635a      	str	r2, [r3, #52]	; 0x34
 8006114:	4b02      	ldr	r3, [pc, #8]	; (8006120 <SystemInit+0x70>)
 8006116:	2200      	movs	r2, #0
 8006118:	609a      	str	r2, [r3, #8]
 800611a:	46c0      	nop			; (mov r8, r8)
 800611c:	46bd      	mov	sp, r7
 800611e:	bd80      	pop	{r7, pc}
 8006120:	40021000 	.word	0x40021000
 8006124:	08ffb80c 	.word	0x08ffb80c
 8006128:	fef6ffff 	.word	0xfef6ffff
 800612c:	fffbffff 	.word	0xfffbffff
 8006130:	ffc0ffff 	.word	0xffc0ffff
 8006134:	fffffeec 	.word	0xfffffeec

08006138 <Reset_Handler>:
 8006138:	480d      	ldr	r0, [pc, #52]	; (8006170 <LoopForever+0x2>)
 800613a:	4685      	mov	sp, r0
 800613c:	480d      	ldr	r0, [pc, #52]	; (8006174 <LoopForever+0x6>)
 800613e:	490e      	ldr	r1, [pc, #56]	; (8006178 <LoopForever+0xa>)
 8006140:	4a0e      	ldr	r2, [pc, #56]	; (800617c <LoopForever+0xe>)
 8006142:	2300      	movs	r3, #0
 8006144:	e002      	b.n	800614c <LoopCopyDataInit>

08006146 <CopyDataInit>:
 8006146:	58d4      	ldr	r4, [r2, r3]
 8006148:	50c4      	str	r4, [r0, r3]
 800614a:	3304      	adds	r3, #4

0800614c <LoopCopyDataInit>:
 800614c:	18c4      	adds	r4, r0, r3
 800614e:	428c      	cmp	r4, r1
 8006150:	d3f9      	bcc.n	8006146 <CopyDataInit>
 8006152:	4a0b      	ldr	r2, [pc, #44]	; (8006180 <LoopForever+0x12>)
 8006154:	4c0b      	ldr	r4, [pc, #44]	; (8006184 <LoopForever+0x16>)
 8006156:	2300      	movs	r3, #0
 8006158:	e001      	b.n	800615e <LoopFillZerobss>

0800615a <FillZerobss>:
 800615a:	6013      	str	r3, [r2, #0]
 800615c:	3204      	adds	r2, #4

0800615e <LoopFillZerobss>:
 800615e:	42a2      	cmp	r2, r4
 8006160:	d3fb      	bcc.n	800615a <FillZerobss>
 8006162:	f7ff ffa5 	bl	80060b0 <SystemInit>
 8006166:	f000 f817 	bl	8006198 <__libc_init_array>
 800616a:	f7ff f91b 	bl	80053a4 <main>

0800616e <LoopForever>:
 800616e:	e7fe      	b.n	800616e <LoopForever>
 8006170:	20001fff 	.word	0x20001fff
 8006174:	20000000 	.word	0x20000000
 8006178:	200008d8 	.word	0x200008d8
 800617c:	0800685c 	.word	0x0800685c
 8006180:	200008d8 	.word	0x200008d8
 8006184:	2000196c 	.word	0x2000196c

08006188 <ADC1_IRQHandler>:
 8006188:	e7fe      	b.n	8006188 <ADC1_IRQHandler>
	...

0800618c <__errno>:
 800618c:	4b01      	ldr	r3, [pc, #4]	; (8006194 <__errno+0x8>)
 800618e:	6818      	ldr	r0, [r3, #0]
 8006190:	4770      	bx	lr
 8006192:	46c0      	nop			; (mov r8, r8)
 8006194:	20000874 	.word	0x20000874

08006198 <__libc_init_array>:
 8006198:	b570      	push	{r4, r5, r6, lr}
 800619a:	2600      	movs	r6, #0
 800619c:	4d0c      	ldr	r5, [pc, #48]	; (80061d0 <__libc_init_array+0x38>)
 800619e:	4c0d      	ldr	r4, [pc, #52]	; (80061d4 <__libc_init_array+0x3c>)
 80061a0:	1b64      	subs	r4, r4, r5
 80061a2:	10a4      	asrs	r4, r4, #2
 80061a4:	42a6      	cmp	r6, r4
 80061a6:	d109      	bne.n	80061bc <__libc_init_array+0x24>
 80061a8:	2600      	movs	r6, #0
 80061aa:	f000 f9d7 	bl	800655c <_init>
 80061ae:	4d0a      	ldr	r5, [pc, #40]	; (80061d8 <__libc_init_array+0x40>)
 80061b0:	4c0a      	ldr	r4, [pc, #40]	; (80061dc <__libc_init_array+0x44>)
 80061b2:	1b64      	subs	r4, r4, r5
 80061b4:	10a4      	asrs	r4, r4, #2
 80061b6:	42a6      	cmp	r6, r4
 80061b8:	d105      	bne.n	80061c6 <__libc_init_array+0x2e>
 80061ba:	bd70      	pop	{r4, r5, r6, pc}
 80061bc:	00b3      	lsls	r3, r6, #2
 80061be:	58eb      	ldr	r3, [r5, r3]
 80061c0:	4798      	blx	r3
 80061c2:	3601      	adds	r6, #1
 80061c4:	e7ee      	b.n	80061a4 <__libc_init_array+0xc>
 80061c6:	00b3      	lsls	r3, r6, #2
 80061c8:	58eb      	ldr	r3, [r5, r3]
 80061ca:	4798      	blx	r3
 80061cc:	3601      	adds	r6, #1
 80061ce:	e7f2      	b.n	80061b6 <__libc_init_array+0x1e>
 80061d0:	08006854 	.word	0x08006854
 80061d4:	08006854 	.word	0x08006854
 80061d8:	08006854 	.word	0x08006854
 80061dc:	08006858 	.word	0x08006858

080061e0 <memcpy>:
 80061e0:	2300      	movs	r3, #0
 80061e2:	b510      	push	{r4, lr}
 80061e4:	429a      	cmp	r2, r3
 80061e6:	d100      	bne.n	80061ea <memcpy+0xa>
 80061e8:	bd10      	pop	{r4, pc}
 80061ea:	5ccc      	ldrb	r4, [r1, r3]
 80061ec:	54c4      	strb	r4, [r0, r3]
 80061ee:	3301      	adds	r3, #1
 80061f0:	e7f8      	b.n	80061e4 <memcpy+0x4>

080061f2 <memset>:
 80061f2:	0003      	movs	r3, r0
 80061f4:	1812      	adds	r2, r2, r0
 80061f6:	4293      	cmp	r3, r2
 80061f8:	d100      	bne.n	80061fc <memset+0xa>
 80061fa:	4770      	bx	lr
 80061fc:	7019      	strb	r1, [r3, #0]
 80061fe:	3301      	adds	r3, #1
 8006200:	e7f9      	b.n	80061f6 <memset+0x4>

08006202 <strcat>:
 8006202:	0002      	movs	r2, r0
 8006204:	b510      	push	{r4, lr}
 8006206:	7813      	ldrb	r3, [r2, #0]
 8006208:	1c54      	adds	r4, r2, #1
 800620a:	2b00      	cmp	r3, #0
 800620c:	d105      	bne.n	800621a <strcat+0x18>
 800620e:	5ccc      	ldrb	r4, [r1, r3]
 8006210:	54d4      	strb	r4, [r2, r3]
 8006212:	3301      	adds	r3, #1
 8006214:	2c00      	cmp	r4, #0
 8006216:	d1fa      	bne.n	800620e <strcat+0xc>
 8006218:	bd10      	pop	{r4, pc}
 800621a:	0022      	movs	r2, r4
 800621c:	e7f3      	b.n	8006206 <strcat+0x4>

0800621e <strchr>:
 800621e:	b2c9      	uxtb	r1, r1
 8006220:	7803      	ldrb	r3, [r0, #0]
 8006222:	2b00      	cmp	r3, #0
 8006224:	d004      	beq.n	8006230 <strchr+0x12>
 8006226:	428b      	cmp	r3, r1
 8006228:	d100      	bne.n	800622c <strchr+0xe>
 800622a:	4770      	bx	lr
 800622c:	3001      	adds	r0, #1
 800622e:	e7f7      	b.n	8006220 <strchr+0x2>
 8006230:	424b      	negs	r3, r1
 8006232:	4159      	adcs	r1, r3
 8006234:	4249      	negs	r1, r1
 8006236:	4008      	ands	r0, r1
 8006238:	e7f7      	b.n	800622a <strchr+0xc>

0800623a <strcpy>:
 800623a:	0003      	movs	r3, r0
 800623c:	780a      	ldrb	r2, [r1, #0]
 800623e:	3101      	adds	r1, #1
 8006240:	701a      	strb	r2, [r3, #0]
 8006242:	3301      	adds	r3, #1
 8006244:	2a00      	cmp	r2, #0
 8006246:	d1f9      	bne.n	800623c <strcpy+0x2>
 8006248:	4770      	bx	lr

0800624a <strncat>:
 800624a:	b5f0      	push	{r4, r5, r6, r7, lr}
 800624c:	0004      	movs	r4, r0
 800624e:	7823      	ldrb	r3, [r4, #0]
 8006250:	2b00      	cmp	r3, #0
 8006252:	d108      	bne.n	8006266 <strncat+0x1c>
 8006254:	001f      	movs	r7, r3
 8006256:	1e56      	subs	r6, r2, #1
 8006258:	4293      	cmp	r3, r2
 800625a:	d003      	beq.n	8006264 <strncat+0x1a>
 800625c:	5ccd      	ldrb	r5, [r1, r3]
 800625e:	54e5      	strb	r5, [r4, r3]
 8006260:	2d00      	cmp	r5, #0
 8006262:	d102      	bne.n	800626a <strncat+0x20>
 8006264:	bdf0      	pop	{r4, r5, r6, r7, pc}
 8006266:	3401      	adds	r4, #1
 8006268:	e7f1      	b.n	800624e <strncat+0x4>
 800626a:	429e      	cmp	r6, r3
 800626c:	d101      	bne.n	8006272 <strncat+0x28>
 800626e:	19a5      	adds	r5, r4, r6
 8006270:	706f      	strb	r7, [r5, #1]
 8006272:	3301      	adds	r3, #1
 8006274:	e7f0      	b.n	8006258 <strncat+0xe>

08006276 <strncmp>:
 8006276:	2300      	movs	r3, #0
 8006278:	b530      	push	{r4, r5, lr}
 800627a:	429a      	cmp	r2, r3
 800627c:	d00a      	beq.n	8006294 <strncmp+0x1e>
 800627e:	3a01      	subs	r2, #1
 8006280:	5cc4      	ldrb	r4, [r0, r3]
 8006282:	5ccd      	ldrb	r5, [r1, r3]
 8006284:	42ac      	cmp	r4, r5
 8006286:	d104      	bne.n	8006292 <strncmp+0x1c>
 8006288:	4293      	cmp	r3, r2
 800628a:	d002      	beq.n	8006292 <strncmp+0x1c>
 800628c:	3301      	adds	r3, #1
 800628e:	2c00      	cmp	r4, #0
 8006290:	d1f6      	bne.n	8006280 <strncmp+0xa>
 8006292:	1b63      	subs	r3, r4, r5
 8006294:	0018      	movs	r0, r3
 8006296:	bd30      	pop	{r4, r5, pc}

08006298 <strncpy>:
 8006298:	b530      	push	{r4, r5, lr}
 800629a:	0005      	movs	r5, r0
 800629c:	2a00      	cmp	r2, #0
 800629e:	d100      	bne.n	80062a2 <strncpy+0xa>
 80062a0:	bd30      	pop	{r4, r5, pc}
 80062a2:	780c      	ldrb	r4, [r1, #0]
 80062a4:	3a01      	subs	r2, #1
 80062a6:	1c6b      	adds	r3, r5, #1
 80062a8:	702c      	strb	r4, [r5, #0]
 80062aa:	3101      	adds	r1, #1
 80062ac:	2c00      	cmp	r4, #0
 80062ae:	d105      	bne.n	80062bc <strncpy+0x24>
 80062b0:	189a      	adds	r2, r3, r2
 80062b2:	429a      	cmp	r2, r3
 80062b4:	d0f4      	beq.n	80062a0 <strncpy+0x8>
 80062b6:	701c      	strb	r4, [r3, #0]
 80062b8:	3301      	adds	r3, #1
 80062ba:	e7fa      	b.n	80062b2 <strncpy+0x1a>
 80062bc:	001d      	movs	r5, r3
 80062be:	e7ed      	b.n	800629c <strncpy+0x4>

080062c0 <strnstr>:
 80062c0:	b570      	push	{r4, r5, r6, lr}
 80062c2:	000e      	movs	r6, r1
 80062c4:	0005      	movs	r5, r0
 80062c6:	0011      	movs	r1, r2
 80062c8:	0030      	movs	r0, r6
 80062ca:	0014      	movs	r4, r2
 80062cc:	f000 f92a 	bl	8006524 <strnlen>
 80062d0:	0003      	movs	r3, r0
 80062d2:	4284      	cmp	r4, r0
 80062d4:	d802      	bhi.n	80062dc <strnstr+0x1c>
 80062d6:	5c32      	ldrb	r2, [r6, r0]
 80062d8:	2a00      	cmp	r2, #0
 80062da:	d10d      	bne.n	80062f8 <strnstr+0x38>
 80062dc:	0021      	movs	r1, r4
 80062de:	0032      	movs	r2, r6
 80062e0:	0028      	movs	r0, r5
 80062e2:	f000 f894 	bl	800640e <memmem>
 80062e6:	1e04      	subs	r4, r0, #0
 80062e8:	d006      	beq.n	80062f8 <strnstr+0x38>
 80062ea:	1b42      	subs	r2, r0, r5
 80062ec:	2100      	movs	r1, #0
 80062ee:	0028      	movs	r0, r5
 80062f0:	f000 f882 	bl	80063f8 <memchr>
 80062f4:	2800      	cmp	r0, #0
 80062f6:	d000      	beq.n	80062fa <strnstr+0x3a>
 80062f8:	2400      	movs	r4, #0
 80062fa:	0020      	movs	r0, r4
 80062fc:	bd70      	pop	{r4, r5, r6, pc}

080062fe <strstr>:
 80062fe:	b510      	push	{r4, lr}
 8006300:	7803      	ldrb	r3, [r0, #0]
 8006302:	2b00      	cmp	r3, #0
 8006304:	d10f      	bne.n	8006326 <strstr+0x28>
 8006306:	780b      	ldrb	r3, [r1, #0]
 8006308:	425a      	negs	r2, r3
 800630a:	4153      	adcs	r3, r2
 800630c:	425b      	negs	r3, r3
 800630e:	4018      	ands	r0, r3
 8006310:	bd10      	pop	{r4, pc}
 8006312:	2300      	movs	r3, #0
 8006314:	5cca      	ldrb	r2, [r1, r3]
 8006316:	2a00      	cmp	r2, #0
 8006318:	d0fa      	beq.n	8006310 <strstr+0x12>
 800631a:	5cc4      	ldrb	r4, [r0, r3]
 800631c:	4294      	cmp	r4, r2
 800631e:	d101      	bne.n	8006324 <strstr+0x26>
 8006320:	3301      	adds	r3, #1
 8006322:	e7f7      	b.n	8006314 <strstr+0x16>
 8006324:	3001      	adds	r0, #1
 8006326:	7803      	ldrb	r3, [r0, #0]
 8006328:	2b00      	cmp	r3, #0
 800632a:	d1f2      	bne.n	8006312 <strstr+0x14>
 800632c:	0018      	movs	r0, r3
 800632e:	e7ef      	b.n	8006310 <strstr+0x12>

08006330 <strtok>:
 8006330:	b5f8      	push	{r3, r4, r5, r6, r7, lr}
 8006332:	4b12      	ldr	r3, [pc, #72]	; (800637c <strtok+0x4c>)
 8006334:	0006      	movs	r6, r0
 8006336:	681d      	ldr	r5, [r3, #0]
 8006338:	000f      	movs	r7, r1
 800633a:	6dac      	ldr	r4, [r5, #88]	; 0x58
 800633c:	2c00      	cmp	r4, #0
 800633e:	d116      	bne.n	800636e <strtok+0x3e>
 8006340:	2050      	movs	r0, #80	; 0x50
 8006342:	f000 f84f 	bl	80063e4 <malloc>
 8006346:	65a8      	str	r0, [r5, #88]	; 0x58
 8006348:	6004      	str	r4, [r0, #0]
 800634a:	6044      	str	r4, [r0, #4]
 800634c:	6084      	str	r4, [r0, #8]
 800634e:	60c4      	str	r4, [r0, #12]
 8006350:	6104      	str	r4, [r0, #16]
 8006352:	6144      	str	r4, [r0, #20]
 8006354:	6184      	str	r4, [r0, #24]
 8006356:	6284      	str	r4, [r0, #40]	; 0x28
 8006358:	62c4      	str	r4, [r0, #44]	; 0x2c
 800635a:	6304      	str	r4, [r0, #48]	; 0x30
 800635c:	6344      	str	r4, [r0, #52]	; 0x34
 800635e:	6384      	str	r4, [r0, #56]	; 0x38
 8006360:	63c4      	str	r4, [r0, #60]	; 0x3c
 8006362:	6404      	str	r4, [r0, #64]	; 0x40
 8006364:	6444      	str	r4, [r0, #68]	; 0x44
 8006366:	6484      	str	r4, [r0, #72]	; 0x48
 8006368:	64c4      	str	r4, [r0, #76]	; 0x4c
 800636a:	7704      	strb	r4, [r0, #28]
 800636c:	6244      	str	r4, [r0, #36]	; 0x24
 800636e:	6daa      	ldr	r2, [r5, #88]	; 0x58
 8006370:	0039      	movs	r1, r7
 8006372:	0030      	movs	r0, r6
 8006374:	2301      	movs	r3, #1
 8006376:	f000 f803 	bl	8006380 <__strtok_r>
 800637a:	bdf8      	pop	{r3, r4, r5, r6, r7, pc}
 800637c:	20000874 	.word	0x20000874

08006380 <__strtok_r>:
 8006380:	b5f0      	push	{r4, r5, r6, r7, lr}
 8006382:	2800      	cmp	r0, #0
 8006384:	d104      	bne.n	8006390 <__strtok_r+0x10>
 8006386:	6810      	ldr	r0, [r2, #0]
 8006388:	2800      	cmp	r0, #0
 800638a:	d101      	bne.n	8006390 <__strtok_r+0x10>
 800638c:	bdf0      	pop	{r4, r5, r6, r7, pc}
 800638e:	0020      	movs	r0, r4
 8006390:	000e      	movs	r6, r1
 8006392:	7805      	ldrb	r5, [r0, #0]
 8006394:	1c44      	adds	r4, r0, #1
 8006396:	7837      	ldrb	r7, [r6, #0]
 8006398:	2f00      	cmp	r7, #0
 800639a:	d104      	bne.n	80063a6 <__strtok_r+0x26>
 800639c:	2d00      	cmp	r5, #0
 800639e:	d110      	bne.n	80063c2 <__strtok_r+0x42>
 80063a0:	6015      	str	r5, [r2, #0]
 80063a2:	0028      	movs	r0, r5
 80063a4:	e7f2      	b.n	800638c <__strtok_r+0xc>
 80063a6:	3601      	adds	r6, #1
 80063a8:	42bd      	cmp	r5, r7
 80063aa:	d1f4      	bne.n	8006396 <__strtok_r+0x16>
 80063ac:	2b00      	cmp	r3, #0
 80063ae:	d1ee      	bne.n	800638e <__strtok_r+0xe>
 80063b0:	6014      	str	r4, [r2, #0]
 80063b2:	7003      	strb	r3, [r0, #0]
 80063b4:	e7ea      	b.n	800638c <__strtok_r+0xc>
 80063b6:	0033      	movs	r3, r6
 80063b8:	e00d      	b.n	80063d6 <__strtok_r+0x56>
 80063ba:	3501      	adds	r5, #1
 80063bc:	2f00      	cmp	r7, #0
 80063be:	d103      	bne.n	80063c8 <__strtok_r+0x48>
 80063c0:	001c      	movs	r4, r3
 80063c2:	000d      	movs	r5, r1
 80063c4:	7826      	ldrb	r6, [r4, #0]
 80063c6:	1c63      	adds	r3, r4, #1
 80063c8:	782f      	ldrb	r7, [r5, #0]
 80063ca:	42be      	cmp	r6, r7
 80063cc:	d1f5      	bne.n	80063ba <__strtok_r+0x3a>
 80063ce:	2e00      	cmp	r6, #0
 80063d0:	d0f1      	beq.n	80063b6 <__strtok_r+0x36>
 80063d2:	2100      	movs	r1, #0
 80063d4:	7021      	strb	r1, [r4, #0]
 80063d6:	6013      	str	r3, [r2, #0]
 80063d8:	e7d8      	b.n	800638c <__strtok_r+0xc>

080063da <strtok_r>:
 80063da:	b510      	push	{r4, lr}
 80063dc:	2301      	movs	r3, #1
 80063de:	f7ff ffcf 	bl	8006380 <__strtok_r>
 80063e2:	bd10      	pop	{r4, pc}

080063e4 <malloc>:
 80063e4:	b510      	push	{r4, lr}
 80063e6:	4b03      	ldr	r3, [pc, #12]	; (80063f4 <malloc+0x10>)
 80063e8:	0001      	movs	r1, r0
 80063ea:	6818      	ldr	r0, [r3, #0]
 80063ec:	f000 f82a 	bl	8006444 <_malloc_r>
 80063f0:	bd10      	pop	{r4, pc}
 80063f2:	46c0      	nop			; (mov r8, r8)
 80063f4:	20000874 	.word	0x20000874

080063f8 <memchr>:
 80063f8:	b2c9      	uxtb	r1, r1
 80063fa:	1882      	adds	r2, r0, r2
 80063fc:	4290      	cmp	r0, r2
 80063fe:	d101      	bne.n	8006404 <memchr+0xc>
 8006400:	2000      	movs	r0, #0
 8006402:	4770      	bx	lr
 8006404:	7803      	ldrb	r3, [r0, #0]
 8006406:	428b      	cmp	r3, r1
 8006408:	d0fb      	beq.n	8006402 <memchr+0xa>
 800640a:	3001      	adds	r0, #1
 800640c:	e7f6      	b.n	80063fc <memchr+0x4>

0800640e <memmem>:
 800640e:	b5f7      	push	{r0, r1, r2, r4, r5, r6, r7, lr}
 8006410:	0007      	movs	r7, r0
 8006412:	9100      	str	r1, [sp, #0]
 8006414:	9201      	str	r2, [sp, #4]
 8006416:	001e      	movs	r6, r3
 8006418:	0004      	movs	r4, r0
 800641a:	000d      	movs	r5, r1
 800641c:	2b00      	cmp	r3, #0
 800641e:	d109      	bne.n	8006434 <memmem+0x26>
 8006420:	0020      	movs	r0, r4
 8006422:	bdfe      	pop	{r1, r2, r3, r4, r5, r6, r7, pc}
 8006424:	0032      	movs	r2, r6
 8006426:	9901      	ldr	r1, [sp, #4]
 8006428:	0020      	movs	r0, r4
 800642a:	f000 f886 	bl	800653a <memcmp>
 800642e:	2800      	cmp	r0, #0
 8006430:	d0f6      	beq.n	8006420 <memmem+0x12>
 8006432:	3d01      	subs	r5, #1
 8006434:	9b00      	ldr	r3, [sp, #0]
 8006436:	18fc      	adds	r4, r7, r3
 8006438:	1b64      	subs	r4, r4, r5
 800643a:	42b5      	cmp	r5, r6
 800643c:	d2f2      	bcs.n	8006424 <memmem+0x16>
 800643e:	2400      	movs	r4, #0
 8006440:	e7ee      	b.n	8006420 <memmem+0x12>
	...

08006444 <_malloc_r>:
 8006444:	2303      	movs	r3, #3
 8006446:	b570      	push	{r4, r5, r6, lr}
 8006448:	1ccd      	adds	r5, r1, #3
 800644a:	439d      	bics	r5, r3
 800644c:	3508      	adds	r5, #8
 800644e:	0006      	movs	r6, r0
 8006450:	2d0c      	cmp	r5, #12
 8006452:	d21e      	bcs.n	8006492 <_malloc_r+0x4e>
 8006454:	250c      	movs	r5, #12
 8006456:	42a9      	cmp	r1, r5
 8006458:	d81d      	bhi.n	8006496 <_malloc_r+0x52>
 800645a:	0030      	movs	r0, r6
 800645c:	f000 f87c 	bl	8006558 <__malloc_lock>
 8006460:	4a25      	ldr	r2, [pc, #148]	; (80064f8 <_malloc_r+0xb4>)
 8006462:	6814      	ldr	r4, [r2, #0]
 8006464:	0021      	movs	r1, r4
 8006466:	2900      	cmp	r1, #0
 8006468:	d119      	bne.n	800649e <_malloc_r+0x5a>
 800646a:	4c24      	ldr	r4, [pc, #144]	; (80064fc <_malloc_r+0xb8>)
 800646c:	6823      	ldr	r3, [r4, #0]
 800646e:	2b00      	cmp	r3, #0
 8006470:	d103      	bne.n	800647a <_malloc_r+0x36>
 8006472:	0030      	movs	r0, r6
 8006474:	f000 f844 	bl	8006500 <_sbrk_r>
 8006478:	6020      	str	r0, [r4, #0]
 800647a:	0029      	movs	r1, r5
 800647c:	0030      	movs	r0, r6
 800647e:	f000 f83f 	bl	8006500 <_sbrk_r>
 8006482:	1c43      	adds	r3, r0, #1
 8006484:	d12b      	bne.n	80064de <_malloc_r+0x9a>
 8006486:	230c      	movs	r3, #12
 8006488:	0030      	movs	r0, r6
 800648a:	6033      	str	r3, [r6, #0]
 800648c:	f000 f865 	bl	800655a <__malloc_unlock>
 8006490:	e003      	b.n	800649a <_malloc_r+0x56>
 8006492:	2d00      	cmp	r5, #0
 8006494:	dadf      	bge.n	8006456 <_malloc_r+0x12>
 8006496:	230c      	movs	r3, #12
 8006498:	6033      	str	r3, [r6, #0]
 800649a:	2000      	movs	r0, #0
 800649c:	bd70      	pop	{r4, r5, r6, pc}
 800649e:	680b      	ldr	r3, [r1, #0]
 80064a0:	1b5b      	subs	r3, r3, r5
 80064a2:	d419      	bmi.n	80064d8 <_malloc_r+0x94>
 80064a4:	2b0b      	cmp	r3, #11
 80064a6:	d903      	bls.n	80064b0 <_malloc_r+0x6c>
 80064a8:	600b      	str	r3, [r1, #0]
 80064aa:	18cc      	adds	r4, r1, r3
 80064ac:	6025      	str	r5, [r4, #0]
 80064ae:	e003      	b.n	80064b8 <_malloc_r+0x74>
 80064b0:	684b      	ldr	r3, [r1, #4]
 80064b2:	428c      	cmp	r4, r1
 80064b4:	d10d      	bne.n	80064d2 <_malloc_r+0x8e>
 80064b6:	6013      	str	r3, [r2, #0]
 80064b8:	0030      	movs	r0, r6
 80064ba:	f000 f84e 	bl	800655a <__malloc_unlock>
 80064be:	0020      	movs	r0, r4
 80064c0:	2207      	movs	r2, #7
 80064c2:	300b      	adds	r0, #11
 80064c4:	1d23      	adds	r3, r4, #4
 80064c6:	4390      	bics	r0, r2
 80064c8:	1ac3      	subs	r3, r0, r3
 80064ca:	d0e7      	beq.n	800649c <_malloc_r+0x58>
 80064cc:	425a      	negs	r2, r3
 80064ce:	50e2      	str	r2, [r4, r3]
 80064d0:	e7e4      	b.n	800649c <_malloc_r+0x58>
 80064d2:	6063      	str	r3, [r4, #4]
 80064d4:	000c      	movs	r4, r1
 80064d6:	e7ef      	b.n	80064b8 <_malloc_r+0x74>
 80064d8:	000c      	movs	r4, r1
 80064da:	6849      	ldr	r1, [r1, #4]
 80064dc:	e7c3      	b.n	8006466 <_malloc_r+0x22>
 80064de:	2303      	movs	r3, #3
 80064e0:	1cc4      	adds	r4, r0, #3
 80064e2:	439c      	bics	r4, r3
 80064e4:	42a0      	cmp	r0, r4
 80064e6:	d0e1      	beq.n	80064ac <_malloc_r+0x68>
 80064e8:	1a21      	subs	r1, r4, r0
 80064ea:	0030      	movs	r0, r6
 80064ec:	f000 f808 	bl	8006500 <_sbrk_r>
 80064f0:	1c43      	adds	r3, r0, #1
 80064f2:	d1db      	bne.n	80064ac <_malloc_r+0x68>
 80064f4:	e7c7      	b.n	8006486 <_malloc_r+0x42>
 80064f6:	46c0      	nop			; (mov r8, r8)
 80064f8:	20001538 	.word	0x20001538
 80064fc:	2000153c 	.word	0x2000153c

08006500 <_sbrk_r>:
 8006500:	2300      	movs	r3, #0
 8006502:	b570      	push	{r4, r5, r6, lr}
 8006504:	4c06      	ldr	r4, [pc, #24]	; (8006520 <_sbrk_r+0x20>)
 8006506:	0005      	movs	r5, r0
 8006508:	0008      	movs	r0, r1
 800650a:	6023      	str	r3, [r4, #0]
 800650c:	f7ff fda4 	bl	8006058 <_sbrk>
 8006510:	1c43      	adds	r3, r0, #1
 8006512:	d103      	bne.n	800651c <_sbrk_r+0x1c>
 8006514:	6823      	ldr	r3, [r4, #0]
 8006516:	2b00      	cmp	r3, #0
 8006518:	d000      	beq.n	800651c <_sbrk_r+0x1c>
 800651a:	602b      	str	r3, [r5, #0]
 800651c:	bd70      	pop	{r4, r5, r6, pc}
 800651e:	46c0      	nop			; (mov r8, r8)
 8006520:	20001968 	.word	0x20001968

08006524 <strnlen>:
 8006524:	0003      	movs	r3, r0
 8006526:	1841      	adds	r1, r0, r1
 8006528:	428b      	cmp	r3, r1
 800652a:	d002      	beq.n	8006532 <strnlen+0xe>
 800652c:	781a      	ldrb	r2, [r3, #0]
 800652e:	2a00      	cmp	r2, #0
 8006530:	d101      	bne.n	8006536 <strnlen+0x12>
 8006532:	1a18      	subs	r0, r3, r0
 8006534:	4770      	bx	lr
 8006536:	3301      	adds	r3, #1
 8006538:	e7f6      	b.n	8006528 <strnlen+0x4>

0800653a <memcmp>:
 800653a:	b530      	push	{r4, r5, lr}
 800653c:	2400      	movs	r4, #0
 800653e:	42a2      	cmp	r2, r4
 8006540:	d101      	bne.n	8006546 <memcmp+0xc>
 8006542:	2000      	movs	r0, #0
 8006544:	e005      	b.n	8006552 <memcmp+0x18>
 8006546:	5d03      	ldrb	r3, [r0, r4]
 8006548:	1c65      	adds	r5, r4, #1
 800654a:	5d0c      	ldrb	r4, [r1, r4]
 800654c:	42a3      	cmp	r3, r4
 800654e:	d001      	beq.n	8006554 <memcmp+0x1a>
 8006550:	1b18      	subs	r0, r3, r4
 8006552:	bd30      	pop	{r4, r5, pc}
 8006554:	002c      	movs	r4, r5
 8006556:	e7f2      	b.n	800653e <memcmp+0x4>

08006558 <__malloc_lock>:
 8006558:	4770      	bx	lr

0800655a <__malloc_unlock>:
 800655a:	4770      	bx	lr

0800655c <_init>:
 800655c:	b5f8      	push	{r3, r4, r5, r6, r7, lr}
 800655e:	46c0      	nop			; (mov r8, r8)
 8006560:	bcf8      	pop	{r3, r4, r5, r6, r7}
 8006562:	bc08      	pop	{r3}
 8006564:	469e      	mov	lr, r3
 8006566:	4770      	bx	lr

08006568 <_fini>:
 8006568:	b5f8      	push	{r3, r4, r5, r6, r7, lr}
 800656a:	46c0      	nop			; (mov r8, r8)
 800656c:	bcf8      	pop	{r3, r4, r5, r6, r7}
 800656e:	bc08      	pop	{r3}
 8006570:	469e      	mov	lr, r3
 8006572:	4770      	bx	lr
